; Listing generated by Microsoft (R) Optimizing Compiler Version 19.24.28315.0 

	TITLE	D:\Platformer\CPPGame-a38d0db726ab2ff89afdd02c18394bd0c58340c9\CPPGame-a38d0db726ab2ff89afdd02c18394bd0c58340c9\PlatformerGame\src\GameEngine\objLoader.cpp
	.686P
	.XMM
	include listing.inc
	.model	flat

INCLUDELIB MSVCRTD
INCLUDELIB OLDNAMES

msvcjmc	SEGMENT
__367CC694_corecrt_memcpy_s@h DB 01H
__35D7DDB3_corecrt_memory@h DB 01H
__DC9673E3_corecrt_wstring@h DB 01H
__A29A7DFB_string@h DB 01H
__BD3EDE1B_vcruntime_new@h DB 01H
__09340588_corecrt_math@h DB 01H
__24E9E95F_stdlib@h DB 01H
__EC2FBCF1_cstdlib DB 01H
__C0436A37_cmath DB 01H
__F66CEB67_corecrt_stdio_config@h DB 01H
__101834BA_corecrt_wstdio@h DB 01H
__AD6A91B7_stdio@h DB 01H
__4877352E_type_traits DB 01H
__B0C4CEA9_malloc@h DB 01H
__CFCEF810_vcruntime_exception@h DB 01H
__CB7CF65A_exception DB 01H
__5467428D_corecrt_wconio@h DB 01H
__4442441F_corecrt_wio@h DB 01H
__45F4AF76_corecrt_wtime@h DB 01H
__186FF47F_stat@h DB 01H
__534C724A_wchar@h DB 01H
__CDF80030_limits DB 01H
__45864D8F_xutility DB 01H
__B1B75AB9_xmemory DB 01H
__C564DC25_xstring DB 01H
__4232CC07_stdexcept DB 01H
__34C7AB85_xcall_once@h DB 01H
__8B9AB9A5_system_error DB 01H
__60622685_vcruntime_typeinfo@h DB 01H
__3559BE96_typeinfo DB 01H
__71560CBE_memory DB 01H
__5D135BB1_xfacet DB 01H
__7242C389_ctype@h DB 01H
__2AD05D5E_xlocinfo DB 01H
__1A5AA814_xlocale DB 01H
__13352A4D_xiosbase DB 01H
__84DDCE03_xlocnum DB 01H
__735DEEF4_ios DB 01H
__ACF0F399_ratio DB 01H
__8AA3BE86_time@h DB 01H
__A91506BA_chrono DB 01H
__8FA2E757_func_common@inl DB 01H
__21B0B48E_algorithm DB 01H
__66607376_tuple DB 01H
__5A557807_xbit_ops@h DB 01H
__AFECAA51_xhash DB 01H
__9CD23703_fstream DB 01H
__05858A22_string DB 01H
__2F6D3485_queue DB 01H
__AEB92E59_objLoader@cpp DB 01H
__A934846A_sstream DB 01H
__DE98524E_list DB 01H
__32C29690_unordered_map DB 01H
__CC5B7044_deque DB 01H
__DB22397A_utility DB 01H
__805570D0_vector DB 01H
__6A9A47EA_istream DB 01H
__094A72D0_ostream DB 01H
__409274BB_streambuf DB 01H
__0111D5B6_iosfwd DB 01H
__2C3DAE68_xstddef DB 01H
__C1707A8C_xatomic@h DB 01H
__38590EB3_type_vec2@inl DB 01H
__F9DB0714_type_vec2@hpp DB 01H
__05392703_type_vec3@inl DB 01H
__C4BB2EA4_type_vec3@hpp DB 01H
msvcjmc	ENDS
CONST	SEGMENT
?piecewise_construct@std@@3Upiecewise_construct_t@1@B	ORG $+1 ; std::piecewise_construct
CONST	ENDS
PUBLIC	?__empty_global_delete@@YAXPAX@Z		; __empty_global_delete
PUBLIC	?__empty_global_delete@@YAXPAXI@Z		; __empty_global_delete
PUBLIC	??2@YAPAXIPAX@Z					; operator new
PUBLIC	_ceilf
PUBLIC	?_Fnv1a_append_bytes@std@@YAIIQBEI@Z		; std::_Fnv1a_append_bytes
PUBLIC	??0exception@std@@QAE@QBDH@Z			; std::exception::exception
PUBLIC	??0exception@std@@QAE@ABV01@@Z			; std::exception::exception
PUBLIC	??1exception@std@@UAE@XZ			; std::exception::~exception
PUBLIC	?what@exception@std@@UBEPBDXZ			; std::exception::what
PUBLIC	??_Gexception@std@@UAEPAXI@Z			; std::exception::`scalar deleting destructor'
PUBLIC	??0bad_alloc@std@@AAE@QBD@Z			; std::bad_alloc::bad_alloc
PUBLIC	??1bad_alloc@std@@UAE@XZ			; std::bad_alloc::~bad_alloc
PUBLIC	??0bad_alloc@std@@QAE@ABV01@@Z			; std::bad_alloc::bad_alloc
PUBLIC	??_Gbad_alloc@std@@UAEPAXI@Z			; std::bad_alloc::`scalar deleting destructor'
PUBLIC	??0bad_array_new_length@std@@QAE@XZ		; std::bad_array_new_length::bad_array_new_length
PUBLIC	??1bad_array_new_length@std@@UAE@XZ		; std::bad_array_new_length::~bad_array_new_length
PUBLIC	??0bad_array_new_length@std@@QAE@ABV01@@Z	; std::bad_array_new_length::bad_array_new_length
PUBLIC	??_Gbad_array_new_length@std@@UAEPAXI@Z		; std::bad_array_new_length::`scalar deleting destructor'
PUBLIC	?_Throw_bad_array_new_length@std@@YAXXZ		; std::_Throw_bad_array_new_length
PUBLIC	?max@?$numeric_limits@H@std@@SAHXZ		; std::numeric_limits<int>::max
PUBLIC	?_Allocate@_Default_allocate_traits@std@@SAPAXI@Z ; std::_Default_allocate_traits::_Allocate
PUBLIC	?_Adjust_manually_vector_aligned@std@@YAXAAPAXAAI@Z ; std::_Adjust_manually_vector_aligned
PUBLIC	??$_Convert_size@I@std@@YAII@Z			; std::_Convert_size<unsigned int>
PUBLIC	?_Adopt@_Iterator_base0@std@@QAEXPBX@Z		; std::_Iterator_base0::_Adopt
PUBLIC	??0_Container_proxy@std@@QAE@PAU_Container_base12@1@@Z ; std::_Container_proxy::_Container_proxy
PUBLIC	??0_Container_base12@std@@QAE@XZ		; std::_Container_base12::_Container_base12
PUBLIC	?_Orphan_all@_Container_base12@std@@QAEXXZ	; std::_Container_base12::_Orphan_all
PUBLIC	?_Swap_proxy_and_iterators@_Container_base12@std@@QAEXAAU12@@Z ; std::_Container_base12::_Swap_proxy_and_iterators
PUBLIC	??0_Iterator_base12@std@@QAE@XZ			; std::_Iterator_base12::_Iterator_base12
PUBLIC	??4_Iterator_base12@std@@QAEAAU01@ABU01@@Z	; std::_Iterator_base12::operator=
PUBLIC	??1_Iterator_base12@std@@QAE@XZ			; std::_Iterator_base12::~_Iterator_base12
PUBLIC	?_Adopt@_Iterator_base12@std@@QAEXPBU_Container_base12@2@@Z ; std::_Iterator_base12::_Adopt
PUBLIC	?_Getcont@_Iterator_base12@std@@QBEPBU_Container_base12@2@XZ ; std::_Iterator_base12::_Getcont
PUBLIC	?_Orphan_me@_Iterator_base12@std@@QAEXXZ	; std::_Iterator_base12::_Orphan_me
PUBLIC	?_Release@_Basic_container_proxy_ptr12@std@@QAEXXZ ; std::_Basic_container_proxy_ptr12::_Release
PUBLIC	??$addressof@U_Container_base12@std@@@std@@YAPAU_Container_base12@0@AAU10@@Z ; std::addressof<std::_Container_base12>
PUBLIC	??$_Construct_in_place@U_Container_proxy@std@@PAU_Container_base12@2@@std@@YAXAAU_Container_proxy@0@$$QAPAU_Container_base12@0@@Z ; std::_Construct_in_place<std::_Container_proxy,std::_Container_base12 *>
PUBLIC	?compare@?$_Narrow_char_traits@DH@std@@SAHQBD0I@Z ; std::_Narrow_char_traits<char,int>::compare
PUBLIC	?length@?$_Narrow_char_traits@DH@std@@SAIQBD@Z	; std::_Narrow_char_traits<char,int>::length
PUBLIC	?copy@?$_Narrow_char_traits@DH@std@@SAPADQADQBDI@Z ; std::_Narrow_char_traits<char,int>::copy
PUBLIC	?move@?$_Narrow_char_traits@DH@std@@SAPADQADQBDI@Z ; std::_Narrow_char_traits<char,int>::move
PUBLIC	?assign@?$_Narrow_char_traits@DH@std@@SAXAADABD@Z ; std::_Narrow_char_traits<char,int>::assign
PUBLIC	?eq@?$_Narrow_char_traits@DH@std@@SA_NABD0@Z	; std::_Narrow_char_traits<char,int>::eq
PUBLIC	?to_char_type@?$_Narrow_char_traits@DH@std@@SADABH@Z ; std::_Narrow_char_traits<char,int>::to_char_type
PUBLIC	?to_int_type@?$_Narrow_char_traits@DH@std@@SAHABD@Z ; std::_Narrow_char_traits<char,int>::to_int_type
PUBLIC	?eq_int_type@?$_Narrow_char_traits@DH@std@@SA_NABH0@Z ; std::_Narrow_char_traits<char,int>::eq_int_type
PUBLIC	?not_eof@?$_Narrow_char_traits@DH@std@@SAHABH@Z	; std::_Narrow_char_traits<char,int>::not_eof
PUBLIC	?eof@?$_Narrow_char_traits@DH@std@@SAHXZ	; std::_Narrow_char_traits<char,int>::eof
PUBLIC	??$_Min_value@I@std@@YAABIABI0@Z		; std::_Min_value<unsigned int>
PUBLIC	??0?$allocator@D@std@@QAE@XZ			; std::allocator<char>::allocator<char>
PUBLIC	?deallocate@?$allocator@D@std@@QAEXQADI@Z	; std::allocator<char>::deallocate
PUBLIC	?allocate@?$allocator@D@std@@QAEPADI@Z		; std::allocator<char>::allocate
PUBLIC	?max_size@?$_Default_allocator_traits@V?$allocator@D@std@@@std@@SAIABV?$allocator@D@2@@Z ; std::_Default_allocator_traits<std::allocator<char> >::max_size
PUBLIC	?select_on_container_copy_construction@?$_Default_allocator_traits@V?$allocator@D@std@@@std@@SA?AV?$allocator@D@2@ABV32@@Z ; std::_Default_allocator_traits<std::allocator<char> >::select_on_container_copy_construction
PUBLIC	??0?$_String_val@U?$_Simple_types@D@std@@@std@@QAE@XZ ; std::_String_val<std::_Simple_types<char> >::_String_val<std::_Simple_types<char> >
PUBLIC	?_Myptr@?$_String_val@U?$_Simple_types@D@std@@@std@@QAEPADXZ ; std::_String_val<std::_Simple_types<char> >::_Myptr
PUBLIC	?_Myptr@?$_String_val@U?$_Simple_types@D@std@@@std@@QBEPBDXZ ; std::_String_val<std::_Simple_types<char> >::_Myptr
PUBLIC	?_Large_string_engaged@?$_String_val@U?$_Simple_types@D@std@@@std@@QBE_NXZ ; std::_String_val<std::_Simple_types<char> >::_Large_string_engaged
PUBLIC	?_Check_offset@?$_String_val@U?$_Simple_types@D@std@@@std@@QBEXI@Z ; std::_String_val<std::_Simple_types<char> >::_Check_offset
PUBLIC	?_Xran@?$_String_val@U?$_Simple_types@D@std@@@std@@SAXXZ ; std::_String_val<std::_Simple_types<char> >::_Xran
PUBLIC	?_Clamp_suffix_size@?$_String_val@U?$_Simple_types@D@std@@@std@@QBEIII@Z ; std::_String_val<std::_Simple_types<char> >::_Clamp_suffix_size
PUBLIC	??0_Bxty@?$_String_val@U?$_Simple_types@D@std@@@std@@QAE@XZ ; std::_String_val<std::_Simple_types<char> >::_Bxty::_Bxty
PUBLIC	??1_Bxty@?$_String_val@U?$_Simple_types@D@std@@@std@@QAE@XZ ; std::_String_val<std::_Simple_types<char> >::_Bxty::~_Bxty
PUBLIC	??1?$_String_val@U?$_Simple_types@D@std@@@std@@QAE@XZ ; std::_String_val<std::_Simple_types<char> >::~_String_val<std::_Simple_types<char> >
PUBLIC	??0?$basic_string@DU?$char_traits@D@std@@V?$allocator@D@2@@std@@QAE@ABV01@@Z ; std::basic_string<char,std::char_traits<char>,std::allocator<char> >::basic_string<char,std::char_traits<char>,std::allocator<char> >
PUBLIC	??0?$basic_string@DU?$char_traits@D@std@@V?$allocator@D@2@@std@@QAE@XZ ; std::basic_string<char,std::char_traits<char>,std::allocator<char> >::basic_string<char,std::char_traits<char>,std::allocator<char> >
PUBLIC	??0?$basic_string@DU?$char_traits@D@std@@V?$allocator@D@2@@std@@QAE@ABV01@IIABV?$allocator@D@1@@Z ; std::basic_string<char,std::char_traits<char>,std::allocator<char> >::basic_string<char,std::char_traits<char>,std::allocator<char> >
PUBLIC	??0?$basic_string@DU?$char_traits@D@std@@V?$allocator@D@2@@std@@QAE@QBD@Z ; std::basic_string<char,std::char_traits<char>,std::allocator<char> >::basic_string<char,std::char_traits<char>,std::allocator<char> >
PUBLIC	??0?$basic_string@DU?$char_traits@D@std@@V?$allocator@D@2@@std@@QAE@$$QAV01@@Z ; std::basic_string<char,std::char_traits<char>,std::allocator<char> >::basic_string<char,std::char_traits<char>,std::allocator<char> >
PUBLIC	?_Move_assign@?$basic_string@DU?$char_traits@D@std@@V?$allocator@D@2@@std@@AAEXAAV12@U_Equal_allocators@2@@Z ; std::basic_string<char,std::char_traits<char>,std::allocator<char> >::_Move_assign
PUBLIC	??4?$basic_string@DU?$char_traits@D@std@@V?$allocator@D@2@@std@@QAEAAV01@$$QAV01@@Z ; std::basic_string<char,std::char_traits<char>,std::allocator<char> >::operator=
PUBLIC	?_Memcpy_val_from@?$basic_string@DU?$char_traits@D@std@@V?$allocator@D@2@@std@@AAEXABV12@@Z ; std::basic_string<char,std::char_traits<char>,std::allocator<char> >::_Memcpy_val_from
PUBLIC	?_Take_contents@?$basic_string@DU?$char_traits@D@std@@V?$allocator@D@2@@std@@AAEXAAV12@U?$integral_constant@_N$00@2@@Z ; std::basic_string<char,std::char_traits<char>,std::allocator<char> >::_Take_contents
PUBLIC	?_Construct_lv_contents@?$basic_string@DU?$char_traits@D@std@@V?$allocator@D@2@@std@@AAEXABV12@@Z ; std::basic_string<char,std::char_traits<char>,std::allocator<char> >::_Construct_lv_contents
PUBLIC	??1?$basic_string@DU?$char_traits@D@std@@V?$allocator@D@2@@std@@QAE@XZ ; std::basic_string<char,std::char_traits<char>,std::allocator<char> >::~basic_string<char,std::char_traits<char>,std::allocator<char> >
PUBLIC	?_Copy_assign@?$basic_string@DU?$char_traits@D@std@@V?$allocator@D@2@@std@@AAEXABV12@U?$integral_constant@_N$0A@@2@@Z ; std::basic_string<char,std::char_traits<char>,std::allocator<char> >::_Copy_assign
PUBLIC	??4?$basic_string@DU?$char_traits@D@std@@V?$allocator@D@2@@std@@QAEAAV01@ABV01@@Z ; std::basic_string<char,std::char_traits<char>,std::allocator<char> >::operator=
PUBLIC	??Y?$basic_string@DU?$char_traits@D@std@@V?$allocator@D@2@@std@@QAEAAV01@ABV01@@Z ; std::basic_string<char,std::char_traits<char>,std::allocator<char> >::operator+=
PUBLIC	??Y?$basic_string@DU?$char_traits@D@std@@V?$allocator@D@2@@std@@QAEAAV01@D@Z ; std::basic_string<char,std::char_traits<char>,std::allocator<char> >::operator+=
PUBLIC	?append@?$basic_string@DU?$char_traits@D@std@@V?$allocator@D@2@@std@@QAEAAV12@ABV12@@Z ; std::basic_string<char,std::char_traits<char>,std::allocator<char> >::append
PUBLIC	?append@?$basic_string@DU?$char_traits@D@std@@V?$allocator@D@2@@std@@QAEAAV12@QBDI@Z ; std::basic_string<char,std::char_traits<char>,std::allocator<char> >::append
PUBLIC	?assign@?$basic_string@DU?$char_traits@D@std@@V?$allocator@D@2@@std@@QAEAAV12@ABV12@II@Z ; std::basic_string<char,std::char_traits<char>,std::allocator<char> >::assign
PUBLIC	?assign@?$basic_string@DU?$char_traits@D@std@@V?$allocator@D@2@@std@@QAEAAV12@QBDI@Z ; std::basic_string<char,std::char_traits<char>,std::allocator<char> >::assign
PUBLIC	?assign@?$basic_string@DU?$char_traits@D@std@@V?$allocator@D@2@@std@@QAEAAV12@QBD@Z ; std::basic_string<char,std::char_traits<char>,std::allocator<char> >::assign
PUBLIC	?erase@?$basic_string@DU?$char_traits@D@std@@V?$allocator@D@2@@std@@QAEAAV12@I@Z ; std::basic_string<char,std::char_traits<char>,std::allocator<char> >::erase
PUBLIC	?erase@?$basic_string@DU?$char_traits@D@std@@V?$allocator@D@2@@std@@QAEAAV12@II@Z ; std::basic_string<char,std::char_traits<char>,std::allocator<char> >::erase
PUBLIC	??A?$basic_string@DU?$char_traits@D@std@@V?$allocator@D@2@@std@@QAEAADI@Z ; std::basic_string<char,std::char_traits<char>,std::allocator<char> >::operator[]
PUBLIC	?push_back@?$basic_string@DU?$char_traits@D@std@@V?$allocator@D@2@@std@@QAEXD@Z ; std::basic_string<char,std::char_traits<char>,std::allocator<char> >::push_back
PUBLIC	?front@?$basic_string@DU?$char_traits@D@std@@V?$allocator@D@2@@std@@QAEAADXZ ; std::basic_string<char,std::char_traits<char>,std::allocator<char> >::front
PUBLIC	?c_str@?$basic_string@DU?$char_traits@D@std@@V?$allocator@D@2@@std@@QBEPBDXZ ; std::basic_string<char,std::char_traits<char>,std::allocator<char> >::c_str
PUBLIC	?data@?$basic_string@DU?$char_traits@D@std@@V?$allocator@D@2@@std@@QBEPBDXZ ; std::basic_string<char,std::char_traits<char>,std::allocator<char> >::data
PUBLIC	?size@?$basic_string@DU?$char_traits@D@std@@V?$allocator@D@2@@std@@QBEIXZ ; std::basic_string<char,std::char_traits<char>,std::allocator<char> >::size
PUBLIC	?max_size@?$basic_string@DU?$char_traits@D@std@@V?$allocator@D@2@@std@@QBEIXZ ; std::basic_string<char,std::char_traits<char>,std::allocator<char> >::max_size
PUBLIC	?reserve@?$basic_string@DU?$char_traits@D@std@@V?$allocator@D@2@@std@@QAEXI@Z ; std::basic_string<char,std::char_traits<char>,std::allocator<char> >::reserve
PUBLIC	?substr@?$basic_string@DU?$char_traits@D@std@@V?$allocator@D@2@@std@@QBE?AV12@II@Z ; std::basic_string<char,std::char_traits<char>,std::allocator<char> >::substr
PUBLIC	?_Equal@?$basic_string@DU?$char_traits@D@std@@V?$allocator@D@2@@std@@QBE_NABV12@@Z ; std::basic_string<char,std::char_traits<char>,std::allocator<char> >::_Equal
PUBLIC	?get_allocator@?$basic_string@DU?$char_traits@D@std@@V?$allocator@D@2@@std@@QBE?AV?$allocator@D@2@XZ ; std::basic_string<char,std::char_traits<char>,std::allocator<char> >::get_allocator
PUBLIC	?_Calculate_growth@?$basic_string@DU?$char_traits@D@std@@V?$allocator@D@2@@std@@CAIIII@Z ; std::basic_string<char,std::char_traits<char>,std::allocator<char> >::_Calculate_growth
PUBLIC	?_Calculate_growth@?$basic_string@DU?$char_traits@D@std@@V?$allocator@D@2@@std@@ABEII@Z ; std::basic_string<char,std::char_traits<char>,std::allocator<char> >::_Calculate_growth
PUBLIC	?_Become_small@?$basic_string@DU?$char_traits@D@std@@V?$allocator@D@2@@std@@AAEXXZ ; std::basic_string<char,std::char_traits<char>,std::allocator<char> >::_Become_small
PUBLIC	?_Eos@?$basic_string@DU?$char_traits@D@std@@V?$allocator@D@2@@std@@AAEXI@Z ; std::basic_string<char,std::char_traits<char>,std::allocator<char> >::_Eos
PUBLIC	?_Tidy_init@?$basic_string@DU?$char_traits@D@std@@V?$allocator@D@2@@std@@AAEXXZ ; std::basic_string<char,std::char_traits<char>,std::allocator<char> >::_Tidy_init
PUBLIC	?_Tidy_deallocate@?$basic_string@DU?$char_traits@D@std@@V?$allocator@D@2@@std@@AAEXXZ ; std::basic_string<char,std::char_traits<char>,std::allocator<char> >::_Tidy_deallocate
PUBLIC	?_Xlen@?$basic_string@DU?$char_traits@D@std@@V?$allocator@D@2@@std@@CAXXZ ; std::basic_string<char,std::char_traits<char>,std::allocator<char> >::_Xlen
PUBLIC	?_Swap_proxy_and_iterators@?$basic_string@DU?$char_traits@D@std@@V?$allocator@D@2@@std@@AAEXAAV12@@Z ; std::basic_string<char,std::char_traits<char>,std::allocator<char> >::_Swap_proxy_and_iterators
PUBLIC	?_Getal@?$basic_string@DU?$char_traits@D@std@@V?$allocator@D@2@@std@@AAEAAV?$allocator@D@2@XZ ; std::basic_string<char,std::char_traits<char>,std::allocator<char> >::_Getal
PUBLIC	?_Getal@?$basic_string@DU?$char_traits@D@std@@V?$allocator@D@2@@std@@ABEABV?$allocator@D@2@XZ ; std::basic_string<char,std::char_traits<char>,std::allocator<char> >::_Getal
PUBLIC	?_Get_first@?$_Compressed_pair@V?$allocator@D@std@@V?$_String_val@U?$_Simple_types@D@std@@@2@$00@std@@QAEAAV?$allocator@D@2@XZ ; std::_Compressed_pair<std::allocator<char>,std::_String_val<std::_Simple_types<char> >,1>::_Get_first
PUBLIC	?_Get_first@?$_Compressed_pair@V?$allocator@D@std@@V?$_String_val@U?$_Simple_types@D@std@@@2@$00@std@@QBEABV?$allocator@D@2@XZ ; std::_Compressed_pair<std::allocator<char>,std::_String_val<std::_Simple_types<char> >,1>::_Get_first
PUBLIC	??1?$_Compressed_pair@V?$allocator@D@std@@V?$_String_val@U?$_Simple_types@D@std@@@2@$00@std@@QAE@XZ ; std::_Compressed_pair<std::allocator<char>,std::_String_val<std::_Simple_types<char> >,1>::~_Compressed_pair<std::allocator<char>,std::_String_val<std::_Simple_types<char> >,1>
PUBLIC	??_G?$basic_string@DU?$char_traits@D@std@@V?$allocator@D@2@@std@@QAEPAXI@Z ; std::basic_string<char,std::char_traits<char>,std::allocator<char> >::`scalar deleting destructor'
PUBLIC	??R?$_Conditionally_enabled_hash@H$00@std@@QBEIABH@Z ; std::_Conditionally_enabled_hash<int,1>::operator()
PUBLIC	?_Do_hash@?$hash@H@std@@SAIABH@Z		; std::hash<int>::_Do_hash
PUBLIC	??0bad_cast@std@@QAE@XZ				; std::bad_cast::bad_cast
PUBLIC	??1bad_cast@std@@UAE@XZ				; std::bad_cast::~bad_cast
PUBLIC	??0bad_cast@std@@QAE@ABV01@@Z			; std::bad_cast::bad_cast
PUBLIC	??_Gbad_cast@std@@UAEPAXI@Z			; std::bad_cast::`scalar deleting destructor'
PUBLIC	?_Throw_bad_cast@std@@YAXXZ			; std::_Throw_bad_cast
PUBLIC	??1locale@std@@QAE@XZ				; std::locale::~locale
PUBLIC	?_Getfacet@locale@std@@QBEPBVfacet@12@I@Z	; std::locale::_Getfacet
PUBLIC	??0?$fpos@U_Mbstatet@@@std@@QAE@_J@Z		; std::fpos<_Mbstatet>::fpos<_Mbstatet>
PUBLIC	??0?$fpos@U_Mbstatet@@@std@@QAE@U_Mbstatet@@_J@Z ; std::fpos<_Mbstatet>::fpos<_Mbstatet>
PUBLIC	?state@?$fpos@U_Mbstatet@@@std@@QBE?AU_Mbstatet@@XZ ; std::fpos<_Mbstatet>::state
PUBLIC	??B?$fpos@U_Mbstatet@@@std@@QBE_JXZ		; std::fpos<_Mbstatet>::operator __int64
PUBLIC	?now@steady_clock@chrono@std@@SA?AV?$time_point@Usteady_clock@chrono@std@@V?$duration@_JU?$ratio@$00$0DLJKMKAA@@std@@@23@@23@XZ ; std::chrono::steady_clock::now
PUBLIC	?count@?$duration@_JU?$ratio@$00$0DLJKMKAA@@std@@@chrono@std@@QBE_JXZ ; std::chrono::duration<__int64,std::ratio<1,1000000000> >::count
PUBLIC	?zero@?$duration@_JU?$ratio@$00$0DLJKMKAA@@std@@@chrono@std@@SA?AV123@XZ ; std::chrono::duration<__int64,std::ratio<1,1000000000> >::zero
PUBLIC	??0?$time_point@Usteady_clock@chrono@std@@V?$duration@_JU?$ratio@$00$0DLJKMKAA@@std@@@23@@chrono@std@@QAE@XZ ; std::chrono::time_point<std::chrono::steady_clock,std::chrono::duration<__int64,std::ratio<1,1000000000> > >::time_point<std::chrono::steady_clock,std::chrono::duration<__int64,std::ratio<1,1000000000> > >
PUBLIC	??0?$time_point@Usteady_clock@chrono@std@@V?$duration@_JU?$ratio@$00$0DLJKMKAA@@std@@@23@@chrono@std@@QAE@ABV?$duration@_JU?$ratio@$00$0DLJKMKAA@@std@@@12@@Z ; std::chrono::time_point<std::chrono::steady_clock,std::chrono::duration<__int64,std::ratio<1,1000000000> > >::time_point<std::chrono::steady_clock,std::chrono::duration<__int64,std::ratio<1,1000000000> > >
PUBLIC	?time_since_epoch@?$time_point@Usteady_clock@chrono@std@@V?$duration@_JU?$ratio@$00$0DLJKMKAA@@std@@@23@@chrono@std@@QBE?AV?$duration@_JU?$ratio@$00$0DLJKMKAA@@std@@@23@XZ ; std::chrono::time_point<std::chrono::steady_clock,std::chrono::duration<__int64,std::ratio<1,1000000000> > >::time_since_epoch
PUBLIC	??$?0_JX@?$duration@_JU?$ratio@$00$0DLJKMKAA@@std@@@chrono@std@@QAE@AB_J@Z ; std::chrono::duration<__int64,std::ratio<1,1000000000> >::duration<__int64,std::ratio<1,1000000000> ><__int64,void>
PUBLIC	?count@?$duration@NU?$ratio@$00$00@std@@@chrono@std@@QBENXZ ; std::chrono::duration<double,std::ratio<1,1> >::count
PUBLIC	??$duration_cast@V?$duration@NU?$ratio@$00$00@std@@@chrono@std@@_JU?$ratio@$00$0DLJKMKAA@@3@X@chrono@std@@YA?AV?$duration@NU?$ratio@$00$00@std@@@01@ABV?$duration@_JU?$ratio@$00$0DLJKMKAA@@std@@@01@@Z ; std::chrono::duration_cast<std::chrono::duration<double,std::ratio<1,1> >,__int64,std::ratio<1,1000000000>,void>
PUBLIC	??$?0NX@?$duration@NU?$ratio@$00$00@std@@@chrono@std@@QAE@ABN@Z ; std::chrono::duration<double,std::ratio<1,1> >::duration<double,std::ratio<1,1> ><double,void>
PUBLIC	??0?$tuple@$$V@std@@QAE@XZ			; std::tuple<>::tuple<>
PUBLIC	??0?$tuple@$$V@std@@QAE@ABV01@@Z		; std::tuple<>::tuple<>
PUBLIC	?_Floor_of_log_2@std@@YAKI@Z			; std::_Floor_of_log_2
PUBLIC	?_Ceiling_of_log_2@std@@YAKI@Z			; std::_Ceiling_of_log_2
PUBLIC	??$_Hash_array_representation@D@std@@YAIQBDI@Z	; std::_Hash_array_representation<char>
PUBLIC	??0?$allocator@U?$vec@$02M$0A@@glm@@@std@@QAE@XZ ; std::allocator<glm::vec<3,float,0> >::allocator<glm::vec<3,float,0> >
PUBLIC	?deallocate@?$allocator@U?$vec@$02M$0A@@glm@@@std@@QAEXQAU?$vec@$02M$0A@@glm@@I@Z ; std::allocator<glm::vec<3,float,0> >::deallocate
PUBLIC	?allocate@?$allocator@U?$vec@$02M$0A@@glm@@@std@@QAEPAU?$vec@$02M$0A@@glm@@I@Z ; std::allocator<glm::vec<3,float,0> >::allocate
PUBLIC	?max_size@?$_Default_allocator_traits@V?$allocator@U?$vec@$02M$0A@@glm@@@std@@@std@@SAIABV?$allocator@U?$vec@$02M$0A@@glm@@@2@@Z ; std::_Default_allocator_traits<std::allocator<glm::vec<3,float,0> > >::max_size
PUBLIC	?select_on_container_copy_construction@?$_Default_allocator_traits@V?$allocator@U?$vec@$02M$0A@@glm@@@std@@@std@@SA?AV?$allocator@U?$vec@$02M$0A@@glm@@@2@ABV32@@Z ; std::_Default_allocator_traits<std::allocator<glm::vec<3,float,0> > >::select_on_container_copy_construction
PUBLIC	??0?$vector@U?$vec@$02M$0A@@glm@@V?$allocator@U?$vec@$02M$0A@@glm@@@std@@@std@@QAE@XZ ; std::vector<glm::vec<3,float,0>,std::allocator<glm::vec<3,float,0> > >::vector<glm::vec<3,float,0>,std::allocator<glm::vec<3,float,0> > >
PUBLIC	??0?$vector@U?$vec@$02M$0A@@glm@@V?$allocator@U?$vec@$02M$0A@@glm@@@std@@@std@@QAE@IABV?$allocator@U?$vec@$02M$0A@@glm@@@1@@Z ; std::vector<glm::vec<3,float,0>,std::allocator<glm::vec<3,float,0> > >::vector<glm::vec<3,float,0>,std::allocator<glm::vec<3,float,0> > >
PUBLIC	??0?$vector@U?$vec@$02M$0A@@glm@@V?$allocator@U?$vec@$02M$0A@@glm@@@std@@@std@@QAE@ABV01@@Z ; std::vector<glm::vec<3,float,0>,std::allocator<glm::vec<3,float,0> > >::vector<glm::vec<3,float,0>,std::allocator<glm::vec<3,float,0> > >
PUBLIC	?_Move_construct@?$vector@U?$vec@$02M$0A@@glm@@V?$allocator@U?$vec@$02M$0A@@glm@@@std@@@std@@AAEXAAV12@U?$integral_constant@_N$00@2@@Z ; std::vector<glm::vec<3,float,0>,std::allocator<glm::vec<3,float,0> > >::_Move_construct
PUBLIC	??0?$vector@U?$vec@$02M$0A@@glm@@V?$allocator@U?$vec@$02M$0A@@glm@@@std@@@std@@QAE@$$QAV01@@Z ; std::vector<glm::vec<3,float,0>,std::allocator<glm::vec<3,float,0> > >::vector<glm::vec<3,float,0>,std::allocator<glm::vec<3,float,0> > >
PUBLIC	?_Move_assign@?$vector@U?$vec@$02M$0A@@glm@@V?$allocator@U?$vec@$02M$0A@@glm@@@std@@@std@@AAEXAAV12@U_Equal_allocators@2@@Z ; std::vector<glm::vec<3,float,0>,std::allocator<glm::vec<3,float,0> > >::_Move_assign
PUBLIC	??4?$vector@U?$vec@$02M$0A@@glm@@V?$allocator@U?$vec@$02M$0A@@glm@@@std@@@std@@QAEAAV01@$$QAV01@@Z ; std::vector<glm::vec<3,float,0>,std::allocator<glm::vec<3,float,0> > >::operator=
PUBLIC	??1?$vector@U?$vec@$02M$0A@@glm@@V?$allocator@U?$vec@$02M$0A@@glm@@@std@@@std@@QAE@XZ ; std::vector<glm::vec<3,float,0>,std::allocator<glm::vec<3,float,0> > >::~vector<glm::vec<3,float,0>,std::allocator<glm::vec<3,float,0> > >
PUBLIC	?push_back@?$vector@U?$vec@$02M$0A@@glm@@V?$allocator@U?$vec@$02M$0A@@glm@@@std@@@std@@QAEXABU?$vec@$02M$0A@@glm@@@Z ; std::vector<glm::vec<3,float,0>,std::allocator<glm::vec<3,float,0> > >::push_back
PUBLIC	?size@?$vector@U?$vec@$02M$0A@@glm@@V?$allocator@U?$vec@$02M$0A@@glm@@@std@@@std@@QBEIXZ ; std::vector<glm::vec<3,float,0>,std::allocator<glm::vec<3,float,0> > >::size
PUBLIC	?max_size@?$vector@U?$vec@$02M$0A@@glm@@V?$allocator@U?$vec@$02M$0A@@glm@@@std@@@std@@QBEIXZ ; std::vector<glm::vec<3,float,0>,std::allocator<glm::vec<3,float,0> > >::max_size
PUBLIC	?capacity@?$vector@U?$vec@$02M$0A@@glm@@V?$allocator@U?$vec@$02M$0A@@glm@@@std@@@std@@QBEIXZ ; std::vector<glm::vec<3,float,0>,std::allocator<glm::vec<3,float,0> > >::capacity
PUBLIC	??A?$vector@U?$vec@$02M$0A@@glm@@V?$allocator@U?$vec@$02M$0A@@glm@@@std@@@std@@QAEAAU?$vec@$02M$0A@@glm@@I@Z ; std::vector<glm::vec<3,float,0>,std::allocator<glm::vec<3,float,0> > >::operator[]
PUBLIC	?_Ufill@?$vector@U?$vec@$02M$0A@@glm@@V?$allocator@U?$vec@$02M$0A@@glm@@@std@@@std@@AAEPAU?$vec@$02M$0A@@glm@@PAU34@IU_Value_init_tag@2@@Z ; std::vector<glm::vec<3,float,0>,std::allocator<glm::vec<3,float,0> > >::_Ufill
PUBLIC	?_Umove@?$vector@U?$vec@$02M$0A@@glm@@V?$allocator@U?$vec@$02M$0A@@glm@@@std@@@std@@AAEPAU?$vec@$02M$0A@@glm@@PAU34@00@Z ; std::vector<glm::vec<3,float,0>,std::allocator<glm::vec<3,float,0> > >::_Umove
PUBLIC	?_Umove_if_noexcept1@?$vector@U?$vec@$02M$0A@@glm@@V?$allocator@U?$vec@$02M$0A@@glm@@@std@@@std@@AAEXPAU?$vec@$02M$0A@@glm@@00U?$integral_constant@_N$00@2@@Z ; std::vector<glm::vec<3,float,0>,std::allocator<glm::vec<3,float,0> > >::_Umove_if_noexcept1
PUBLIC	?_Umove_if_noexcept@?$vector@U?$vec@$02M$0A@@glm@@V?$allocator@U?$vec@$02M$0A@@glm@@@std@@@std@@AAEXPAU?$vec@$02M$0A@@glm@@00@Z ; std::vector<glm::vec<3,float,0>,std::allocator<glm::vec<3,float,0> > >::_Umove_if_noexcept
PUBLIC	?_Destroy@?$vector@U?$vec@$02M$0A@@glm@@V?$allocator@U?$vec@$02M$0A@@glm@@@std@@@std@@AAEXPAU?$vec@$02M$0A@@glm@@0@Z ; std::vector<glm::vec<3,float,0>,std::allocator<glm::vec<3,float,0> > >::_Destroy
PUBLIC	?_Calculate_growth@?$vector@U?$vec@$02M$0A@@glm@@V?$allocator@U?$vec@$02M$0A@@glm@@@std@@@std@@ABEII@Z ; std::vector<glm::vec<3,float,0>,std::allocator<glm::vec<3,float,0> > >::_Calculate_growth
PUBLIC	?_Buy_raw@?$vector@U?$vec@$02M$0A@@glm@@V?$allocator@U?$vec@$02M$0A@@glm@@@std@@@std@@AAEXI@Z ; std::vector<glm::vec<3,float,0>,std::allocator<glm::vec<3,float,0> > >::_Buy_raw
PUBLIC	?_Buy_nonzero@?$vector@U?$vec@$02M$0A@@glm@@V?$allocator@U?$vec@$02M$0A@@glm@@@std@@@std@@AAEXI@Z ; std::vector<glm::vec<3,float,0>,std::allocator<glm::vec<3,float,0> > >::_Buy_nonzero
PUBLIC	?_Change_array@?$vector@U?$vec@$02M$0A@@glm@@V?$allocator@U?$vec@$02M$0A@@glm@@@std@@@std@@AAEXQAU?$vec@$02M$0A@@glm@@II@Z ; std::vector<glm::vec<3,float,0>,std::allocator<glm::vec<3,float,0> > >::_Change_array
PUBLIC	?_Tidy@?$vector@U?$vec@$02M$0A@@glm@@V?$allocator@U?$vec@$02M$0A@@glm@@@std@@@std@@AAEXXZ ; std::vector<glm::vec<3,float,0>,std::allocator<glm::vec<3,float,0> > >::_Tidy
PUBLIC	?_Xlength@?$vector@U?$vec@$02M$0A@@glm@@V?$allocator@U?$vec@$02M$0A@@glm@@@std@@@std@@CAXXZ ; std::vector<glm::vec<3,float,0>,std::allocator<glm::vec<3,float,0> > >::_Xlength
PUBLIC	?_Orphan_range@?$vector@U?$vec@$02M$0A@@glm@@V?$allocator@U?$vec@$02M$0A@@glm@@@std@@@std@@ABEXPAU?$vec@$02M$0A@@glm@@0@Z ; std::vector<glm::vec<3,float,0>,std::allocator<glm::vec<3,float,0> > >::_Orphan_range
PUBLIC	?_Getal@?$vector@U?$vec@$02M$0A@@glm@@V?$allocator@U?$vec@$02M$0A@@glm@@@std@@@std@@AAEAAV?$allocator@U?$vec@$02M$0A@@glm@@@2@XZ ; std::vector<glm::vec<3,float,0>,std::allocator<glm::vec<3,float,0> > >::_Getal
PUBLIC	?_Getal@?$vector@U?$vec@$02M$0A@@glm@@V?$allocator@U?$vec@$02M$0A@@glm@@@std@@@std@@ABEABV?$allocator@U?$vec@$02M$0A@@glm@@@2@XZ ; std::vector<glm::vec<3,float,0>,std::allocator<glm::vec<3,float,0> > >::_Getal
PUBLIC	??0?$_Vector_val@U?$_Simple_types@U?$vec@$02M$0A@@glm@@@std@@@std@@QAE@XZ ; std::_Vector_val<std::_Simple_types<glm::vec<3,float,0> > >::_Vector_val<std::_Simple_types<glm::vec<3,float,0> > >
PUBLIC	?_Take_contents@?$_Vector_val@U?$_Simple_types@U?$vec@$02M$0A@@glm@@@std@@@std@@QAEXAAV12@@Z ; std::_Vector_val<std::_Simple_types<glm::vec<3,float,0> > >::_Take_contents
PUBLIC	?_Get_first@?$_Compressed_pair@V?$allocator@U?$vec@$02M$0A@@glm@@@std@@V?$_Vector_val@U?$_Simple_types@U?$vec@$02M$0A@@glm@@@std@@@2@$00@std@@QAEAAV?$allocator@U?$vec@$02M$0A@@glm@@@2@XZ ; std::_Compressed_pair<std::allocator<glm::vec<3,float,0> >,std::_Vector_val<std::_Simple_types<glm::vec<3,float,0> > >,1>::_Get_first
PUBLIC	?_Get_first@?$_Compressed_pair@V?$allocator@U?$vec@$02M$0A@@glm@@@std@@V?$_Vector_val@U?$_Simple_types@U?$vec@$02M$0A@@glm@@@std@@@2@$00@std@@QBEABV?$allocator@U?$vec@$02M$0A@@glm@@@2@XZ ; std::_Compressed_pair<std::allocator<glm::vec<3,float,0> >,std::_Vector_val<std::_Simple_types<glm::vec<3,float,0> > >,1>::_Get_first
PUBLIC	?__autoclassinit2@?$vector@U?$vec@$02M$0A@@glm@@V?$allocator@U?$vec@$02M$0A@@glm@@@std@@@std@@QAEXI@Z ; std::vector<glm::vec<3,float,0>,std::allocator<glm::vec<3,float,0> > >::__autoclassinit2
PUBLIC	??0?$allocator@U?$vec@$01M$0A@@glm@@@std@@QAE@XZ ; std::allocator<glm::vec<2,float,0> >::allocator<glm::vec<2,float,0> >
PUBLIC	?deallocate@?$allocator@U?$vec@$01M$0A@@glm@@@std@@QAEXQAU?$vec@$01M$0A@@glm@@I@Z ; std::allocator<glm::vec<2,float,0> >::deallocate
PUBLIC	?allocate@?$allocator@U?$vec@$01M$0A@@glm@@@std@@QAEPAU?$vec@$01M$0A@@glm@@I@Z ; std::allocator<glm::vec<2,float,0> >::allocate
PUBLIC	?max_size@?$_Default_allocator_traits@V?$allocator@U?$vec@$01M$0A@@glm@@@std@@@std@@SAIABV?$allocator@U?$vec@$01M$0A@@glm@@@2@@Z ; std::_Default_allocator_traits<std::allocator<glm::vec<2,float,0> > >::max_size
PUBLIC	?select_on_container_copy_construction@?$_Default_allocator_traits@V?$allocator@U?$vec@$01M$0A@@glm@@@std@@@std@@SA?AV?$allocator@U?$vec@$01M$0A@@glm@@@2@ABV32@@Z ; std::_Default_allocator_traits<std::allocator<glm::vec<2,float,0> > >::select_on_container_copy_construction
PUBLIC	??0?$vector@U?$vec@$01M$0A@@glm@@V?$allocator@U?$vec@$01M$0A@@glm@@@std@@@std@@QAE@XZ ; std::vector<glm::vec<2,float,0>,std::allocator<glm::vec<2,float,0> > >::vector<glm::vec<2,float,0>,std::allocator<glm::vec<2,float,0> > >
PUBLIC	??0?$vector@U?$vec@$01M$0A@@glm@@V?$allocator@U?$vec@$01M$0A@@glm@@@std@@@std@@QAE@IABV?$allocator@U?$vec@$01M$0A@@glm@@@1@@Z ; std::vector<glm::vec<2,float,0>,std::allocator<glm::vec<2,float,0> > >::vector<glm::vec<2,float,0>,std::allocator<glm::vec<2,float,0> > >
PUBLIC	??0?$vector@U?$vec@$01M$0A@@glm@@V?$allocator@U?$vec@$01M$0A@@glm@@@std@@@std@@QAE@ABV01@@Z ; std::vector<glm::vec<2,float,0>,std::allocator<glm::vec<2,float,0> > >::vector<glm::vec<2,float,0>,std::allocator<glm::vec<2,float,0> > >
PUBLIC	?_Move_construct@?$vector@U?$vec@$01M$0A@@glm@@V?$allocator@U?$vec@$01M$0A@@glm@@@std@@@std@@AAEXAAV12@U?$integral_constant@_N$00@2@@Z ; std::vector<glm::vec<2,float,0>,std::allocator<glm::vec<2,float,0> > >::_Move_construct
PUBLIC	??0?$vector@U?$vec@$01M$0A@@glm@@V?$allocator@U?$vec@$01M$0A@@glm@@@std@@@std@@QAE@$$QAV01@@Z ; std::vector<glm::vec<2,float,0>,std::allocator<glm::vec<2,float,0> > >::vector<glm::vec<2,float,0>,std::allocator<glm::vec<2,float,0> > >
PUBLIC	?_Move_assign@?$vector@U?$vec@$01M$0A@@glm@@V?$allocator@U?$vec@$01M$0A@@glm@@@std@@@std@@AAEXAAV12@U_Equal_allocators@2@@Z ; std::vector<glm::vec<2,float,0>,std::allocator<glm::vec<2,float,0> > >::_Move_assign
PUBLIC	??4?$vector@U?$vec@$01M$0A@@glm@@V?$allocator@U?$vec@$01M$0A@@glm@@@std@@@std@@QAEAAV01@$$QAV01@@Z ; std::vector<glm::vec<2,float,0>,std::allocator<glm::vec<2,float,0> > >::operator=
PUBLIC	??1?$vector@U?$vec@$01M$0A@@glm@@V?$allocator@U?$vec@$01M$0A@@glm@@@std@@@std@@QAE@XZ ; std::vector<glm::vec<2,float,0>,std::allocator<glm::vec<2,float,0> > >::~vector<glm::vec<2,float,0>,std::allocator<glm::vec<2,float,0> > >
PUBLIC	?push_back@?$vector@U?$vec@$01M$0A@@glm@@V?$allocator@U?$vec@$01M$0A@@glm@@@std@@@std@@QAEXABU?$vec@$01M$0A@@glm@@@Z ; std::vector<glm::vec<2,float,0>,std::allocator<glm::vec<2,float,0> > >::push_back
PUBLIC	?size@?$vector@U?$vec@$01M$0A@@glm@@V?$allocator@U?$vec@$01M$0A@@glm@@@std@@@std@@QBEIXZ ; std::vector<glm::vec<2,float,0>,std::allocator<glm::vec<2,float,0> > >::size
PUBLIC	?max_size@?$vector@U?$vec@$01M$0A@@glm@@V?$allocator@U?$vec@$01M$0A@@glm@@@std@@@std@@QBEIXZ ; std::vector<glm::vec<2,float,0>,std::allocator<glm::vec<2,float,0> > >::max_size
PUBLIC	?capacity@?$vector@U?$vec@$01M$0A@@glm@@V?$allocator@U?$vec@$01M$0A@@glm@@@std@@@std@@QBEIXZ ; std::vector<glm::vec<2,float,0>,std::allocator<glm::vec<2,float,0> > >::capacity
PUBLIC	??A?$vector@U?$vec@$01M$0A@@glm@@V?$allocator@U?$vec@$01M$0A@@glm@@@std@@@std@@QAEAAU?$vec@$01M$0A@@glm@@I@Z ; std::vector<glm::vec<2,float,0>,std::allocator<glm::vec<2,float,0> > >::operator[]
PUBLIC	?_Ufill@?$vector@U?$vec@$01M$0A@@glm@@V?$allocator@U?$vec@$01M$0A@@glm@@@std@@@std@@AAEPAU?$vec@$01M$0A@@glm@@PAU34@IU_Value_init_tag@2@@Z ; std::vector<glm::vec<2,float,0>,std::allocator<glm::vec<2,float,0> > >::_Ufill
PUBLIC	?_Umove@?$vector@U?$vec@$01M$0A@@glm@@V?$allocator@U?$vec@$01M$0A@@glm@@@std@@@std@@AAEPAU?$vec@$01M$0A@@glm@@PAU34@00@Z ; std::vector<glm::vec<2,float,0>,std::allocator<glm::vec<2,float,0> > >::_Umove
PUBLIC	?_Umove_if_noexcept1@?$vector@U?$vec@$01M$0A@@glm@@V?$allocator@U?$vec@$01M$0A@@glm@@@std@@@std@@AAEXPAU?$vec@$01M$0A@@glm@@00U?$integral_constant@_N$00@2@@Z ; std::vector<glm::vec<2,float,0>,std::allocator<glm::vec<2,float,0> > >::_Umove_if_noexcept1
PUBLIC	?_Umove_if_noexcept@?$vector@U?$vec@$01M$0A@@glm@@V?$allocator@U?$vec@$01M$0A@@glm@@@std@@@std@@AAEXPAU?$vec@$01M$0A@@glm@@00@Z ; std::vector<glm::vec<2,float,0>,std::allocator<glm::vec<2,float,0> > >::_Umove_if_noexcept
PUBLIC	?_Destroy@?$vector@U?$vec@$01M$0A@@glm@@V?$allocator@U?$vec@$01M$0A@@glm@@@std@@@std@@AAEXPAU?$vec@$01M$0A@@glm@@0@Z ; std::vector<glm::vec<2,float,0>,std::allocator<glm::vec<2,float,0> > >::_Destroy
PUBLIC	?_Calculate_growth@?$vector@U?$vec@$01M$0A@@glm@@V?$allocator@U?$vec@$01M$0A@@glm@@@std@@@std@@ABEII@Z ; std::vector<glm::vec<2,float,0>,std::allocator<glm::vec<2,float,0> > >::_Calculate_growth
PUBLIC	?_Buy_raw@?$vector@U?$vec@$01M$0A@@glm@@V?$allocator@U?$vec@$01M$0A@@glm@@@std@@@std@@AAEXI@Z ; std::vector<glm::vec<2,float,0>,std::allocator<glm::vec<2,float,0> > >::_Buy_raw
PUBLIC	?_Buy_nonzero@?$vector@U?$vec@$01M$0A@@glm@@V?$allocator@U?$vec@$01M$0A@@glm@@@std@@@std@@AAEXI@Z ; std::vector<glm::vec<2,float,0>,std::allocator<glm::vec<2,float,0> > >::_Buy_nonzero
PUBLIC	?_Change_array@?$vector@U?$vec@$01M$0A@@glm@@V?$allocator@U?$vec@$01M$0A@@glm@@@std@@@std@@AAEXQAU?$vec@$01M$0A@@glm@@II@Z ; std::vector<glm::vec<2,float,0>,std::allocator<glm::vec<2,float,0> > >::_Change_array
PUBLIC	?_Tidy@?$vector@U?$vec@$01M$0A@@glm@@V?$allocator@U?$vec@$01M$0A@@glm@@@std@@@std@@AAEXXZ ; std::vector<glm::vec<2,float,0>,std::allocator<glm::vec<2,float,0> > >::_Tidy
PUBLIC	?_Xlength@?$vector@U?$vec@$01M$0A@@glm@@V?$allocator@U?$vec@$01M$0A@@glm@@@std@@@std@@CAXXZ ; std::vector<glm::vec<2,float,0>,std::allocator<glm::vec<2,float,0> > >::_Xlength
PUBLIC	?_Orphan_range@?$vector@U?$vec@$01M$0A@@glm@@V?$allocator@U?$vec@$01M$0A@@glm@@@std@@@std@@ABEXPAU?$vec@$01M$0A@@glm@@0@Z ; std::vector<glm::vec<2,float,0>,std::allocator<glm::vec<2,float,0> > >::_Orphan_range
PUBLIC	?_Getal@?$vector@U?$vec@$01M$0A@@glm@@V?$allocator@U?$vec@$01M$0A@@glm@@@std@@@std@@AAEAAV?$allocator@U?$vec@$01M$0A@@glm@@@2@XZ ; std::vector<glm::vec<2,float,0>,std::allocator<glm::vec<2,float,0> > >::_Getal
PUBLIC	?_Getal@?$vector@U?$vec@$01M$0A@@glm@@V?$allocator@U?$vec@$01M$0A@@glm@@@std@@@std@@ABEABV?$allocator@U?$vec@$01M$0A@@glm@@@2@XZ ; std::vector<glm::vec<2,float,0>,std::allocator<glm::vec<2,float,0> > >::_Getal
PUBLIC	??0?$_Vector_val@U?$_Simple_types@U?$vec@$01M$0A@@glm@@@std@@@std@@QAE@XZ ; std::_Vector_val<std::_Simple_types<glm::vec<2,float,0> > >::_Vector_val<std::_Simple_types<glm::vec<2,float,0> > >
PUBLIC	?_Take_contents@?$_Vector_val@U?$_Simple_types@U?$vec@$01M$0A@@glm@@@std@@@std@@QAEXAAV12@@Z ; std::_Vector_val<std::_Simple_types<glm::vec<2,float,0> > >::_Take_contents
PUBLIC	?_Get_first@?$_Compressed_pair@V?$allocator@U?$vec@$01M$0A@@glm@@@std@@V?$_Vector_val@U?$_Simple_types@U?$vec@$01M$0A@@glm@@@std@@@2@$00@std@@QAEAAV?$allocator@U?$vec@$01M$0A@@glm@@@2@XZ ; std::_Compressed_pair<std::allocator<glm::vec<2,float,0> >,std::_Vector_val<std::_Simple_types<glm::vec<2,float,0> > >,1>::_Get_first
PUBLIC	?_Get_first@?$_Compressed_pair@V?$allocator@U?$vec@$01M$0A@@glm@@@std@@V?$_Vector_val@U?$_Simple_types@U?$vec@$01M$0A@@glm@@@std@@@2@$00@std@@QBEABV?$allocator@U?$vec@$01M$0A@@glm@@@2@XZ ; std::_Compressed_pair<std::allocator<glm::vec<2,float,0> >,std::_Vector_val<std::_Simple_types<glm::vec<2,float,0> > >,1>::_Get_first
PUBLIC	?__autoclassinit2@?$vector@U?$vec@$01M$0A@@glm@@V?$allocator@U?$vec@$01M$0A@@glm@@@std@@@std@@QAEXI@Z ; std::vector<glm::vec<2,float,0>,std::allocator<glm::vec<2,float,0> > >::__autoclassinit2
PUBLIC	??0?$allocator@U?$vec@$02I$0A@@glm@@@std@@QAE@XZ ; std::allocator<glm::vec<3,unsigned int,0> >::allocator<glm::vec<3,unsigned int,0> >
PUBLIC	?deallocate@?$allocator@U?$vec@$02I$0A@@glm@@@std@@QAEXQAU?$vec@$02I$0A@@glm@@I@Z ; std::allocator<glm::vec<3,unsigned int,0> >::deallocate
PUBLIC	?allocate@?$allocator@U?$vec@$02I$0A@@glm@@@std@@QAEPAU?$vec@$02I$0A@@glm@@I@Z ; std::allocator<glm::vec<3,unsigned int,0> >::allocate
PUBLIC	?max_size@?$_Default_allocator_traits@V?$allocator@U?$vec@$02I$0A@@glm@@@std@@@std@@SAIABV?$allocator@U?$vec@$02I$0A@@glm@@@2@@Z ; std::_Default_allocator_traits<std::allocator<glm::vec<3,unsigned int,0> > >::max_size
PUBLIC	?select_on_container_copy_construction@?$_Default_allocator_traits@V?$allocator@U?$vec@$02I$0A@@glm@@@std@@@std@@SA?AV?$allocator@U?$vec@$02I$0A@@glm@@@2@ABV32@@Z ; std::_Default_allocator_traits<std::allocator<glm::vec<3,unsigned int,0> > >::select_on_container_copy_construction
PUBLIC	??0?$vector@U?$vec@$02I$0A@@glm@@V?$allocator@U?$vec@$02I$0A@@glm@@@std@@@std@@QAE@XZ ; std::vector<glm::vec<3,unsigned int,0>,std::allocator<glm::vec<3,unsigned int,0> > >::vector<glm::vec<3,unsigned int,0>,std::allocator<glm::vec<3,unsigned int,0> > >
PUBLIC	??0?$vector@U?$vec@$02I$0A@@glm@@V?$allocator@U?$vec@$02I$0A@@glm@@@std@@@std@@QAE@IABV?$allocator@U?$vec@$02I$0A@@glm@@@1@@Z ; std::vector<glm::vec<3,unsigned int,0>,std::allocator<glm::vec<3,unsigned int,0> > >::vector<glm::vec<3,unsigned int,0>,std::allocator<glm::vec<3,unsigned int,0> > >
PUBLIC	??0?$vector@U?$vec@$02I$0A@@glm@@V?$allocator@U?$vec@$02I$0A@@glm@@@std@@@std@@QAE@ABV01@@Z ; std::vector<glm::vec<3,unsigned int,0>,std::allocator<glm::vec<3,unsigned int,0> > >::vector<glm::vec<3,unsigned int,0>,std::allocator<glm::vec<3,unsigned int,0> > >
PUBLIC	?_Move_assign@?$vector@U?$vec@$02I$0A@@glm@@V?$allocator@U?$vec@$02I$0A@@glm@@@std@@@std@@AAEXAAV12@U_Equal_allocators@2@@Z ; std::vector<glm::vec<3,unsigned int,0>,std::allocator<glm::vec<3,unsigned int,0> > >::_Move_assign
PUBLIC	??4?$vector@U?$vec@$02I$0A@@glm@@V?$allocator@U?$vec@$02I$0A@@glm@@@std@@@std@@QAEAAV01@$$QAV01@@Z ; std::vector<glm::vec<3,unsigned int,0>,std::allocator<glm::vec<3,unsigned int,0> > >::operator=
PUBLIC	??1?$vector@U?$vec@$02I$0A@@glm@@V?$allocator@U?$vec@$02I$0A@@glm@@@std@@@std@@QAE@XZ ; std::vector<glm::vec<3,unsigned int,0>,std::allocator<glm::vec<3,unsigned int,0> > >::~vector<glm::vec<3,unsigned int,0>,std::allocator<glm::vec<3,unsigned int,0> > >
PUBLIC	?size@?$vector@U?$vec@$02I$0A@@glm@@V?$allocator@U?$vec@$02I$0A@@glm@@@std@@@std@@QBEIXZ ; std::vector<glm::vec<3,unsigned int,0>,std::allocator<glm::vec<3,unsigned int,0> > >::size
PUBLIC	?max_size@?$vector@U?$vec@$02I$0A@@glm@@V?$allocator@U?$vec@$02I$0A@@glm@@@std@@@std@@QBEIXZ ; std::vector<glm::vec<3,unsigned int,0>,std::allocator<glm::vec<3,unsigned int,0> > >::max_size
PUBLIC	??A?$vector@U?$vec@$02I$0A@@glm@@V?$allocator@U?$vec@$02I$0A@@glm@@@std@@@std@@QAEAAU?$vec@$02I$0A@@glm@@I@Z ; std::vector<glm::vec<3,unsigned int,0>,std::allocator<glm::vec<3,unsigned int,0> > >::operator[]
PUBLIC	?_Ufill@?$vector@U?$vec@$02I$0A@@glm@@V?$allocator@U?$vec@$02I$0A@@glm@@@std@@@std@@AAEPAU?$vec@$02I$0A@@glm@@PAU34@IU_Value_init_tag@2@@Z ; std::vector<glm::vec<3,unsigned int,0>,std::allocator<glm::vec<3,unsigned int,0> > >::_Ufill
PUBLIC	?_Destroy@?$vector@U?$vec@$02I$0A@@glm@@V?$allocator@U?$vec@$02I$0A@@glm@@@std@@@std@@AAEXPAU?$vec@$02I$0A@@glm@@0@Z ; std::vector<glm::vec<3,unsigned int,0>,std::allocator<glm::vec<3,unsigned int,0> > >::_Destroy
PUBLIC	?_Buy_raw@?$vector@U?$vec@$02I$0A@@glm@@V?$allocator@U?$vec@$02I$0A@@glm@@@std@@@std@@AAEXI@Z ; std::vector<glm::vec<3,unsigned int,0>,std::allocator<glm::vec<3,unsigned int,0> > >::_Buy_raw
PUBLIC	?_Buy_nonzero@?$vector@U?$vec@$02I$0A@@glm@@V?$allocator@U?$vec@$02I$0A@@glm@@@std@@@std@@AAEXI@Z ; std::vector<glm::vec<3,unsigned int,0>,std::allocator<glm::vec<3,unsigned int,0> > >::_Buy_nonzero
PUBLIC	?_Tidy@?$vector@U?$vec@$02I$0A@@glm@@V?$allocator@U?$vec@$02I$0A@@glm@@@std@@@std@@AAEXXZ ; std::vector<glm::vec<3,unsigned int,0>,std::allocator<glm::vec<3,unsigned int,0> > >::_Tidy
PUBLIC	?_Xlength@?$vector@U?$vec@$02I$0A@@glm@@V?$allocator@U?$vec@$02I$0A@@glm@@@std@@@std@@CAXXZ ; std::vector<glm::vec<3,unsigned int,0>,std::allocator<glm::vec<3,unsigned int,0> > >::_Xlength
PUBLIC	?_Getal@?$vector@U?$vec@$02I$0A@@glm@@V?$allocator@U?$vec@$02I$0A@@glm@@@std@@@std@@AAEAAV?$allocator@U?$vec@$02I$0A@@glm@@@2@XZ ; std::vector<glm::vec<3,unsigned int,0>,std::allocator<glm::vec<3,unsigned int,0> > >::_Getal
PUBLIC	?_Getal@?$vector@U?$vec@$02I$0A@@glm@@V?$allocator@U?$vec@$02I$0A@@glm@@@std@@@std@@ABEABV?$allocator@U?$vec@$02I$0A@@glm@@@2@XZ ; std::vector<glm::vec<3,unsigned int,0>,std::allocator<glm::vec<3,unsigned int,0> > >::_Getal
PUBLIC	??0?$_Vector_val@U?$_Simple_types@U?$vec@$02I$0A@@glm@@@std@@@std@@QAE@XZ ; std::_Vector_val<std::_Simple_types<glm::vec<3,unsigned int,0> > >::_Vector_val<std::_Simple_types<glm::vec<3,unsigned int,0> > >
PUBLIC	?_Take_contents@?$_Vector_val@U?$_Simple_types@U?$vec@$02I$0A@@glm@@@std@@@std@@QAEXAAV12@@Z ; std::_Vector_val<std::_Simple_types<glm::vec<3,unsigned int,0> > >::_Take_contents
PUBLIC	?_Get_first@?$_Compressed_pair@V?$allocator@U?$vec@$02I$0A@@glm@@@std@@V?$_Vector_val@U?$_Simple_types@U?$vec@$02I$0A@@glm@@@std@@@2@$00@std@@QAEAAV?$allocator@U?$vec@$02I$0A@@glm@@@2@XZ ; std::_Compressed_pair<std::allocator<glm::vec<3,unsigned int,0> >,std::_Vector_val<std::_Simple_types<glm::vec<3,unsigned int,0> > >,1>::_Get_first
PUBLIC	?_Get_first@?$_Compressed_pair@V?$allocator@U?$vec@$02I$0A@@glm@@@std@@V?$_Vector_val@U?$_Simple_types@U?$vec@$02I$0A@@glm@@@std@@@2@$00@std@@QBEABV?$allocator@U?$vec@$02I$0A@@glm@@@2@XZ ; std::_Compressed_pair<std::allocator<glm::vec<3,unsigned int,0> >,std::_Vector_val<std::_Simple_types<glm::vec<3,unsigned int,0> > >,1>::_Get_first
PUBLIC	??0objLoader@@QAE@V?$basic_string@DU?$char_traits@D@std@@V?$allocator@D@2@@std@@@Z ; objLoader::objLoader
PUBLIC	?getverts@objLoader@@QAE?AV?$vector@U?$vec@$02M$0A@@glm@@V?$allocator@U?$vec@$02M$0A@@glm@@@std@@@std@@XZ ; objLoader::getverts
PUBLIC	?getNormals@objLoader@@QAE?AV?$vector@U?$vec@$02M$0A@@glm@@V?$allocator@U?$vec@$02M$0A@@glm@@@std@@@std@@XZ ; objLoader::getNormals
PUBLIC	?getUVS@objLoader@@QAE?AV?$vector@U?$vec@$01M$0A@@glm@@V?$allocator@U?$vec@$01M$0A@@glm@@@std@@@std@@XZ ; objLoader::getUVS
PUBLIC	?getInds@objLoader@@QAE?AV?$vector@U?$vec@$02I$0A@@glm@@V?$allocator@U?$vec@$02I$0A@@glm@@@std@@@std@@XZ ; objLoader::getInds
PUBLIC	?readFile@objLoader@@AAEXV?$basic_string@DU?$char_traits@D@std@@V?$allocator@D@2@@std@@@Z ; objLoader::readFile
PUBLIC	?proccessVerts@objLoader@@AAE?AV?$vector@U?$vec@$02M$0A@@glm@@V?$allocator@U?$vec@$02M$0A@@glm@@@std@@@std@@AAV?$queue@V?$basic_string@DU?$char_traits@D@std@@V?$allocator@D@2@@std@@V?$deque@V?$basic_string@DU?$char_traits@D@std@@V?$allocator@D@2@@std@@V?$allocator@V?$basic_string@DU?$char_traits@D@std@@V?$allocator@D@2@@std@@@2@@2@@3@H@Z ; objLoader::proccessVerts
PUBLIC	?proccessUVS@objLoader@@AAE?AV?$vector@U?$vec@$01M$0A@@glm@@V?$allocator@U?$vec@$01M$0A@@glm@@@std@@@std@@AAV?$queue@V?$basic_string@DU?$char_traits@D@std@@V?$allocator@D@2@@std@@V?$deque@V?$basic_string@DU?$char_traits@D@std@@V?$allocator@D@2@@std@@V?$allocator@V?$basic_string@DU?$char_traits@D@std@@V?$allocator@D@2@@std@@@2@@2@@3@H@Z ; objLoader::proccessUVS
PUBLIC	?proccessNormals@objLoader@@AAE?AV?$vector@U?$vec@$02M$0A@@glm@@V?$allocator@U?$vec@$02M$0A@@glm@@@std@@@std@@AAV?$queue@V?$basic_string@DU?$char_traits@D@std@@V?$allocator@D@2@@std@@V?$deque@V?$basic_string@DU?$char_traits@D@std@@V?$allocator@D@2@@std@@V?$allocator@V?$basic_string@DU?$char_traits@D@std@@V?$allocator@D@2@@std@@@2@@2@@3@H@Z ; objLoader::proccessNormals
PUBLIC	?proccessInds@objLoader@@AAEXAAV?$queue@V?$basic_string@DU?$char_traits@D@std@@V?$allocator@D@2@@std@@V?$deque@V?$basic_string@DU?$char_traits@D@std@@V?$allocator@D@2@@std@@V?$allocator@V?$basic_string@DU?$char_traits@D@std@@V?$allocator@D@2@@std@@@2@@2@@std@@AAHAAV?$unordered_map@HV?$basic_string@DU?$char_traits@D@std@@V?$allocator@D@2@@std@@U?$hash@H@2@U?$equal_to@H@2@V?$allocator@U?$pair@$$CBHV?$basic_string@DU?$char_traits@D@std@@V?$allocator@D@2@@std@@@std@@@2@@3@@Z ; objLoader::proccessInds
PUBLIC	??$_Fgetc@D@std@@YA_NAADPAU_iobuf@@@Z		; std::_Fgetc<char>
PUBLIC	??$_Fputc@D@std@@YA_NDPAU_iobuf@@@Z		; std::_Fputc<char>
PUBLIC	??$_Ungetc@D@std@@YA_NABDPAU_iobuf@@@Z		; std::_Ungetc<char>
PUBLIC	?stoi@std@@YAHABV?$basic_string@DU?$char_traits@D@std@@V?$allocator@D@2@@1@PAIH@Z ; std::stoi
PUBLIC	?stof@std@@YAMABV?$basic_string@DU?$char_traits@D@std@@V?$allocator@D@2@@1@PAI@Z ; std::stof
PUBLIC	??$?HDU?$char_traits@D@std@@V?$allocator@D@1@@std@@YA?AV?$basic_string@DU?$char_traits@D@std@@V?$allocator@D@2@@0@ABV10@0@Z ; std::operator+<char,std::char_traits<char>,std::allocator<char> >
PUBLIC	??$?HDU?$char_traits@D@std@@V?$allocator@D@1@@std@@YA?AV?$basic_string@DU?$char_traits@D@std@@V?$allocator@D@2@@0@$$QAV10@ABV10@@Z ; std::operator+<char,std::char_traits<char>,std::allocator<char> >
PUBLIC	??$?GUsteady_clock@chrono@std@@V?$duration@_JU?$ratio@$00$0DLJKMKAA@@std@@@12@V312@@chrono@std@@YA?AV?$duration@_JU?$ratio@$00$0DLJKMKAA@@std@@@01@ABV?$time_point@Usteady_clock@chrono@std@@V?$duration@_JU?$ratio@$00$0DLJKMKAA@@std@@@23@@01@0@Z ; std::chrono::operator-<std::chrono::steady_clock,std::chrono::duration<__int64,std::ratio<1,1000000000> >,std::chrono::duration<__int64,std::ratio<1,1000000000> > >
PUBLIC	??$?6U?$char_traits@D@std@@@std@@YAAAV?$basic_ostream@DU?$char_traits@D@std@@@0@AAV10@PBD@Z ; std::operator<<<std::char_traits<char> >
PUBLIC	??$?6DU?$char_traits@D@std@@V?$allocator@D@1@@std@@YAAAV?$basic_ostream@DU?$char_traits@D@std@@@0@AAV10@ABV?$basic_string@DU?$char_traits@D@std@@V?$allocator@D@2@@0@@Z ; std::operator<<<char,std::char_traits<char>,std::allocator<char> >
PUBLIC	??0?$basic_ifstream@DU?$char_traits@D@std@@@std@@QAE@XZ ; std::basic_ifstream<char,std::char_traits<char> >::basic_ifstream<char,std::char_traits<char> >
PUBLIC	??1?$basic_ifstream@DU?$char_traits@D@std@@@std@@UAE@XZ ; std::basic_ifstream<char,std::char_traits<char> >::~basic_ifstream<char,std::char_traits<char> >
PUBLIC	?open@?$basic_ifstream@DU?$char_traits@D@std@@@std@@QAEXPBDHH@Z ; std::basic_ifstream<char,std::char_traits<char> >::open
PUBLIC	?open@?$basic_ifstream@DU?$char_traits@D@std@@@std@@QAEXABV?$basic_string@DU?$char_traits@D@std@@V?$allocator@D@2@@2@HH@Z ; std::basic_ifstream<char,std::char_traits<char> >::open
PUBLIC	?close@?$basic_ifstream@DU?$char_traits@D@std@@@std@@QAEXXZ ; std::basic_ifstream<char,std::char_traits<char> >::close
PUBLIC	??0?$basic_filebuf@DU?$char_traits@D@std@@@std@@QAE@XZ ; std::basic_filebuf<char,std::char_traits<char> >::basic_filebuf<char,std::char_traits<char> >
PUBLIC	??1?$basic_filebuf@DU?$char_traits@D@std@@@std@@UAE@XZ ; std::basic_filebuf<char,std::char_traits<char> >::~basic_filebuf<char,std::char_traits<char> >
PUBLIC	?open@?$basic_filebuf@DU?$char_traits@D@std@@@std@@QAEPAV12@PBDHH@Z ; std::basic_filebuf<char,std::char_traits<char> >::open
PUBLIC	?close@?$basic_filebuf@DU?$char_traits@D@std@@@std@@QAEPAV12@XZ ; std::basic_filebuf<char,std::char_traits<char> >::close
PUBLIC	?_Lock@?$basic_filebuf@DU?$char_traits@D@std@@@std@@UAEXXZ ; std::basic_filebuf<char,std::char_traits<char> >::_Lock
PUBLIC	?_Unlock@?$basic_filebuf@DU?$char_traits@D@std@@@std@@UAEXXZ ; std::basic_filebuf<char,std::char_traits<char> >::_Unlock
PUBLIC	?overflow@?$basic_filebuf@DU?$char_traits@D@std@@@std@@MAEHH@Z ; std::basic_filebuf<char,std::char_traits<char> >::overflow
PUBLIC	?pbackfail@?$basic_filebuf@DU?$char_traits@D@std@@@std@@MAEHH@Z ; std::basic_filebuf<char,std::char_traits<char> >::pbackfail
PUBLIC	?underflow@?$basic_filebuf@DU?$char_traits@D@std@@@std@@MAEHXZ ; std::basic_filebuf<char,std::char_traits<char> >::underflow
PUBLIC	?uflow@?$basic_filebuf@DU?$char_traits@D@std@@@std@@MAEHXZ ; std::basic_filebuf<char,std::char_traits<char> >::uflow
PUBLIC	?xsgetn@?$basic_filebuf@DU?$char_traits@D@std@@@std@@MAE_JPAD_J@Z ; std::basic_filebuf<char,std::char_traits<char> >::xsgetn
PUBLIC	?xsputn@?$basic_filebuf@DU?$char_traits@D@std@@@std@@MAE_JPBD_J@Z ; std::basic_filebuf<char,std::char_traits<char> >::xsputn
PUBLIC	?seekoff@?$basic_filebuf@DU?$char_traits@D@std@@@std@@MAE?AV?$fpos@U_Mbstatet@@@2@_JHH@Z ; std::basic_filebuf<char,std::char_traits<char> >::seekoff
PUBLIC	?seekpos@?$basic_filebuf@DU?$char_traits@D@std@@@std@@MAE?AV?$fpos@U_Mbstatet@@@2@V32@H@Z ; std::basic_filebuf<char,std::char_traits<char> >::seekpos
PUBLIC	?setbuf@?$basic_filebuf@DU?$char_traits@D@std@@@std@@MAEPAV?$basic_streambuf@DU?$char_traits@D@std@@@2@PAD_J@Z ; std::basic_filebuf<char,std::char_traits<char> >::setbuf
PUBLIC	?sync@?$basic_filebuf@DU?$char_traits@D@std@@@std@@MAEHXZ ; std::basic_filebuf<char,std::char_traits<char> >::sync
PUBLIC	?imbue@?$basic_filebuf@DU?$char_traits@D@std@@@std@@MAEXABVlocale@2@@Z ; std::basic_filebuf<char,std::char_traits<char> >::imbue
PUBLIC	?_Init@?$basic_filebuf@DU?$char_traits@D@std@@@std@@IAEXPAU_iobuf@@W4_Initfl@12@@Z ; std::basic_filebuf<char,std::char_traits<char> >::_Init
PUBLIC	?_Endwrite@?$basic_filebuf@DU?$char_traits@D@std@@@std@@IAE_NXZ ; std::basic_filebuf<char,std::char_traits<char> >::_Endwrite
PUBLIC	?_Initcvt@?$basic_filebuf@DU?$char_traits@D@std@@@std@@IAEXABV?$codecvt@DDU_Mbstatet@@@2@@Z ; std::basic_filebuf<char,std::char_traits<char> >::_Initcvt
PUBLIC	?_Reset_back@?$basic_filebuf@DU?$char_traits@D@std@@@std@@AAEXXZ ; std::basic_filebuf<char,std::char_traits<char> >::_Reset_back
PUBLIC	?_Set_back@?$basic_filebuf@DU?$char_traits@D@std@@@std@@AAEXXZ ; std::basic_filebuf<char,std::char_traits<char> >::_Set_back
PUBLIC	??_G?$basic_filebuf@DU?$char_traits@D@std@@@std@@UAEPAXI@Z ; std::basic_filebuf<char,std::char_traits<char> >::`scalar deleting destructor'
PUBLIC	?__autoclassinit2@?$basic_ifstream@DU?$char_traits@D@std@@@std@@QAEXI@Z ; std::basic_ifstream<char,std::char_traits<char> >::__autoclassinit2
PUBLIC	??_G?$basic_ifstream@DU?$char_traits@D@std@@@std@@UAEPAXI@Z ; std::basic_ifstream<char,std::char_traits<char> >::`scalar deleting destructor'
PUBLIC	??_D?$basic_ifstream@DU?$char_traits@D@std@@@std@@QAEXXZ ; std::basic_ifstream<char,std::char_traits<char> >::`vbase destructor'
PUBLIC	??0?$allocator@V?$basic_string@DU?$char_traits@D@std@@V?$allocator@D@2@@std@@@std@@QAE@XZ ; std::allocator<std::basic_string<char,std::char_traits<char>,std::allocator<char> > >::allocator<std::basic_string<char,std::char_traits<char>,std::allocator<char> > >
PUBLIC	?deallocate@?$allocator@V?$basic_string@DU?$char_traits@D@std@@V?$allocator@D@2@@std@@@std@@QAEXQAV?$basic_string@DU?$char_traits@D@std@@V?$allocator@D@2@@2@I@Z ; std::allocator<std::basic_string<char,std::char_traits<char>,std::allocator<char> > >::deallocate
PUBLIC	?allocate@?$allocator@V?$basic_string@DU?$char_traits@D@std@@V?$allocator@D@2@@std@@@std@@QAEPAV?$basic_string@DU?$char_traits@D@std@@V?$allocator@D@2@@2@I@Z ; std::allocator<std::basic_string<char,std::char_traits<char>,std::allocator<char> > >::allocate
PUBLIC	?max_size@?$_Default_allocator_traits@V?$allocator@V?$basic_string@DU?$char_traits@D@std@@V?$allocator@D@2@@std@@@std@@@std@@SAIABV?$allocator@V?$basic_string@DU?$char_traits@D@std@@V?$allocator@D@2@@std@@@2@@Z ; std::_Default_allocator_traits<std::allocator<std::basic_string<char,std::char_traits<char>,std::allocator<char> > > >::max_size
PUBLIC	?deallocate@?$allocator@PAV?$basic_string@DU?$char_traits@D@std@@V?$allocator@D@2@@std@@@std@@QAEXQAPAV?$basic_string@DU?$char_traits@D@std@@V?$allocator@D@2@@2@I@Z ; std::allocator<std::basic_string<char,std::char_traits<char>,std::allocator<char> > *>::deallocate
PUBLIC	?allocate@?$allocator@PAV?$basic_string@DU?$char_traits@D@std@@V?$allocator@D@2@@std@@@std@@QAEPAPAV?$basic_string@DU?$char_traits@D@std@@V?$allocator@D@2@@2@I@Z ; std::allocator<std::basic_string<char,std::char_traits<char>,std::allocator<char> > *>::allocate
PUBLIC	??0?$deque@V?$basic_string@DU?$char_traits@D@std@@V?$allocator@D@2@@std@@V?$allocator@V?$basic_string@DU?$char_traits@D@std@@V?$allocator@D@2@@std@@@2@@std@@QAE@XZ ; std::deque<std::basic_string<char,std::char_traits<char>,std::allocator<char> >,std::allocator<std::basic_string<char,std::char_traits<char>,std::allocator<char> > > >::deque<std::basic_string<char,std::char_traits<char>,std::allocator<char> >,std::allocator<std::basic_string<char,std::char_traits<char>,std::allocator<char> > > >
PUBLIC	??1?$deque@V?$basic_string@DU?$char_traits@D@std@@V?$allocator@D@2@@std@@V?$allocator@V?$basic_string@DU?$char_traits@D@std@@V?$allocator@D@2@@std@@@2@@std@@QAE@XZ ; std::deque<std::basic_string<char,std::char_traits<char>,std::allocator<char> >,std::allocator<std::basic_string<char,std::char_traits<char>,std::allocator<char> > > >::~deque<std::basic_string<char,std::char_traits<char>,std::allocator<char> >,std::allocator<std::basic_string<char,std::char_traits<char>,std::allocator<char> > > >
PUBLIC	?_Unchecked_begin@?$deque@V?$basic_string@DU?$char_traits@D@std@@V?$allocator@D@2@@std@@V?$allocator@V?$basic_string@DU?$char_traits@D@std@@V?$allocator@D@2@@std@@@2@@std@@QAE?AV?$_Deque_unchecked_iterator@V?$_Deque_val@U?$_Deque_simple_types@V?$basic_string@DU?$char_traits@D@std@@V?$allocator@D@2@@std@@@std@@@std@@@2@XZ ; std::deque<std::basic_string<char,std::char_traits<char>,std::allocator<char> >,std::allocator<std::basic_string<char,std::char_traits<char>,std::allocator<char> > > >::_Unchecked_begin
PUBLIC	?size@?$deque@V?$basic_string@DU?$char_traits@D@std@@V?$allocator@D@2@@std@@V?$allocator@V?$basic_string@DU?$char_traits@D@std@@V?$allocator@D@2@@std@@@2@@std@@QBEIXZ ; std::deque<std::basic_string<char,std::char_traits<char>,std::allocator<char> >,std::allocator<std::basic_string<char,std::char_traits<char>,std::allocator<char> > > >::size
PUBLIC	?max_size@?$deque@V?$basic_string@DU?$char_traits@D@std@@V?$allocator@D@2@@std@@V?$allocator@V?$basic_string@DU?$char_traits@D@std@@V?$allocator@D@2@@std@@@2@@std@@QBEIXZ ; std::deque<std::basic_string<char,std::char_traits<char>,std::allocator<char> >,std::allocator<std::basic_string<char,std::char_traits<char>,std::allocator<char> > > >::max_size
PUBLIC	?empty@?$deque@V?$basic_string@DU?$char_traits@D@std@@V?$allocator@D@2@@std@@V?$allocator@V?$basic_string@DU?$char_traits@D@std@@V?$allocator@D@2@@std@@@2@@std@@QBE_NXZ ; std::deque<std::basic_string<char,std::char_traits<char>,std::allocator<char> >,std::allocator<std::basic_string<char,std::char_traits<char>,std::allocator<char> > > >::empty
PUBLIC	?front@?$deque@V?$basic_string@DU?$char_traits@D@std@@V?$allocator@D@2@@std@@V?$allocator@V?$basic_string@DU?$char_traits@D@std@@V?$allocator@D@2@@std@@@2@@std@@QAEAAV?$basic_string@DU?$char_traits@D@std@@V?$allocator@D@2@@2@XZ ; std::deque<std::basic_string<char,std::char_traits<char>,std::allocator<char> >,std::allocator<std::basic_string<char,std::char_traits<char>,std::allocator<char> > > >::front
PUBLIC	?pop_front@?$deque@V?$basic_string@DU?$char_traits@D@std@@V?$allocator@D@2@@std@@V?$allocator@V?$basic_string@DU?$char_traits@D@std@@V?$allocator@D@2@@std@@@2@@std@@QAEXXZ ; std::deque<std::basic_string<char,std::char_traits<char>,std::allocator<char> >,std::allocator<std::basic_string<char,std::char_traits<char>,std::allocator<char> > > >::pop_front
PUBLIC	?push_back@?$deque@V?$basic_string@DU?$char_traits@D@std@@V?$allocator@D@2@@std@@V?$allocator@V?$basic_string@DU?$char_traits@D@std@@V?$allocator@D@2@@std@@@2@@std@@QAEXABV?$basic_string@DU?$char_traits@D@std@@V?$allocator@D@2@@2@@Z ; std::deque<std::basic_string<char,std::char_traits<char>,std::allocator<char> >,std::allocator<std::basic_string<char,std::char_traits<char>,std::allocator<char> > > >::push_back
PUBLIC	?pop_back@?$deque@V?$basic_string@DU?$char_traits@D@std@@V?$allocator@D@2@@std@@V?$allocator@V?$basic_string@DU?$char_traits@D@std@@V?$allocator@D@2@@std@@@2@@std@@QAEXXZ ; std::deque<std::basic_string<char,std::char_traits<char>,std::allocator<char> >,std::allocator<std::basic_string<char,std::char_traits<char>,std::allocator<char> > > >::pop_back
PUBLIC	?_Xlen@?$deque@V?$basic_string@DU?$char_traits@D@std@@V?$allocator@D@2@@std@@V?$allocator@V?$basic_string@DU?$char_traits@D@std@@V?$allocator@D@2@@std@@@2@@std@@ABEXXZ ; std::deque<std::basic_string<char,std::char_traits<char>,std::allocator<char> >,std::allocator<std::basic_string<char,std::char_traits<char>,std::allocator<char> > > >::_Xlen
PUBLIC	?_Growmap@?$deque@V?$basic_string@DU?$char_traits@D@std@@V?$allocator@D@2@@std@@V?$allocator@V?$basic_string@DU?$char_traits@D@std@@V?$allocator@D@2@@std@@@2@@std@@AAEXI@Z ; std::deque<std::basic_string<char,std::char_traits<char>,std::allocator<char> >,std::allocator<std::basic_string<char,std::char_traits<char>,std::allocator<char> > > >::_Growmap
PUBLIC	?_Tidy@?$deque@V?$basic_string@DU?$char_traits@D@std@@V?$allocator@D@2@@std@@V?$allocator@V?$basic_string@DU?$char_traits@D@std@@V?$allocator@D@2@@std@@@2@@std@@AAEXXZ ; std::deque<std::basic_string<char,std::char_traits<char>,std::allocator<char> >,std::allocator<std::basic_string<char,std::char_traits<char>,std::allocator<char> > > >::_Tidy
PUBLIC	?_Orphan_off@?$deque@V?$basic_string@DU?$char_traits@D@std@@V?$allocator@D@2@@std@@V?$allocator@V?$basic_string@DU?$char_traits@D@std@@V?$allocator@D@2@@std@@@2@@std@@ABEXI@Z ; std::deque<std::basic_string<char,std::char_traits<char>,std::allocator<char> >,std::allocator<std::basic_string<char,std::char_traits<char>,std::allocator<char> > > >::_Orphan_off
PUBLIC	?_Getblock@?$deque@V?$basic_string@DU?$char_traits@D@std@@V?$allocator@D@2@@std@@V?$allocator@V?$basic_string@DU?$char_traits@D@std@@V?$allocator@D@2@@std@@@2@@std@@ABEII@Z ; std::deque<std::basic_string<char,std::char_traits<char>,std::allocator<char> >,std::allocator<std::basic_string<char,std::char_traits<char>,std::allocator<char> > > >::_Getblock
PUBLIC	?_Orphan_all@?$deque@V?$basic_string@DU?$char_traits@D@std@@V?$allocator@D@2@@std@@V?$allocator@V?$basic_string@DU?$char_traits@D@std@@V?$allocator@D@2@@std@@@2@@std@@AAEXXZ ; std::deque<std::basic_string<char,std::char_traits<char>,std::allocator<char> >,std::allocator<std::basic_string<char,std::char_traits<char>,std::allocator<char> > > >::_Orphan_all
PUBLIC	?_Getal@?$deque@V?$basic_string@DU?$char_traits@D@std@@V?$allocator@D@2@@std@@V?$allocator@V?$basic_string@DU?$char_traits@D@std@@V?$allocator@D@2@@std@@@2@@std@@AAEAAV?$allocator@V?$basic_string@DU?$char_traits@D@std@@V?$allocator@D@2@@std@@@2@XZ ; std::deque<std::basic_string<char,std::char_traits<char>,std::allocator<char> >,std::allocator<std::basic_string<char,std::char_traits<char>,std::allocator<char> > > >::_Getal
PUBLIC	?_Getal@?$deque@V?$basic_string@DU?$char_traits@D@std@@V?$allocator@D@2@@std@@V?$allocator@V?$basic_string@DU?$char_traits@D@std@@V?$allocator@D@2@@std@@@2@@std@@ABEABV?$allocator@V?$basic_string@DU?$char_traits@D@std@@V?$allocator@D@2@@std@@@2@XZ ; std::deque<std::basic_string<char,std::char_traits<char>,std::allocator<char> >,std::allocator<std::basic_string<char,std::char_traits<char>,std::allocator<char> > > >::_Getal
PUBLIC	?_Get_data@?$deque@V?$basic_string@DU?$char_traits@D@std@@V?$allocator@D@2@@std@@V?$allocator@V?$basic_string@DU?$char_traits@D@std@@V?$allocator@D@2@@std@@@2@@std@@AAEAAV?$_Deque_val@U?$_Deque_simple_types@V?$basic_string@DU?$char_traits@D@std@@V?$allocator@D@2@@std@@@std@@@2@XZ ; std::deque<std::basic_string<char,std::char_traits<char>,std::allocator<char> >,std::allocator<std::basic_string<char,std::char_traits<char>,std::allocator<char> > > >::_Get_data
PUBLIC	?_Get_data@?$deque@V?$basic_string@DU?$char_traits@D@std@@V?$allocator@D@2@@std@@V?$allocator@V?$basic_string@DU?$char_traits@D@std@@V?$allocator@D@2@@std@@@2@@std@@ABEABV?$_Deque_val@U?$_Deque_simple_types@V?$basic_string@DU?$char_traits@D@std@@V?$allocator@D@2@@std@@@std@@@2@XZ ; std::deque<std::basic_string<char,std::char_traits<char>,std::allocator<char> >,std::allocator<std::basic_string<char,std::char_traits<char>,std::allocator<char> > > >::_Get_data
PUBLIC	?_Map@?$deque@V?$basic_string@DU?$char_traits@D@std@@V?$allocator@D@2@@std@@V?$allocator@V?$basic_string@DU?$char_traits@D@std@@V?$allocator@D@2@@std@@@2@@std@@AAEAAPAPAV?$basic_string@DU?$char_traits@D@std@@V?$allocator@D@2@@2@XZ ; std::deque<std::basic_string<char,std::char_traits<char>,std::allocator<char> >,std::allocator<std::basic_string<char,std::char_traits<char>,std::allocator<char> > > >::_Map
PUBLIC	?_Mapsize@?$deque@V?$basic_string@DU?$char_traits@D@std@@V?$allocator@D@2@@std@@V?$allocator@V?$basic_string@DU?$char_traits@D@std@@V?$allocator@D@2@@std@@@2@@std@@AAEAAIXZ ; std::deque<std::basic_string<char,std::char_traits<char>,std::allocator<char> >,std::allocator<std::basic_string<char,std::char_traits<char>,std::allocator<char> > > >::_Mapsize
PUBLIC	?_Myoff@?$deque@V?$basic_string@DU?$char_traits@D@std@@V?$allocator@D@2@@std@@V?$allocator@V?$basic_string@DU?$char_traits@D@std@@V?$allocator@D@2@@std@@@2@@std@@AAEAAIXZ ; std::deque<std::basic_string<char,std::char_traits<char>,std::allocator<char> >,std::allocator<std::basic_string<char,std::char_traits<char>,std::allocator<char> > > >::_Myoff
PUBLIC	?_Myoff@?$deque@V?$basic_string@DU?$char_traits@D@std@@V?$allocator@D@2@@std@@V?$allocator@V?$basic_string@DU?$char_traits@D@std@@V?$allocator@D@2@@std@@@2@@std@@ABEABIXZ ; std::deque<std::basic_string<char,std::char_traits<char>,std::allocator<char> >,std::allocator<std::basic_string<char,std::char_traits<char>,std::allocator<char> > > >::_Myoff
PUBLIC	?_Mysize@?$deque@V?$basic_string@DU?$char_traits@D@std@@V?$allocator@D@2@@std@@V?$allocator@V?$basic_string@DU?$char_traits@D@std@@V?$allocator@D@2@@std@@@2@@std@@AAEAAIXZ ; std::deque<std::basic_string<char,std::char_traits<char>,std::allocator<char> >,std::allocator<std::basic_string<char,std::char_traits<char>,std::allocator<char> > > >::_Mysize
PUBLIC	?_Mysize@?$deque@V?$basic_string@DU?$char_traits@D@std@@V?$allocator@D@2@@std@@V?$allocator@V?$basic_string@DU?$char_traits@D@std@@V?$allocator@D@2@@std@@@2@@std@@ABEABIXZ ; std::deque<std::basic_string<char,std::char_traits<char>,std::allocator<char> >,std::allocator<std::basic_string<char,std::char_traits<char>,std::allocator<char> > > >::_Mysize
PUBLIC	??0?$_Deque_val@U?$_Deque_simple_types@V?$basic_string@DU?$char_traits@D@std@@V?$allocator@D@2@@std@@@std@@@std@@QAE@XZ ; std::_Deque_val<std::_Deque_simple_types<std::basic_string<char,std::char_traits<char>,std::allocator<char> > > >::_Deque_val<std::_Deque_simple_types<std::basic_string<char,std::char_traits<char>,std::allocator<char> > > >
PUBLIC	?_Getblock@?$_Deque_val@U?$_Deque_simple_types@V?$basic_string@DU?$char_traits@D@std@@V?$allocator@D@2@@std@@@std@@@std@@QBEII@Z ; std::_Deque_val<std::_Deque_simple_types<std::basic_string<char,std::char_traits<char>,std::allocator<char> > > >::_Getblock
PUBLIC	?_Get_first@?$_Compressed_pair@V?$allocator@V?$basic_string@DU?$char_traits@D@std@@V?$allocator@D@2@@std@@@std@@V?$_Deque_val@U?$_Deque_simple_types@V?$basic_string@DU?$char_traits@D@std@@V?$allocator@D@2@@std@@@std@@@2@$00@std@@QAEAAV?$allocator@V?$basic_string@DU?$char_traits@D@std@@V?$allocator@D@2@@std@@@2@XZ ; std::_Compressed_pair<std::allocator<std::basic_string<char,std::char_traits<char>,std::allocator<char> > >,std::_Deque_val<std::_Deque_simple_types<std::basic_string<char,std::char_traits<char>,std::allocator<char> > > >,1>::_Get_first
PUBLIC	?_Get_first@?$_Compressed_pair@V?$allocator@V?$basic_string@DU?$char_traits@D@std@@V?$allocator@D@2@@std@@@std@@V?$_Deque_val@U?$_Deque_simple_types@V?$basic_string@DU?$char_traits@D@std@@V?$allocator@D@2@@std@@@std@@@2@$00@std@@QBEABV?$allocator@V?$basic_string@DU?$char_traits@D@std@@V?$allocator@D@2@@std@@@2@XZ ; std::_Compressed_pair<std::allocator<std::basic_string<char,std::char_traits<char>,std::allocator<char> > >,std::_Deque_val<std::_Deque_simple_types<std::basic_string<char,std::char_traits<char>,std::allocator<char> > > >,1>::_Get_first
PUBLIC	??0?$queue@V?$basic_string@DU?$char_traits@D@std@@V?$allocator@D@2@@std@@V?$deque@V?$basic_string@DU?$char_traits@D@std@@V?$allocator@D@2@@std@@V?$allocator@V?$basic_string@DU?$char_traits@D@std@@V?$allocator@D@2@@std@@@2@@2@@std@@QAE@XZ ; std::queue<std::basic_string<char,std::char_traits<char>,std::allocator<char> >,std::deque<std::basic_string<char,std::char_traits<char>,std::allocator<char> >,std::allocator<std::basic_string<char,std::char_traits<char>,std::allocator<char> > > > >::queue<std::basic_string<char,std::char_traits<char>,std::allocator<char> >,std::deque<std::basic_string<char,std::char_traits<char>,std::allocator<char> >,std::allocator<std::basic_string<char,std::char_traits<char>,std::allocator<char> > > > >
PUBLIC	?size@?$queue@V?$basic_string@DU?$char_traits@D@std@@V?$allocator@D@2@@std@@V?$deque@V?$basic_string@DU?$char_traits@D@std@@V?$allocator@D@2@@std@@V?$allocator@V?$basic_string@DU?$char_traits@D@std@@V?$allocator@D@2@@std@@@2@@2@@std@@QBEIXZ ; std::queue<std::basic_string<char,std::char_traits<char>,std::allocator<char> >,std::deque<std::basic_string<char,std::char_traits<char>,std::allocator<char> >,std::allocator<std::basic_string<char,std::char_traits<char>,std::allocator<char> > > > >::size
PUBLIC	?front@?$queue@V?$basic_string@DU?$char_traits@D@std@@V?$allocator@D@2@@std@@V?$deque@V?$basic_string@DU?$char_traits@D@std@@V?$allocator@D@2@@std@@V?$allocator@V?$basic_string@DU?$char_traits@D@std@@V?$allocator@D@2@@std@@@2@@2@@std@@QAEAAV?$basic_string@DU?$char_traits@D@std@@V?$allocator@D@2@@2@XZ ; std::queue<std::basic_string<char,std::char_traits<char>,std::allocator<char> >,std::deque<std::basic_string<char,std::char_traits<char>,std::allocator<char> >,std::allocator<std::basic_string<char,std::char_traits<char>,std::allocator<char> > > > >::front
PUBLIC	?push@?$queue@V?$basic_string@DU?$char_traits@D@std@@V?$allocator@D@2@@std@@V?$deque@V?$basic_string@DU?$char_traits@D@std@@V?$allocator@D@2@@std@@V?$allocator@V?$basic_string@DU?$char_traits@D@std@@V?$allocator@D@2@@std@@@2@@2@@std@@QAEXABV?$basic_string@DU?$char_traits@D@std@@V?$allocator@D@2@@2@@Z ; std::queue<std::basic_string<char,std::char_traits<char>,std::allocator<char> >,std::deque<std::basic_string<char,std::char_traits<char>,std::allocator<char> >,std::allocator<std::basic_string<char,std::char_traits<char>,std::allocator<char> > > > >::push
PUBLIC	?pop@?$queue@V?$basic_string@DU?$char_traits@D@std@@V?$allocator@D@2@@std@@V?$deque@V?$basic_string@DU?$char_traits@D@std@@V?$allocator@D@2@@std@@V?$allocator@V?$basic_string@DU?$char_traits@D@std@@V?$allocator@D@2@@std@@@2@@2@@std@@QAEXXZ ; std::queue<std::basic_string<char,std::char_traits<char>,std::allocator<char> >,std::deque<std::basic_string<char,std::char_traits<char>,std::allocator<char> >,std::allocator<std::basic_string<char,std::char_traits<char>,std::allocator<char> > > > >::pop
PUBLIC	??1?$queue@V?$basic_string@DU?$char_traits@D@std@@V?$allocator@D@2@@std@@V?$deque@V?$basic_string@DU?$char_traits@D@std@@V?$allocator@D@2@@std@@V?$allocator@V?$basic_string@DU?$char_traits@D@std@@V?$allocator@D@2@@std@@@2@@2@@std@@QAE@XZ ; std::queue<std::basic_string<char,std::char_traits<char>,std::allocator<char> >,std::deque<std::basic_string<char,std::char_traits<char>,std::allocator<char> >,std::allocator<std::basic_string<char,std::char_traits<char>,std::allocator<char> > > > >::~queue<std::basic_string<char,std::char_traits<char>,std::allocator<char> >,std::deque<std::basic_string<char,std::char_traits<char>,std::allocator<char> >,std::allocator<std::basic_string<char,std::char_traits<char>,std::allocator<char> > > > >
PUBLIC	?__autoclassinit2@?$queue@V?$basic_string@DU?$char_traits@D@std@@V?$allocator@D@2@@std@@V?$deque@V?$basic_string@DU?$char_traits@D@std@@V?$allocator@D@2@@std@@V?$allocator@V?$basic_string@DU?$char_traits@D@std@@V?$allocator@D@2@@std@@@2@@2@@std@@QAEXI@Z ; std::queue<std::basic_string<char,std::char_traits<char>,std::allocator<char> >,std::deque<std::basic_string<char,std::char_traits<char>,std::allocator<char> >,std::allocator<std::basic_string<char,std::char_traits<char>,std::allocator<char> > > > >::__autoclassinit2
PUBLIC	??0?$_Uhash_compare@HU?$hash@H@std@@U?$equal_to@H@2@@std@@QAE@XZ ; std::_Uhash_compare<int,std::hash<int>,std::equal_to<int> >::_Uhash_compare<int,std::hash<int>,std::equal_to<int> >
PUBLIC	?_Get_max_bucket_size@?$_Uhash_compare@HU?$hash@H@std@@U?$equal_to@H@2@@std@@QAEAAMXZ ; std::_Uhash_compare<int,std::hash<int>,std::equal_to<int> >::_Get_max_bucket_size
PUBLIC	?_Get_max_bucket_size@?$_Uhash_compare@HU?$hash@H@std@@U?$equal_to@H@2@@std@@QBEABMXZ ; std::_Uhash_compare<int,std::hash<int>,std::equal_to<int> >::_Get_max_bucket_size
PUBLIC	??R?$equal_to@H@std@@QBE_NABH0@Z		; std::equal_to<int>::operator()
PUBLIC	?_Get_first@?$_Compressed_pair@U?$equal_to@H@std@@M$00@std@@QBEABU?$equal_to@H@2@XZ ; std::_Compressed_pair<std::equal_to<int>,float,1>::_Get_first
PUBLIC	?_Get_first@?$_Compressed_pair@U?$hash@H@std@@V?$_Compressed_pair@U?$equal_to@H@std@@M$00@2@$00@std@@QBEABU?$hash@H@2@XZ ; std::_Compressed_pair<std::hash<int>,std::_Compressed_pair<std::equal_to<int>,float,1>,1>::_Get_first
PUBLIC	??0?$_Umap_traits@HV?$basic_string@DU?$char_traits@D@std@@V?$allocator@D@2@@std@@V?$_Uhash_compare@HU?$hash@H@std@@U?$equal_to@H@2@@2@V?$allocator@U?$pair@$$CBHV?$basic_string@DU?$char_traits@D@std@@V?$allocator@D@2@@std@@@std@@@2@$0A@@std@@QAE@ABV?$_Uhash_compare@HU?$hash@H@std@@U?$equal_to@H@2@@1@@Z ; std::_Umap_traits<int,std::basic_string<char,std::char_traits<char>,std::allocator<char> >,std::_Uhash_compare<int,std::hash<int>,std::equal_to<int> >,std::allocator<std::pair<int const ,std::basic_string<char,std::char_traits<char>,std::allocator<char> > > >,0>::_Umap_traits<int,std::basic_string<char,std::char_traits<char>,std::allocator<char> >,std::_Uhash_compare<int,std::hash<int>,std::equal_to<int> >,std::allocator<std::pair<int const ,std::basic_string<char,std::char_traits<char>,std::allocator<char> > > >,0>
PUBLIC	??0?$allocator@U?$pair@$$CBHV?$basic_string@DU?$char_traits@D@std@@V?$allocator@D@2@@std@@@std@@@std@@QAE@XZ ; std::allocator<std::pair<int const ,std::basic_string<char,std::char_traits<char>,std::allocator<char> > > >::allocator<std::pair<int const ,std::basic_string<char,std::char_traits<char>,std::allocator<char> > > >
PUBLIC	?deallocate@?$allocator@U?$_List_node@U?$pair@$$CBHV?$basic_string@DU?$char_traits@D@std@@V?$allocator@D@2@@std@@@std@@PAX@std@@@std@@QAEXQAU?$_List_node@U?$pair@$$CBHV?$basic_string@DU?$char_traits@D@std@@V?$allocator@D@2@@std@@@std@@PAX@2@I@Z ; std::allocator<std::_List_node<std::pair<int const ,std::basic_string<char,std::char_traits<char>,std::allocator<char> > >,void *> >::deallocate
PUBLIC	?allocate@?$allocator@U?$_List_node@U?$pair@$$CBHV?$basic_string@DU?$char_traits@D@std@@V?$allocator@D@2@@std@@@std@@PAX@std@@@std@@QAEPAU?$_List_node@U?$pair@$$CBHV?$basic_string@DU?$char_traits@D@std@@V?$allocator@D@2@@std@@@std@@PAX@2@I@Z ; std::allocator<std::_List_node<std::pair<int const ,std::basic_string<char,std::char_traits<char>,std::allocator<char> > >,void *> >::allocate
PUBLIC	?deallocate@?$_Default_allocator_traits@V?$allocator@U?$_List_node@U?$pair@$$CBHV?$basic_string@DU?$char_traits@D@std@@V?$allocator@D@2@@std@@@std@@PAX@std@@@std@@@std@@SAXAAV?$allocator@U?$_List_node@U?$pair@$$CBHV?$basic_string@DU?$char_traits@D@std@@V?$allocator@D@2@@std@@@std@@PAX@std@@@2@QAU?$_List_node@U?$pair@$$CBHV?$basic_string@DU?$char_traits@D@std@@V?$allocator@D@2@@std@@@std@@PAX@2@I@Z ; std::_Default_allocator_traits<std::allocator<std::_List_node<std::pair<int const ,std::basic_string<char,std::char_traits<char>,std::allocator<char> > >,void *> > >::deallocate
PUBLIC	?max_size@?$_Default_allocator_traits@V?$allocator@U?$_List_node@U?$pair@$$CBHV?$basic_string@DU?$char_traits@D@std@@V?$allocator@D@2@@std@@@std@@PAX@std@@@std@@@std@@SAIABV?$allocator@U?$_List_node@U?$pair@$$CBHV?$basic_string@DU?$char_traits@D@std@@V?$allocator@D@2@@std@@@std@@PAX@std@@@2@@Z ; std::_Default_allocator_traits<std::allocator<std::_List_node<std::pair<int const ,std::basic_string<char,std::char_traits<char>,std::allocator<char> > >,void *> > >::max_size
PUBLIC	??0?$list@U?$pair@$$CBHV?$basic_string@DU?$char_traits@D@std@@V?$allocator@D@2@@std@@@std@@V?$allocator@U?$pair@$$CBHV?$basic_string@DU?$char_traits@D@std@@V?$allocator@D@2@@std@@@std@@@2@@std@@QAE@ABV?$allocator@U?$pair@$$CBHV?$basic_string@DU?$char_traits@D@std@@V?$allocator@D@2@@std@@@std@@@1@@Z ; std::list<std::pair<int const ,std::basic_string<char,std::char_traits<char>,std::allocator<char> > >,std::allocator<std::pair<int const ,std::basic_string<char,std::char_traits<char>,std::allocator<char> > > > >::list<std::pair<int const ,std::basic_string<char,std::char_traits<char>,std::allocator<char> > >,std::allocator<std::pair<int const ,std::basic_string<char,std::char_traits<char>,std::allocator<char> > > > >
PUBLIC	??1?$list@U?$pair@$$CBHV?$basic_string@DU?$char_traits@D@std@@V?$allocator@D@2@@std@@@std@@V?$allocator@U?$pair@$$CBHV?$basic_string@DU?$char_traits@D@std@@V?$allocator@D@2@@std@@@std@@@2@@std@@QAE@XZ ; std::list<std::pair<int const ,std::basic_string<char,std::char_traits<char>,std::allocator<char> > >,std::allocator<std::pair<int const ,std::basic_string<char,std::char_traits<char>,std::allocator<char> > > > >::~list<std::pair<int const ,std::basic_string<char,std::char_traits<char>,std::allocator<char> > >,std::allocator<std::pair<int const ,std::basic_string<char,std::char_traits<char>,std::allocator<char> > > > >
PUBLIC	?_Unchecked_begin@?$list@U?$pair@$$CBHV?$basic_string@DU?$char_traits@D@std@@V?$allocator@D@2@@std@@@std@@V?$allocator@U?$pair@$$CBHV?$basic_string@DU?$char_traits@D@std@@V?$allocator@D@2@@std@@@std@@@2@@std@@QAE?AV?$_List_unchecked_iterator@V?$_List_val@U?$_List_simple_types@U?$pair@$$CBHV?$basic_string@DU?$char_traits@D@std@@V?$allocator@D@2@@std@@@std@@@std@@@std@@@2@XZ ; std::list<std::pair<int const ,std::basic_string<char,std::char_traits<char>,std::allocator<char> > >,std::allocator<std::pair<int const ,std::basic_string<char,std::char_traits<char>,std::allocator<char> > > > >::_Unchecked_begin
PUBLIC	?_Unchecked_end@?$list@U?$pair@$$CBHV?$basic_string@DU?$char_traits@D@std@@V?$allocator@D@2@@std@@@std@@V?$allocator@U?$pair@$$CBHV?$basic_string@DU?$char_traits@D@std@@V?$allocator@D@2@@std@@@std@@@2@@std@@QAE?AV?$_List_unchecked_iterator@V?$_List_val@U?$_List_simple_types@U?$pair@$$CBHV?$basic_string@DU?$char_traits@D@std@@V?$allocator@D@2@@std@@@std@@@std@@@std@@@2@XZ ; std::list<std::pair<int const ,std::basic_string<char,std::char_traits<char>,std::allocator<char> > >,std::allocator<std::pair<int const ,std::basic_string<char,std::char_traits<char>,std::allocator<char> > > > >::_Unchecked_end
PUBLIC	?max_size@?$list@U?$pair@$$CBHV?$basic_string@DU?$char_traits@D@std@@V?$allocator@D@2@@std@@@std@@V?$allocator@U?$pair@$$CBHV?$basic_string@DU?$char_traits@D@std@@V?$allocator@D@2@@std@@@std@@@2@@std@@QBEIXZ ; std::list<std::pair<int const ,std::basic_string<char,std::char_traits<char>,std::allocator<char> > >,std::allocator<std::pair<int const ,std::basic_string<char,std::char_traits<char>,std::allocator<char> > > > >::max_size
PUBLIC	?_Unchecked_erase@?$list@U?$pair@$$CBHV?$basic_string@DU?$char_traits@D@std@@V?$allocator@D@2@@std@@@std@@V?$allocator@U?$pair@$$CBHV?$basic_string@DU?$char_traits@D@std@@V?$allocator@D@2@@std@@@std@@@2@@std@@AAEPAU?$_List_node@U?$pair@$$CBHV?$basic_string@DU?$char_traits@D@std@@V?$allocator@D@2@@std@@@std@@PAX@2@PAU32@QAU32@@Z ; std::list<std::pair<int const ,std::basic_string<char,std::char_traits<char>,std::allocator<char> > >,std::allocator<std::pair<int const ,std::basic_string<char,std::char_traits<char>,std::allocator<char> > > > >::_Unchecked_erase
PUBLIC	?clear@?$list@U?$pair@$$CBHV?$basic_string@DU?$char_traits@D@std@@V?$allocator@D@2@@std@@@std@@V?$allocator@U?$pair@$$CBHV?$basic_string@DU?$char_traits@D@std@@V?$allocator@D@2@@std@@@std@@@2@@std@@QAEXXZ ; std::list<std::pair<int const ,std::basic_string<char,std::char_traits<char>,std::allocator<char> > >,std::allocator<std::pair<int const ,std::basic_string<char,std::char_traits<char>,std::allocator<char> > > > >::clear
PUBLIC	?_Tidy@?$list@U?$pair@$$CBHV?$basic_string@DU?$char_traits@D@std@@V?$allocator@D@2@@std@@@std@@V?$allocator@U?$pair@$$CBHV?$basic_string@DU?$char_traits@D@std@@V?$allocator@D@2@@std@@@std@@@2@@std@@AAEXXZ ; std::list<std::pair<int const ,std::basic_string<char,std::char_traits<char>,std::allocator<char> > >,std::allocator<std::pair<int const ,std::basic_string<char,std::char_traits<char>,std::allocator<char> > > > >::_Tidy
PUBLIC	?_Alloc_sentinel_and_proxy@?$list@U?$pair@$$CBHV?$basic_string@DU?$char_traits@D@std@@V?$allocator@D@2@@std@@@std@@V?$allocator@U?$pair@$$CBHV?$basic_string@DU?$char_traits@D@std@@V?$allocator@D@2@@std@@@std@@@2@@std@@AAEXXZ ; std::list<std::pair<int const ,std::basic_string<char,std::char_traits<char>,std::allocator<char> > >,std::allocator<std::pair<int const ,std::basic_string<char,std::char_traits<char>,std::allocator<char> > > > >::_Alloc_sentinel_and_proxy
PUBLIC	?_Getal@?$list@U?$pair@$$CBHV?$basic_string@DU?$char_traits@D@std@@V?$allocator@D@2@@std@@@std@@V?$allocator@U?$pair@$$CBHV?$basic_string@DU?$char_traits@D@std@@V?$allocator@D@2@@std@@@std@@@2@@std@@AAEAAV?$allocator@U?$_List_node@U?$pair@$$CBHV?$basic_string@DU?$char_traits@D@std@@V?$allocator@D@2@@std@@@std@@PAX@std@@@2@XZ ; std::list<std::pair<int const ,std::basic_string<char,std::char_traits<char>,std::allocator<char> > >,std::allocator<std::pair<int const ,std::basic_string<char,std::char_traits<char>,std::allocator<char> > > > >::_Getal
PUBLIC	?_Getal@?$list@U?$pair@$$CBHV?$basic_string@DU?$char_traits@D@std@@V?$allocator@D@2@@std@@@std@@V?$allocator@U?$pair@$$CBHV?$basic_string@DU?$char_traits@D@std@@V?$allocator@D@2@@std@@@std@@@2@@std@@ABEABV?$allocator@U?$_List_node@U?$pair@$$CBHV?$basic_string@DU?$char_traits@D@std@@V?$allocator@D@2@@std@@@std@@PAX@std@@@2@XZ ; std::list<std::pair<int const ,std::basic_string<char,std::char_traits<char>,std::allocator<char> > >,std::allocator<std::pair<int const ,std::basic_string<char,std::char_traits<char>,std::allocator<char> > > > >::_Getal
PUBLIC	??0?$_List_val@U?$_List_simple_types@U?$pair@$$CBHV?$basic_string@DU?$char_traits@D@std@@V?$allocator@D@2@@std@@@std@@@std@@@std@@QAE@XZ ; std::_List_val<std::_List_simple_types<std::pair<int const ,std::basic_string<char,std::char_traits<char>,std::allocator<char> > > > >::_List_val<std::_List_simple_types<std::pair<int const ,std::basic_string<char,std::char_traits<char>,std::allocator<char> > > > >
PUBLIC	?_Orphan_non_end@?$_List_val@U?$_List_simple_types@U?$pair@$$CBHV?$basic_string@DU?$char_traits@D@std@@V?$allocator@D@2@@std@@@std@@@std@@@std@@QAEXXZ ; std::_List_val<std::_List_simple_types<std::pair<int const ,std::basic_string<char,std::char_traits<char>,std::allocator<char> > > > >::_Orphan_non_end
PUBLIC	?_Unchecked_splice@?$_List_val@U?$_List_simple_types@U?$pair@$$CBHV?$basic_string@DU?$char_traits@D@std@@V?$allocator@D@2@@std@@@std@@@std@@@std@@SAPAU?$_List_node@U?$pair@$$CBHV?$basic_string@DU?$char_traits@D@std@@V?$allocator@D@2@@std@@@std@@PAX@2@QAU32@00@Z ; std::_List_val<std::_List_simple_types<std::pair<int const ,std::basic_string<char,std::char_traits<char>,std::allocator<char> > > > >::_Unchecked_splice
PUBLIC	?_Get_first@?$_Compressed_pair@V?$allocator@U?$_List_node@U?$pair@$$CBHV?$basic_string@DU?$char_traits@D@std@@V?$allocator@D@2@@std@@@std@@PAX@std@@@std@@V?$_List_val@U?$_List_simple_types@U?$pair@$$CBHV?$basic_string@DU?$char_traits@D@std@@V?$allocator@D@2@@std@@@std@@@std@@@2@$00@std@@QAEAAV?$allocator@U?$_List_node@U?$pair@$$CBHV?$basic_string@DU?$char_traits@D@std@@V?$allocator@D@2@@std@@@std@@PAX@std@@@2@XZ ; std::_Compressed_pair<std::allocator<std::_List_node<std::pair<int const ,std::basic_string<char,std::char_traits<char>,std::allocator<char> > >,void *> >,std::_List_val<std::_List_simple_types<std::pair<int const ,std::basic_string<char,std::char_traits<char>,std::allocator<char> > > > >,1>::_Get_first
PUBLIC	?_Get_first@?$_Compressed_pair@V?$allocator@U?$_List_node@U?$pair@$$CBHV?$basic_string@DU?$char_traits@D@std@@V?$allocator@D@2@@std@@@std@@PAX@std@@@std@@V?$_List_val@U?$_List_simple_types@U?$pair@$$CBHV?$basic_string@DU?$char_traits@D@std@@V?$allocator@D@2@@std@@@std@@@std@@@2@$00@std@@QBEABV?$allocator@U?$_List_node@U?$pair@$$CBHV?$basic_string@DU?$char_traits@D@std@@V?$allocator@D@2@@std@@@std@@PAX@std@@@2@XZ ; std::_Compressed_pair<std::allocator<std::_List_node<std::pair<int const ,std::basic_string<char,std::char_traits<char>,std::allocator<char> > >,void *> >,std::_List_val<std::_List_simple_types<std::pair<int const ,std::basic_string<char,std::char_traits<char>,std::allocator<char> > > > >,1>::_Get_first
PUBLIC	??0?$_Hash@V?$_Umap_traits@HV?$basic_string@DU?$char_traits@D@std@@V?$allocator@D@2@@std@@V?$_Uhash_compare@HU?$hash@H@std@@U?$equal_to@H@2@@2@V?$allocator@U?$pair@$$CBHV?$basic_string@DU?$char_traits@D@std@@V?$allocator@D@2@@std@@@std@@@2@$0A@@std@@@std@@IAE@ABV?$_Uhash_compare@HU?$hash@H@std@@U?$equal_to@H@2@@1@ABV?$allocator@U?$pair@$$CBHV?$basic_string@DU?$char_traits@D@std@@V?$allocator@D@2@@std@@@std@@@1@@Z ; std::_Hash<std::_Umap_traits<int,std::basic_string<char,std::char_traits<char>,std::allocator<char> >,std::_Uhash_compare<int,std::hash<int>,std::equal_to<int> >,std::allocator<std::pair<int const ,std::basic_string<char,std::char_traits<char>,std::allocator<char> > > >,0> >::_Hash<std::_Umap_traits<int,std::basic_string<char,std::char_traits<char>,std::allocator<char> >,std::_Uhash_compare<int,std::hash<int>,std::equal_to<int> >,std::allocator<std::pair<int const ,std::basic_string<char,std::char_traits<char>,std::allocator<char> > > >,0> >
PUBLIC	?_Unchecked_begin@?$_Hash@V?$_Umap_traits@HV?$basic_string@DU?$char_traits@D@std@@V?$allocator@D@2@@std@@V?$_Uhash_compare@HU?$hash@H@std@@U?$equal_to@H@2@@2@V?$allocator@U?$pair@$$CBHV?$basic_string@DU?$char_traits@D@std@@V?$allocator@D@2@@std@@@std@@@2@$0A@@std@@@std@@QAE?AV?$_List_unchecked_iterator@V?$_List_val@U?$_List_simple_types@U?$pair@$$CBHV?$basic_string@DU?$char_traits@D@std@@V?$allocator@D@2@@std@@@std@@@std@@@std@@@2@XZ ; std::_Hash<std::_Umap_traits<int,std::basic_string<char,std::char_traits<char>,std::allocator<char> >,std::_Uhash_compare<int,std::hash<int>,std::equal_to<int> >,std::allocator<std::pair<int const ,std::basic_string<char,std::char_traits<char>,std::allocator<char> > > >,0> >::_Unchecked_begin
PUBLIC	?_Unchecked_end@?$_Hash@V?$_Umap_traits@HV?$basic_string@DU?$char_traits@D@std@@V?$allocator@D@2@@std@@V?$_Uhash_compare@HU?$hash@H@std@@U?$equal_to@H@2@@2@V?$allocator@U?$pair@$$CBHV?$basic_string@DU?$char_traits@D@std@@V?$allocator@D@2@@std@@@std@@@2@$0A@@std@@@std@@QAE?AV?$_List_unchecked_iterator@V?$_List_val@U?$_List_simple_types@U?$pair@$$CBHV?$basic_string@DU?$char_traits@D@std@@V?$allocator@D@2@@std@@@std@@@std@@@std@@@2@XZ ; std::_Hash<std::_Umap_traits<int,std::basic_string<char,std::char_traits<char>,std::allocator<char> >,std::_Uhash_compare<int,std::hash<int>,std::equal_to<int> >,std::allocator<std::pair<int const ,std::basic_string<char,std::char_traits<char>,std::allocator<char> > > >,0> >::_Unchecked_end
PUBLIC	?bucket_count@?$_Hash@V?$_Umap_traits@HV?$basic_string@DU?$char_traits@D@std@@V?$allocator@D@2@@std@@V?$_Uhash_compare@HU?$hash@H@std@@U?$equal_to@H@2@@2@V?$allocator@U?$pair@$$CBHV?$basic_string@DU?$char_traits@D@std@@V?$allocator@D@2@@std@@@std@@@2@$0A@@std@@@std@@QBEIXZ ; std::_Hash<std::_Umap_traits<int,std::basic_string<char,std::char_traits<char>,std::allocator<char> >,std::_Uhash_compare<int,std::hash<int>,std::equal_to<int> >,std::allocator<std::pair<int const ,std::basic_string<char,std::char_traits<char>,std::allocator<char> > > >,0> >::bucket_count
PUBLIC	?bucket@?$_Hash@V?$_Umap_traits@HV?$basic_string@DU?$char_traits@D@std@@V?$allocator@D@2@@std@@V?$_Uhash_compare@HU?$hash@H@std@@U?$equal_to@H@2@@2@V?$allocator@U?$pair@$$CBHV?$basic_string@DU?$char_traits@D@std@@V?$allocator@D@2@@std@@@std@@@2@$0A@@std@@@std@@QBEIABH@Z ; std::_Hash<std::_Umap_traits<int,std::basic_string<char,std::char_traits<char>,std::allocator<char> >,std::_Uhash_compare<int,std::hash<int>,std::equal_to<int> >,std::allocator<std::pair<int const ,std::basic_string<char,std::char_traits<char>,std::allocator<char> > > >,0> >::bucket
PUBLIC	?max_load_factor@?$_Hash@V?$_Umap_traits@HV?$basic_string@DU?$char_traits@D@std@@V?$allocator@D@2@@std@@V?$_Uhash_compare@HU?$hash@H@std@@U?$equal_to@H@2@@2@V?$allocator@U?$pair@$$CBHV?$basic_string@DU?$char_traits@D@std@@V?$allocator@D@2@@std@@@std@@@2@$0A@@std@@@std@@QBEMXZ ; std::_Hash<std::_Umap_traits<int,std::basic_string<char,std::char_traits<char>,std::allocator<char> >,std::_Uhash_compare<int,std::hash<int>,std::equal_to<int> >,std::allocator<std::pair<int const ,std::basic_string<char,std::char_traits<char>,std::allocator<char> > > >,0> >::max_load_factor
PUBLIC	?_Unchecked_erase@?$_Hash@V?$_Umap_traits@HV?$basic_string@DU?$char_traits@D@std@@V?$allocator@D@2@@std@@V?$_Uhash_compare@HU?$hash@H@std@@U?$equal_to@H@2@@2@V?$allocator@U?$pair@$$CBHV?$basic_string@DU?$char_traits@D@std@@V?$allocator@D@2@@std@@@std@@@2@$0A@@std@@@std@@AAEPAU?$_List_node@U?$pair@$$CBHV?$basic_string@DU?$char_traits@D@std@@V?$allocator@D@2@@std@@@std@@PAX@2@PAU32@QAU32@@Z ; std::_Hash<std::_Umap_traits<int,std::basic_string<char,std::char_traits<char>,std::allocator<char> >,std::_Uhash_compare<int,std::hash<int>,std::equal_to<int> >,std::allocator<std::pair<int const ,std::basic_string<char,std::char_traits<char>,std::allocator<char> > > >,0> >::_Unchecked_erase
PUBLIC	?clear@?$_Hash@V?$_Umap_traits@HV?$basic_string@DU?$char_traits@D@std@@V?$allocator@D@2@@std@@V?$_Uhash_compare@HU?$hash@H@std@@U?$equal_to@H@2@@2@V?$allocator@U?$pair@$$CBHV?$basic_string@DU?$char_traits@D@std@@V?$allocator@D@2@@std@@@std@@@2@$0A@@std@@@std@@QAEXXZ ; std::_Hash<std::_Umap_traits<int,std::basic_string<char,std::char_traits<char>,std::allocator<char> >,std::_Uhash_compare<int,std::hash<int>,std::equal_to<int> >,std::allocator<std::pair<int const ,std::basic_string<char,std::char_traits<char>,std::allocator<char> > > >,0> >::clear
PUBLIC	?_Insert_new_node_before@?$_Hash@V?$_Umap_traits@HV?$basic_string@DU?$char_traits@D@std@@V?$allocator@D@2@@std@@V?$_Uhash_compare@HU?$hash@H@std@@U?$equal_to@H@2@@2@V?$allocator@U?$pair@$$CBHV?$basic_string@DU?$char_traits@D@std@@V?$allocator@D@2@@std@@@std@@@2@$0A@@std@@@std@@IAEPAU?$_List_node@U?$pair@$$CBHV?$basic_string@DU?$char_traits@D@std@@V?$allocator@D@2@@std@@@std@@PAX@2@IQAU32@0@Z ; std::_Hash<std::_Umap_traits<int,std::basic_string<char,std::char_traits<char>,std::allocator<char> >,std::_Uhash_compare<int,std::hash<int>,std::equal_to<int> >,std::allocator<std::pair<int const ,std::basic_string<char,std::char_traits<char>,std::allocator<char> > > >,0> >::_Insert_new_node_before
PUBLIC	?_Check_max_size@?$_Hash@V?$_Umap_traits@HV?$basic_string@DU?$char_traits@D@std@@V?$allocator@D@2@@std@@V?$_Uhash_compare@HU?$hash@H@std@@U?$equal_to@H@2@@2@V?$allocator@U?$pair@$$CBHV?$basic_string@DU?$char_traits@D@std@@V?$allocator@D@2@@std@@@std@@@2@$0A@@std@@@std@@IBEXXZ ; std::_Hash<std::_Umap_traits<int,std::basic_string<char,std::char_traits<char>,std::allocator<char> >,std::_Uhash_compare<int,std::hash<int>,std::equal_to<int> >,std::allocator<std::pair<int const ,std::basic_string<char,std::char_traits<char>,std::allocator<char> > > >,0> >::_Check_max_size
PUBLIC	?_Check_rehash_required_1@?$_Hash@V?$_Umap_traits@HV?$basic_string@DU?$char_traits@D@std@@V?$allocator@D@2@@std@@V?$_Uhash_compare@HU?$hash@H@std@@U?$equal_to@H@2@@2@V?$allocator@U?$pair@$$CBHV?$basic_string@DU?$char_traits@D@std@@V?$allocator@D@2@@std@@@std@@@2@$0A@@std@@@std@@IBE_NXZ ; std::_Hash<std::_Umap_traits<int,std::basic_string<char,std::char_traits<char>,std::allocator<char> >,std::_Uhash_compare<int,std::hash<int>,std::equal_to<int> >,std::allocator<std::pair<int const ,std::basic_string<char,std::char_traits<char>,std::allocator<char> > > >,0> >::_Check_rehash_required_1
PUBLIC	?_Rehash_for_1@?$_Hash@V?$_Umap_traits@HV?$basic_string@DU?$char_traits@D@std@@V?$allocator@D@2@@std@@V?$_Uhash_compare@HU?$hash@H@std@@U?$equal_to@H@2@@2@V?$allocator@U?$pair@$$CBHV?$basic_string@DU?$char_traits@D@std@@V?$allocator@D@2@@std@@@std@@@2@$0A@@std@@@std@@IAEXXZ ; std::_Hash<std::_Umap_traits<int,std::basic_string<char,std::char_traits<char>,std::allocator<char> >,std::_Uhash_compare<int,std::hash<int>,std::equal_to<int> >,std::allocator<std::pair<int const ,std::basic_string<char,std::char_traits<char>,std::allocator<char> > > >,0> >::_Rehash_for_1
PUBLIC	?_Min_load_factor_buckets@?$_Hash@V?$_Umap_traits@HV?$basic_string@DU?$char_traits@D@std@@V?$allocator@D@2@@std@@V?$_Uhash_compare@HU?$hash@H@std@@U?$equal_to@H@2@@2@V?$allocator@U?$pair@$$CBHV?$basic_string@DU?$char_traits@D@std@@V?$allocator@D@2@@std@@@std@@@2@$0A@@std@@@std@@IBEII@Z ; std::_Hash<std::_Umap_traits<int,std::basic_string<char,std::char_traits<char>,std::allocator<char> >,std::_Uhash_compare<int,std::hash<int>,std::equal_to<int> >,std::allocator<std::pair<int const ,std::basic_string<char,std::char_traits<char>,std::allocator<char> > > >,0> >::_Min_load_factor_buckets
PUBLIC	?_Desired_grow_bucket_count@?$_Hash@V?$_Umap_traits@HV?$basic_string@DU?$char_traits@D@std@@V?$allocator@D@2@@std@@V?$_Uhash_compare@HU?$hash@H@std@@U?$equal_to@H@2@@2@V?$allocator@U?$pair@$$CBHV?$basic_string@DU?$char_traits@D@std@@V?$allocator@D@2@@std@@@std@@@2@$0A@@std@@@std@@IBEII@Z ; std::_Hash<std::_Umap_traits<int,std::basic_string<char,std::char_traits<char>,std::allocator<char> >,std::_Uhash_compare<int,std::hash<int>,std::equal_to<int> >,std::allocator<std::pair<int const ,std::basic_string<char,std::char_traits<char>,std::allocator<char> > > >,0> >::_Desired_grow_bucket_count
PUBLIC	?_Forced_rehash@?$_Hash@V?$_Umap_traits@HV?$basic_string@DU?$char_traits@D@std@@V?$allocator@D@2@@std@@V?$_Uhash_compare@HU?$hash@H@std@@U?$equal_to@H@2@@2@V?$allocator@U?$pair@$$CBHV?$basic_string@DU?$char_traits@D@std@@V?$allocator@D@2@@std@@@std@@@2@$0A@@std@@@std@@IAEXI@Z ; std::_Hash<std::_Umap_traits<int,std::basic_string<char,std::char_traits<char>,std::allocator<char> >,std::_Uhash_compare<int,std::hash<int>,std::equal_to<int> >,std::allocator<std::pair<int const ,std::basic_string<char,std::char_traits<char>,std::allocator<char> > > >,0> >::_Forced_rehash
PUBLIC	?_Max_bucket_size@?$_Hash@V?$_Umap_traits@HV?$basic_string@DU?$char_traits@D@std@@V?$allocator@D@2@@std@@V?$_Uhash_compare@HU?$hash@H@std@@U?$equal_to@H@2@@2@V?$allocator@U?$pair@$$CBHV?$basic_string@DU?$char_traits@D@std@@V?$allocator@D@2@@std@@@std@@@2@$0A@@std@@@std@@IAEAAMXZ ; std::_Hash<std::_Umap_traits<int,std::basic_string<char,std::char_traits<char>,std::allocator<char> >,std::_Uhash_compare<int,std::hash<int>,std::equal_to<int> >,std::allocator<std::pair<int const ,std::basic_string<char,std::char_traits<char>,std::allocator<char> > > >,0> >::_Max_bucket_size
PUBLIC	?_Max_bucket_size@?$_Hash@V?$_Umap_traits@HV?$basic_string@DU?$char_traits@D@std@@V?$allocator@D@2@@std@@V?$_Uhash_compare@HU?$hash@H@std@@U?$equal_to@H@2@@2@V?$allocator@U?$pair@$$CBHV?$basic_string@DU?$char_traits@D@std@@V?$allocator@D@2@@std@@@std@@@2@$0A@@std@@@std@@IBEABMXZ ; std::_Hash<std::_Umap_traits<int,std::basic_string<char,std::char_traits<char>,std::allocator<char> >,std::_Uhash_compare<int,std::hash<int>,std::equal_to<int> >,std::allocator<std::pair<int const ,std::basic_string<char,std::char_traits<char>,std::allocator<char> > > >,0> >::_Max_bucket_size
PUBLIC	?deallocate@?$allocator@V?$_List_unchecked_iterator@V?$_List_val@U?$_List_simple_types@U?$pair@$$CBHV?$basic_string@DU?$char_traits@D@std@@V?$allocator@D@2@@std@@@std@@@std@@@std@@@std@@@std@@QAEXQAV?$_List_unchecked_iterator@V?$_List_val@U?$_List_simple_types@U?$pair@$$CBHV?$basic_string@DU?$char_traits@D@std@@V?$allocator@D@2@@std@@@std@@@std@@@std@@@2@I@Z ; std::allocator<std::_List_unchecked_iterator<std::_List_val<std::_List_simple_types<std::pair<int const ,std::basic_string<char,std::char_traits<char>,std::allocator<char> > > > > > >::deallocate
PUBLIC	?allocate@?$allocator@V?$_List_unchecked_iterator@V?$_List_val@U?$_List_simple_types@U?$pair@$$CBHV?$basic_string@DU?$char_traits@D@std@@V?$allocator@D@2@@std@@@std@@@std@@@std@@@std@@@std@@QAEPAV?$_List_unchecked_iterator@V?$_List_val@U?$_List_simple_types@U?$pair@$$CBHV?$basic_string@DU?$char_traits@D@std@@V?$allocator@D@2@@std@@@std@@@std@@@std@@@2@I@Z ; std::allocator<std::_List_unchecked_iterator<std::_List_val<std::_List_simple_types<std::pair<int const ,std::basic_string<char,std::char_traits<char>,std::allocator<char> > > > > > >::allocate
PUBLIC	?max_size@?$_Default_allocator_traits@V?$allocator@V?$_List_unchecked_iterator@V?$_List_val@U?$_List_simple_types@U?$pair@$$CBHV?$basic_string@DU?$char_traits@D@std@@V?$allocator@D@2@@std@@@std@@@std@@@std@@@std@@@std@@@std@@SAIABV?$allocator@V?$_List_unchecked_iterator@V?$_List_val@U?$_List_simple_types@U?$pair@$$CBHV?$basic_string@DU?$char_traits@D@std@@V?$allocator@D@2@@std@@@std@@@std@@@std@@@std@@@2@@Z ; std::_Default_allocator_traits<std::allocator<std::_List_unchecked_iterator<std::_List_val<std::_List_simple_types<std::pair<int const ,std::basic_string<char,std::char_traits<char>,std::allocator<char> > > > > > > >::max_size
PUBLIC	?size@?$_Hash_vec@V?$allocator@V?$_List_unchecked_iterator@V?$_List_val@U?$_List_simple_types@U?$pair@$$CBHV?$basic_string@DU?$char_traits@D@std@@V?$allocator@D@2@@std@@@std@@@std@@@std@@@std@@@std@@@std@@QBEIXZ ; std::_Hash_vec<std::allocator<std::_List_unchecked_iterator<std::_List_val<std::_List_simple_types<std::pair<int const ,std::basic_string<char,std::char_traits<char>,std::allocator<char> > > > > > > >::size
PUBLIC	?max_size@?$_Hash_vec@V?$allocator@V?$_List_unchecked_iterator@V?$_List_val@U?$_List_simple_types@U?$pair@$$CBHV?$basic_string@DU?$char_traits@D@std@@V?$allocator@D@2@@std@@@std@@@std@@@std@@@std@@@std@@@std@@QBEIXZ ; std::_Hash_vec<std::allocator<std::_List_unchecked_iterator<std::_List_val<std::_List_simple_types<std::pair<int const ,std::basic_string<char,std::char_traits<char>,std::allocator<char> > > > > > > >::max_size
PUBLIC	?_Assign_grow@?$_Hash_vec@V?$allocator@V?$_List_unchecked_iterator@V?$_List_val@U?$_List_simple_types@U?$pair@$$CBHV?$basic_string@DU?$char_traits@D@std@@V?$allocator@D@2@@std@@@std@@@std@@@std@@@std@@@std@@@std@@QAEXIV?$_List_unchecked_iterator@V?$_List_val@U?$_List_simple_types@U?$pair@$$CBHV?$basic_string@DU?$char_traits@D@std@@V?$allocator@D@2@@std@@@std@@@std@@@std@@@2@@Z ; std::_Hash_vec<std::allocator<std::_List_unchecked_iterator<std::_List_val<std::_List_simple_types<std::pair<int const ,std::basic_string<char,std::char_traits<char>,std::allocator<char> > > > > > > >::_Assign_grow
PUBLIC	?_Tidy@?$_Hash_vec@V?$allocator@V?$_List_unchecked_iterator@V?$_List_val@U?$_List_simple_types@U?$pair@$$CBHV?$basic_string@DU?$char_traits@D@std@@V?$allocator@D@2@@std@@@std@@@std@@@std@@@std@@@std@@@std@@QAEXXZ ; std::_Hash_vec<std::allocator<std::_List_unchecked_iterator<std::_List_val<std::_List_simple_types<std::pair<int const ,std::basic_string<char,std::char_traits<char>,std::allocator<char> > > > > > > >::_Tidy
PUBLIC	??1?$_Hash_vec@V?$allocator@V?$_List_unchecked_iterator@V?$_List_val@U?$_List_simple_types@U?$pair@$$CBHV?$basic_string@DU?$char_traits@D@std@@V?$allocator@D@2@@std@@@std@@@std@@@std@@@std@@@std@@@std@@QAE@XZ ; std::_Hash_vec<std::allocator<std::_List_unchecked_iterator<std::_List_val<std::_List_simple_types<std::pair<int const ,std::basic_string<char,std::char_traits<char>,std::allocator<char> > > > > > > >::~_Hash_vec<std::allocator<std::_List_unchecked_iterator<std::_List_val<std::_List_simple_types<std::pair<int const ,std::basic_string<char,std::char_traits<char>,std::allocator<char> > > > > > > >
PUBLIC	??0?$_Vector_val@U?$_Simple_types@V?$_List_unchecked_iterator@V?$_List_val@U?$_List_simple_types@U?$pair@$$CBHV?$basic_string@DU?$char_traits@D@std@@V?$allocator@D@2@@std@@@std@@@std@@@std@@@std@@@std@@@std@@QAE@XZ ; std::_Vector_val<std::_Simple_types<std::_List_unchecked_iterator<std::_List_val<std::_List_simple_types<std::pair<int const ,std::basic_string<char,std::char_traits<char>,std::allocator<char> > > > > > > >::_Vector_val<std::_Simple_types<std::_List_unchecked_iterator<std::_List_val<std::_List_simple_types<std::pair<int const ,std::basic_string<char,std::char_traits<char>,std::allocator<char> > > > > > > >
PUBLIC	?_Get_first@?$_Compressed_pair@V?$allocator@V?$_List_unchecked_iterator@V?$_List_val@U?$_List_simple_types@U?$pair@$$CBHV?$basic_string@DU?$char_traits@D@std@@V?$allocator@D@2@@std@@@std@@@std@@@std@@@std@@@std@@V?$_Vector_val@U?$_Simple_types@V?$_List_unchecked_iterator@V?$_List_val@U?$_List_simple_types@U?$pair@$$CBHV?$basic_string@DU?$char_traits@D@std@@V?$allocator@D@2@@std@@@std@@@std@@@std@@@std@@@std@@@2@$00@std@@QAEAAV?$allocator@V?$_List_unchecked_iterator@V?$_List_val@U?$_List_simple_types@U?$pair@$$CBHV?$basic_string@DU?$char_traits@D@std@@V?$allocator@D@2@@std@@@std@@@std@@@std@@@std@@@2@XZ ; std::_Compressed_pair<std::allocator<std::_List_unchecked_iterator<std::_List_val<std::_List_simple_types<std::pair<int const ,std::basic_string<char,std::char_traits<char>,std::allocator<char> > > > > > >,std::_Vector_val<std::_Simple_types<std::_List_unchecked_iterator<std::_List_val<std::_List_simple_types<std::pair<int const ,std::basic_string<char,std::char_traits<char>,std::allocator<char> > > > > > > >,1>::_Get_first
PUBLIC	?_Get_first@?$_Compressed_pair@V?$allocator@V?$_List_unchecked_iterator@V?$_List_val@U?$_List_simple_types@U?$pair@$$CBHV?$basic_string@DU?$char_traits@D@std@@V?$allocator@D@2@@std@@@std@@@std@@@std@@@std@@@std@@V?$_Vector_val@U?$_Simple_types@V?$_List_unchecked_iterator@V?$_List_val@U?$_List_simple_types@U?$pair@$$CBHV?$basic_string@DU?$char_traits@D@std@@V?$allocator@D@2@@std@@@std@@@std@@@std@@@std@@@std@@@2@$00@std@@QBEABV?$allocator@V?$_List_unchecked_iterator@V?$_List_val@U?$_List_simple_types@U?$pair@$$CBHV?$basic_string@DU?$char_traits@D@std@@V?$allocator@D@2@@std@@@std@@@std@@@std@@@std@@@2@XZ ; std::_Compressed_pair<std::allocator<std::_List_unchecked_iterator<std::_List_val<std::_List_simple_types<std::pair<int const ,std::basic_string<char,std::char_traits<char>,std::allocator<char> > > > > > >,std::_Vector_val<std::_Simple_types<std::_List_unchecked_iterator<std::_List_val<std::_List_simple_types<std::pair<int const ,std::basic_string<char,std::char_traits<char>,std::allocator<char> > > > > > > >,1>::_Get_first
PUBLIC	??1?$_Hash@V?$_Umap_traits@HV?$basic_string@DU?$char_traits@D@std@@V?$allocator@D@2@@std@@V?$_Uhash_compare@HU?$hash@H@std@@U?$equal_to@H@2@@2@V?$allocator@U?$pair@$$CBHV?$basic_string@DU?$char_traits@D@std@@V?$allocator@D@2@@std@@@std@@@2@$0A@@std@@@std@@QAE@XZ ; std::_Hash<std::_Umap_traits<int,std::basic_string<char,std::char_traits<char>,std::allocator<char> >,std::_Uhash_compare<int,std::hash<int>,std::equal_to<int> >,std::allocator<std::pair<int const ,std::basic_string<char,std::char_traits<char>,std::allocator<char> > > >,0> >::~_Hash<std::_Umap_traits<int,std::basic_string<char,std::char_traits<char>,std::allocator<char> >,std::_Uhash_compare<int,std::hash<int>,std::equal_to<int> >,std::allocator<std::pair<int const ,std::basic_string<char,std::char_traits<char>,std::allocator<char> > > >,0> >
PUBLIC	??0?$unordered_map@HV?$basic_string@DU?$char_traits@D@std@@V?$allocator@D@2@@std@@U?$hash@H@2@U?$equal_to@H@2@V?$allocator@U?$pair@$$CBHV?$basic_string@DU?$char_traits@D@std@@V?$allocator@D@2@@std@@@std@@@2@@std@@QAE@XZ ; std::unordered_map<int,std::basic_string<char,std::char_traits<char>,std::allocator<char> >,std::hash<int>,std::equal_to<int>,std::allocator<std::pair<int const ,std::basic_string<char,std::char_traits<char>,std::allocator<char> > > > >::unordered_map<int,std::basic_string<char,std::char_traits<char>,std::allocator<char> >,std::hash<int>,std::equal_to<int>,std::allocator<std::pair<int const ,std::basic_string<char,std::char_traits<char>,std::allocator<char> > > > >
PUBLIC	??A?$unordered_map@HV?$basic_string@DU?$char_traits@D@std@@V?$allocator@D@2@@std@@U?$hash@H@2@U?$equal_to@H@2@V?$allocator@U?$pair@$$CBHV?$basic_string@DU?$char_traits@D@std@@V?$allocator@D@2@@std@@@std@@@2@@std@@QAEAAV?$basic_string@DU?$char_traits@D@std@@V?$allocator@D@2@@1@ABH@Z ; std::unordered_map<int,std::basic_string<char,std::char_traits<char>,std::allocator<char> >,std::hash<int>,std::equal_to<int>,std::allocator<std::pair<int const ,std::basic_string<char,std::char_traits<char>,std::allocator<char> > > > >::operator[]
PUBLIC	??1?$unordered_map@HV?$basic_string@DU?$char_traits@D@std@@V?$allocator@D@2@@std@@U?$hash@H@2@U?$equal_to@H@2@V?$allocator@U?$pair@$$CBHV?$basic_string@DU?$char_traits@D@std@@V?$allocator@D@2@@std@@@std@@@2@@std@@QAE@XZ ; std::unordered_map<int,std::basic_string<char,std::char_traits<char>,std::allocator<char> >,std::hash<int>,std::equal_to<int>,std::allocator<std::pair<int const ,std::basic_string<char,std::char_traits<char>,std::allocator<char> > > > >::~unordered_map<int,std::basic_string<char,std::char_traits<char>,std::allocator<char> >,std::hash<int>,std::equal_to<int>,std::allocator<std::pair<int const ,std::basic_string<char,std::char_traits<char>,std::allocator<char> > > > >
PUBLIC	?__autoclassinit2@?$unordered_map@HV?$basic_string@DU?$char_traits@D@std@@V?$allocator@D@2@@std@@U?$hash@H@2@U?$equal_to@H@2@V?$allocator@U?$pair@$$CBHV?$basic_string@DU?$char_traits@D@std@@V?$allocator@D@2@@std@@@std@@@2@@std@@QAEXI@Z ; std::unordered_map<int,std::basic_string<char,std::char_traits<char>,std::allocator<char> >,std::hash<int>,std::equal_to<int>,std::allocator<std::pair<int const ,std::basic_string<char,std::char_traits<char>,std::allocator<char> > > > >::__autoclassinit2
PUBLIC	??0?$_Uhash_compare@V?$basic_string@DU?$char_traits@D@std@@V?$allocator@D@2@@std@@U?$hash@V?$basic_string@DU?$char_traits@D@std@@V?$allocator@D@2@@std@@@2@U?$equal_to@V?$basic_string@DU?$char_traits@D@std@@V?$allocator@D@2@@std@@@2@@std@@QAE@XZ ; std::_Uhash_compare<std::basic_string<char,std::char_traits<char>,std::allocator<char> >,std::hash<std::basic_string<char,std::char_traits<char>,std::allocator<char> > >,std::equal_to<std::basic_string<char,std::char_traits<char>,std::allocator<char> > > >::_Uhash_compare<std::basic_string<char,std::char_traits<char>,std::allocator<char> >,std::hash<std::basic_string<char,std::char_traits<char>,std::allocator<char> > >,std::equal_to<std::basic_string<char,std::char_traits<char>,std::allocator<char> > > >
PUBLIC	?_Get_max_bucket_size@?$_Uhash_compare@V?$basic_string@DU?$char_traits@D@std@@V?$allocator@D@2@@std@@U?$hash@V?$basic_string@DU?$char_traits@D@std@@V?$allocator@D@2@@std@@@2@U?$equal_to@V?$basic_string@DU?$char_traits@D@std@@V?$allocator@D@2@@std@@@2@@std@@QAEAAMXZ ; std::_Uhash_compare<std::basic_string<char,std::char_traits<char>,std::allocator<char> >,std::hash<std::basic_string<char,std::char_traits<char>,std::allocator<char> > >,std::equal_to<std::basic_string<char,std::char_traits<char>,std::allocator<char> > > >::_Get_max_bucket_size
PUBLIC	?_Get_max_bucket_size@?$_Uhash_compare@V?$basic_string@DU?$char_traits@D@std@@V?$allocator@D@2@@std@@U?$hash@V?$basic_string@DU?$char_traits@D@std@@V?$allocator@D@2@@std@@@2@U?$equal_to@V?$basic_string@DU?$char_traits@D@std@@V?$allocator@D@2@@std@@@2@@std@@QBEABMXZ ; std::_Uhash_compare<std::basic_string<char,std::char_traits<char>,std::allocator<char> >,std::hash<std::basic_string<char,std::char_traits<char>,std::allocator<char> > >,std::equal_to<std::basic_string<char,std::char_traits<char>,std::allocator<char> > > >::_Get_max_bucket_size
PUBLIC	??R?$equal_to@V?$basic_string@DU?$char_traits@D@std@@V?$allocator@D@2@@std@@@std@@QBE_NABV?$basic_string@DU?$char_traits@D@std@@V?$allocator@D@2@@1@0@Z ; std::equal_to<std::basic_string<char,std::char_traits<char>,std::allocator<char> > >::operator()
PUBLIC	??R?$hash@V?$basic_string@DU?$char_traits@D@std@@V?$allocator@D@2@@std@@@std@@QBEIABV?$basic_string@DU?$char_traits@D@std@@V?$allocator@D@2@@1@@Z ; std::hash<std::basic_string<char,std::char_traits<char>,std::allocator<char> > >::operator()
PUBLIC	?_Get_first@?$_Compressed_pair@U?$equal_to@V?$basic_string@DU?$char_traits@D@std@@V?$allocator@D@2@@std@@@std@@M$00@std@@QBEABU?$equal_to@V?$basic_string@DU?$char_traits@D@std@@V?$allocator@D@2@@std@@@2@XZ ; std::_Compressed_pair<std::equal_to<std::basic_string<char,std::char_traits<char>,std::allocator<char> > >,float,1>::_Get_first
PUBLIC	?_Get_first@?$_Compressed_pair@U?$hash@V?$basic_string@DU?$char_traits@D@std@@V?$allocator@D@2@@std@@@std@@V?$_Compressed_pair@U?$equal_to@V?$basic_string@DU?$char_traits@D@std@@V?$allocator@D@2@@std@@@std@@M$00@2@$00@std@@QBEABU?$hash@V?$basic_string@DU?$char_traits@D@std@@V?$allocator@D@2@@std@@@2@XZ ; std::_Compressed_pair<std::hash<std::basic_string<char,std::char_traits<char>,std::allocator<char> > >,std::_Compressed_pair<std::equal_to<std::basic_string<char,std::char_traits<char>,std::allocator<char> > >,float,1>,1>::_Get_first
PUBLIC	??0?$_Umap_traits@V?$basic_string@DU?$char_traits@D@std@@V?$allocator@D@2@@std@@HV?$_Uhash_compare@V?$basic_string@DU?$char_traits@D@std@@V?$allocator@D@2@@std@@U?$hash@V?$basic_string@DU?$char_traits@D@std@@V?$allocator@D@2@@std@@@2@U?$equal_to@V?$basic_string@DU?$char_traits@D@std@@V?$allocator@D@2@@std@@@2@@2@V?$allocator@U?$pair@$$CBV?$basic_string@DU?$char_traits@D@std@@V?$allocator@D@2@@std@@H@std@@@2@$0A@@std@@QAE@ABV?$_Uhash_compare@V?$basic_string@DU?$char_traits@D@std@@V?$allocator@D@2@@std@@U?$hash@V?$basic_string@DU?$char_traits@D@std@@V?$allocator@D@2@@std@@@2@U?$equal_to@V?$basic_string@DU?$char_traits@D@std@@V?$allocator@D@2@@std@@@2@@1@@Z ; std::_Umap_traits<std::basic_string<char,std::char_traits<char>,std::allocator<char> >,int,std::_Uhash_compare<std::basic_string<char,std::char_traits<char>,std::allocator<char> >,std::hash<std::basic_string<char,std::char_traits<char>,std::allocator<char> > >,std::equal_to<std::basic_string<char,std::char_traits<char>,std::allocator<char> > > >,std::allocator<std::pair<std::basic_string<char,std::char_traits<char>,std::allocator<char> > const ,int> >,0>::_Umap_traits<std::basic_string<char,std::char_traits<char>,std::allocator<char> >,int,std::_Uhash_compare<std::basic_string<char,std::char_traits<char>,std::allocator<char> >,std::hash<std::basic_string<char,std::char_traits<char>,std::allocator<char> > >,std::equal_to<std::basic_string<char,std::char_traits<char>,std::allocator<char> > > >,std::allocator<std::pair<std::basic_string<char,std::char_traits<char>,std::allocator<char> > const ,int> >,0>
PUBLIC	??0?$allocator@U?$pair@$$CBV?$basic_string@DU?$char_traits@D@std@@V?$allocator@D@2@@std@@H@std@@@std@@QAE@XZ ; std::allocator<std::pair<std::basic_string<char,std::char_traits<char>,std::allocator<char> > const ,int> >::allocator<std::pair<std::basic_string<char,std::char_traits<char>,std::allocator<char> > const ,int> >
PUBLIC	?deallocate@?$allocator@U?$_List_node@U?$pair@$$CBV?$basic_string@DU?$char_traits@D@std@@V?$allocator@D@2@@std@@H@std@@PAX@std@@@std@@QAEXQAU?$_List_node@U?$pair@$$CBV?$basic_string@DU?$char_traits@D@std@@V?$allocator@D@2@@std@@H@std@@PAX@2@I@Z ; std::allocator<std::_List_node<std::pair<std::basic_string<char,std::char_traits<char>,std::allocator<char> > const ,int>,void *> >::deallocate
PUBLIC	?allocate@?$allocator@U?$_List_node@U?$pair@$$CBV?$basic_string@DU?$char_traits@D@std@@V?$allocator@D@2@@std@@H@std@@PAX@std@@@std@@QAEPAU?$_List_node@U?$pair@$$CBV?$basic_string@DU?$char_traits@D@std@@V?$allocator@D@2@@std@@H@std@@PAX@2@I@Z ; std::allocator<std::_List_node<std::pair<std::basic_string<char,std::char_traits<char>,std::allocator<char> > const ,int>,void *> >::allocate
PUBLIC	?deallocate@?$_Default_allocator_traits@V?$allocator@U?$_List_node@U?$pair@$$CBV?$basic_string@DU?$char_traits@D@std@@V?$allocator@D@2@@std@@H@std@@PAX@std@@@std@@@std@@SAXAAV?$allocator@U?$_List_node@U?$pair@$$CBV?$basic_string@DU?$char_traits@D@std@@V?$allocator@D@2@@std@@H@std@@PAX@std@@@2@QAU?$_List_node@U?$pair@$$CBV?$basic_string@DU?$char_traits@D@std@@V?$allocator@D@2@@std@@H@std@@PAX@2@I@Z ; std::_Default_allocator_traits<std::allocator<std::_List_node<std::pair<std::basic_string<char,std::char_traits<char>,std::allocator<char> > const ,int>,void *> > >::deallocate
PUBLIC	?max_size@?$_Default_allocator_traits@V?$allocator@U?$_List_node@U?$pair@$$CBV?$basic_string@DU?$char_traits@D@std@@V?$allocator@D@2@@std@@H@std@@PAX@std@@@std@@@std@@SAIABV?$allocator@U?$_List_node@U?$pair@$$CBV?$basic_string@DU?$char_traits@D@std@@V?$allocator@D@2@@std@@H@std@@PAX@std@@@2@@Z ; std::_Default_allocator_traits<std::allocator<std::_List_node<std::pair<std::basic_string<char,std::char_traits<char>,std::allocator<char> > const ,int>,void *> > >::max_size
PUBLIC	??0?$list@U?$pair@$$CBV?$basic_string@DU?$char_traits@D@std@@V?$allocator@D@2@@std@@H@std@@V?$allocator@U?$pair@$$CBV?$basic_string@DU?$char_traits@D@std@@V?$allocator@D@2@@std@@H@std@@@2@@std@@QAE@ABV?$allocator@U?$pair@$$CBV?$basic_string@DU?$char_traits@D@std@@V?$allocator@D@2@@std@@H@std@@@1@@Z ; std::list<std::pair<std::basic_string<char,std::char_traits<char>,std::allocator<char> > const ,int>,std::allocator<std::pair<std::basic_string<char,std::char_traits<char>,std::allocator<char> > const ,int> > >::list<std::pair<std::basic_string<char,std::char_traits<char>,std::allocator<char> > const ,int>,std::allocator<std::pair<std::basic_string<char,std::char_traits<char>,std::allocator<char> > const ,int> > >
PUBLIC	??1?$list@U?$pair@$$CBV?$basic_string@DU?$char_traits@D@std@@V?$allocator@D@2@@std@@H@std@@V?$allocator@U?$pair@$$CBV?$basic_string@DU?$char_traits@D@std@@V?$allocator@D@2@@std@@H@std@@@2@@std@@QAE@XZ ; std::list<std::pair<std::basic_string<char,std::char_traits<char>,std::allocator<char> > const ,int>,std::allocator<std::pair<std::basic_string<char,std::char_traits<char>,std::allocator<char> > const ,int> > >::~list<std::pair<std::basic_string<char,std::char_traits<char>,std::allocator<char> > const ,int>,std::allocator<std::pair<std::basic_string<char,std::char_traits<char>,std::allocator<char> > const ,int> > >
PUBLIC	?end@?$list@U?$pair@$$CBV?$basic_string@DU?$char_traits@D@std@@V?$allocator@D@2@@std@@H@std@@V?$allocator@U?$pair@$$CBV?$basic_string@DU?$char_traits@D@std@@V?$allocator@D@2@@std@@H@std@@@2@@std@@QAE?AV?$_List_iterator@V?$_List_val@U?$_List_simple_types@U?$pair@$$CBV?$basic_string@DU?$char_traits@D@std@@V?$allocator@D@2@@std@@H@std@@@std@@@std@@@2@XZ ; std::list<std::pair<std::basic_string<char,std::char_traits<char>,std::allocator<char> > const ,int>,std::allocator<std::pair<std::basic_string<char,std::char_traits<char>,std::allocator<char> > const ,int> > >::end
PUBLIC	?_Unchecked_begin@?$list@U?$pair@$$CBV?$basic_string@DU?$char_traits@D@std@@V?$allocator@D@2@@std@@H@std@@V?$allocator@U?$pair@$$CBV?$basic_string@DU?$char_traits@D@std@@V?$allocator@D@2@@std@@H@std@@@2@@std@@QAE?AV?$_List_unchecked_iterator@V?$_List_val@U?$_List_simple_types@U?$pair@$$CBV?$basic_string@DU?$char_traits@D@std@@V?$allocator@D@2@@std@@H@std@@@std@@@std@@@2@XZ ; std::list<std::pair<std::basic_string<char,std::char_traits<char>,std::allocator<char> > const ,int>,std::allocator<std::pair<std::basic_string<char,std::char_traits<char>,std::allocator<char> > const ,int> > >::_Unchecked_begin
PUBLIC	?_Unchecked_end@?$list@U?$pair@$$CBV?$basic_string@DU?$char_traits@D@std@@V?$allocator@D@2@@std@@H@std@@V?$allocator@U?$pair@$$CBV?$basic_string@DU?$char_traits@D@std@@V?$allocator@D@2@@std@@H@std@@@2@@std@@QAE?AV?$_List_unchecked_iterator@V?$_List_val@U?$_List_simple_types@U?$pair@$$CBV?$basic_string@DU?$char_traits@D@std@@V?$allocator@D@2@@std@@H@std@@@std@@@std@@@2@XZ ; std::list<std::pair<std::basic_string<char,std::char_traits<char>,std::allocator<char> > const ,int>,std::allocator<std::pair<std::basic_string<char,std::char_traits<char>,std::allocator<char> > const ,int> > >::_Unchecked_end
PUBLIC	?_Make_iter@?$list@U?$pair@$$CBV?$basic_string@DU?$char_traits@D@std@@V?$allocator@D@2@@std@@H@std@@V?$allocator@U?$pair@$$CBV?$basic_string@DU?$char_traits@D@std@@V?$allocator@D@2@@std@@H@std@@@2@@std@@QBE?AV?$_List_iterator@V?$_List_val@U?$_List_simple_types@U?$pair@$$CBV?$basic_string@DU?$char_traits@D@std@@V?$allocator@D@2@@std@@H@std@@@std@@@std@@@2@PAU?$_List_node@U?$pair@$$CBV?$basic_string@DU?$char_traits@D@std@@V?$allocator@D@2@@std@@H@std@@PAX@2@@Z ; std::list<std::pair<std::basic_string<char,std::char_traits<char>,std::allocator<char> > const ,int>,std::allocator<std::pair<std::basic_string<char,std::char_traits<char>,std::allocator<char> > const ,int> > >::_Make_iter
PUBLIC	?max_size@?$list@U?$pair@$$CBV?$basic_string@DU?$char_traits@D@std@@V?$allocator@D@2@@std@@H@std@@V?$allocator@U?$pair@$$CBV?$basic_string@DU?$char_traits@D@std@@V?$allocator@D@2@@std@@H@std@@@2@@std@@QBEIXZ ; std::list<std::pair<std::basic_string<char,std::char_traits<char>,std::allocator<char> > const ,int>,std::allocator<std::pair<std::basic_string<char,std::char_traits<char>,std::allocator<char> > const ,int> > >::max_size
PUBLIC	?_Unchecked_erase@?$list@U?$pair@$$CBV?$basic_string@DU?$char_traits@D@std@@V?$allocator@D@2@@std@@H@std@@V?$allocator@U?$pair@$$CBV?$basic_string@DU?$char_traits@D@std@@V?$allocator@D@2@@std@@H@std@@@2@@std@@AAEPAU?$_List_node@U?$pair@$$CBV?$basic_string@DU?$char_traits@D@std@@V?$allocator@D@2@@std@@H@std@@PAX@2@PAU32@QAU32@@Z ; std::list<std::pair<std::basic_string<char,std::char_traits<char>,std::allocator<char> > const ,int>,std::allocator<std::pair<std::basic_string<char,std::char_traits<char>,std::allocator<char> > const ,int> > >::_Unchecked_erase
PUBLIC	?clear@?$list@U?$pair@$$CBV?$basic_string@DU?$char_traits@D@std@@V?$allocator@D@2@@std@@H@std@@V?$allocator@U?$pair@$$CBV?$basic_string@DU?$char_traits@D@std@@V?$allocator@D@2@@std@@H@std@@@2@@std@@QAEXXZ ; std::list<std::pair<std::basic_string<char,std::char_traits<char>,std::allocator<char> > const ,int>,std::allocator<std::pair<std::basic_string<char,std::char_traits<char>,std::allocator<char> > const ,int> > >::clear
PUBLIC	?_Tidy@?$list@U?$pair@$$CBV?$basic_string@DU?$char_traits@D@std@@V?$allocator@D@2@@std@@H@std@@V?$allocator@U?$pair@$$CBV?$basic_string@DU?$char_traits@D@std@@V?$allocator@D@2@@std@@H@std@@@2@@std@@AAEXXZ ; std::list<std::pair<std::basic_string<char,std::char_traits<char>,std::allocator<char> > const ,int>,std::allocator<std::pair<std::basic_string<char,std::char_traits<char>,std::allocator<char> > const ,int> > >::_Tidy
PUBLIC	?_Alloc_sentinel_and_proxy@?$list@U?$pair@$$CBV?$basic_string@DU?$char_traits@D@std@@V?$allocator@D@2@@std@@H@std@@V?$allocator@U?$pair@$$CBV?$basic_string@DU?$char_traits@D@std@@V?$allocator@D@2@@std@@H@std@@@2@@std@@AAEXXZ ; std::list<std::pair<std::basic_string<char,std::char_traits<char>,std::allocator<char> > const ,int>,std::allocator<std::pair<std::basic_string<char,std::char_traits<char>,std::allocator<char> > const ,int> > >::_Alloc_sentinel_and_proxy
PUBLIC	?_Getal@?$list@U?$pair@$$CBV?$basic_string@DU?$char_traits@D@std@@V?$allocator@D@2@@std@@H@std@@V?$allocator@U?$pair@$$CBV?$basic_string@DU?$char_traits@D@std@@V?$allocator@D@2@@std@@H@std@@@2@@std@@AAEAAV?$allocator@U?$_List_node@U?$pair@$$CBV?$basic_string@DU?$char_traits@D@std@@V?$allocator@D@2@@std@@H@std@@PAX@std@@@2@XZ ; std::list<std::pair<std::basic_string<char,std::char_traits<char>,std::allocator<char> > const ,int>,std::allocator<std::pair<std::basic_string<char,std::char_traits<char>,std::allocator<char> > const ,int> > >::_Getal
PUBLIC	?_Getal@?$list@U?$pair@$$CBV?$basic_string@DU?$char_traits@D@std@@V?$allocator@D@2@@std@@H@std@@V?$allocator@U?$pair@$$CBV?$basic_string@DU?$char_traits@D@std@@V?$allocator@D@2@@std@@H@std@@@2@@std@@ABEABV?$allocator@U?$_List_node@U?$pair@$$CBV?$basic_string@DU?$char_traits@D@std@@V?$allocator@D@2@@std@@H@std@@PAX@std@@@2@XZ ; std::list<std::pair<std::basic_string<char,std::char_traits<char>,std::allocator<char> > const ,int>,std::allocator<std::pair<std::basic_string<char,std::char_traits<char>,std::allocator<char> > const ,int> > >::_Getal
PUBLIC	??0?$_List_val@U?$_List_simple_types@U?$pair@$$CBV?$basic_string@DU?$char_traits@D@std@@V?$allocator@D@2@@std@@H@std@@@std@@@std@@QAE@XZ ; std::_List_val<std::_List_simple_types<std::pair<std::basic_string<char,std::char_traits<char>,std::allocator<char> > const ,int> > >::_List_val<std::_List_simple_types<std::pair<std::basic_string<char,std::char_traits<char>,std::allocator<char> > const ,int> > >
PUBLIC	?_Orphan_non_end@?$_List_val@U?$_List_simple_types@U?$pair@$$CBV?$basic_string@DU?$char_traits@D@std@@V?$allocator@D@2@@std@@H@std@@@std@@@std@@QAEXXZ ; std::_List_val<std::_List_simple_types<std::pair<std::basic_string<char,std::char_traits<char>,std::allocator<char> > const ,int> > >::_Orphan_non_end
PUBLIC	?_Unchecked_splice@?$_List_val@U?$_List_simple_types@U?$pair@$$CBV?$basic_string@DU?$char_traits@D@std@@V?$allocator@D@2@@std@@H@std@@@std@@@std@@SAPAU?$_List_node@U?$pair@$$CBV?$basic_string@DU?$char_traits@D@std@@V?$allocator@D@2@@std@@H@std@@PAX@2@QAU32@00@Z ; std::_List_val<std::_List_simple_types<std::pair<std::basic_string<char,std::char_traits<char>,std::allocator<char> > const ,int> > >::_Unchecked_splice
PUBLIC	?_Get_first@?$_Compressed_pair@V?$allocator@U?$_List_node@U?$pair@$$CBV?$basic_string@DU?$char_traits@D@std@@V?$allocator@D@2@@std@@H@std@@PAX@std@@@std@@V?$_List_val@U?$_List_simple_types@U?$pair@$$CBV?$basic_string@DU?$char_traits@D@std@@V?$allocator@D@2@@std@@H@std@@@std@@@2@$00@std@@QAEAAV?$allocator@U?$_List_node@U?$pair@$$CBV?$basic_string@DU?$char_traits@D@std@@V?$allocator@D@2@@std@@H@std@@PAX@std@@@2@XZ ; std::_Compressed_pair<std::allocator<std::_List_node<std::pair<std::basic_string<char,std::char_traits<char>,std::allocator<char> > const ,int>,void *> >,std::_List_val<std::_List_simple_types<std::pair<std::basic_string<char,std::char_traits<char>,std::allocator<char> > const ,int> > >,1>::_Get_first
PUBLIC	?_Get_first@?$_Compressed_pair@V?$allocator@U?$_List_node@U?$pair@$$CBV?$basic_string@DU?$char_traits@D@std@@V?$allocator@D@2@@std@@H@std@@PAX@std@@@std@@V?$_List_val@U?$_List_simple_types@U?$pair@$$CBV?$basic_string@DU?$char_traits@D@std@@V?$allocator@D@2@@std@@H@std@@@std@@@2@$00@std@@QBEABV?$allocator@U?$_List_node@U?$pair@$$CBV?$basic_string@DU?$char_traits@D@std@@V?$allocator@D@2@@std@@H@std@@PAX@std@@@2@XZ ; std::_Compressed_pair<std::allocator<std::_List_node<std::pair<std::basic_string<char,std::char_traits<char>,std::allocator<char> > const ,int>,void *> >,std::_List_val<std::_List_simple_types<std::pair<std::basic_string<char,std::char_traits<char>,std::allocator<char> > const ,int> > >,1>::_Get_first
PUBLIC	??0?$_Hash@V?$_Umap_traits@V?$basic_string@DU?$char_traits@D@std@@V?$allocator@D@2@@std@@HV?$_Uhash_compare@V?$basic_string@DU?$char_traits@D@std@@V?$allocator@D@2@@std@@U?$hash@V?$basic_string@DU?$char_traits@D@std@@V?$allocator@D@2@@std@@@2@U?$equal_to@V?$basic_string@DU?$char_traits@D@std@@V?$allocator@D@2@@std@@@2@@2@V?$allocator@U?$pair@$$CBV?$basic_string@DU?$char_traits@D@std@@V?$allocator@D@2@@std@@H@std@@@2@$0A@@std@@@std@@IAE@ABV?$_Uhash_compare@V?$basic_string@DU?$char_traits@D@std@@V?$allocator@D@2@@std@@U?$hash@V?$basic_string@DU?$char_traits@D@std@@V?$allocator@D@2@@std@@@2@U?$equal_to@V?$basic_string@DU?$char_traits@D@std@@V?$allocator@D@2@@std@@@2@@1@ABV?$allocator@U?$pair@$$CBV?$basic_string@DU?$char_traits@D@std@@V?$allocator@D@2@@std@@H@std@@@1@@Z ; std::_Hash<std::_Umap_traits<std::basic_string<char,std::char_traits<char>,std::allocator<char> >,int,std::_Uhash_compare<std::basic_string<char,std::char_traits<char>,std::allocator<char> >,std::hash<std::basic_string<char,std::char_traits<char>,std::allocator<char> > >,std::equal_to<std::basic_string<char,std::char_traits<char>,std::allocator<char> > > >,std::allocator<std::pair<std::basic_string<char,std::char_traits<char>,std::allocator<char> > const ,int> >,0> >::_Hash<std::_Umap_traits<std::basic_string<char,std::char_traits<char>,std::allocator<char> >,int,std::_Uhash_compare<std::basic_string<char,std::char_traits<char>,std::allocator<char> >,std::hash<std::basic_string<char,std::char_traits<char>,std::allocator<char> > >,std::equal_to<std::basic_string<char,std::char_traits<char>,std::allocator<char> > > >,std::allocator<std::pair<std::basic_string<char,std::char_traits<char>,std::allocator<char> > const ,int> >,0> >
PUBLIC	?end@?$_Hash@V?$_Umap_traits@V?$basic_string@DU?$char_traits@D@std@@V?$allocator@D@2@@std@@HV?$_Uhash_compare@V?$basic_string@DU?$char_traits@D@std@@V?$allocator@D@2@@std@@U?$hash@V?$basic_string@DU?$char_traits@D@std@@V?$allocator@D@2@@std@@@2@U?$equal_to@V?$basic_string@DU?$char_traits@D@std@@V?$allocator@D@2@@std@@@2@@2@V?$allocator@U?$pair@$$CBV?$basic_string@DU?$char_traits@D@std@@V?$allocator@D@2@@std@@H@std@@@2@$0A@@std@@@std@@QAE?AV?$_List_iterator@V?$_List_val@U?$_List_simple_types@U?$pair@$$CBV?$basic_string@DU?$char_traits@D@std@@V?$allocator@D@2@@std@@H@std@@@std@@@std@@@2@XZ ; std::_Hash<std::_Umap_traits<std::basic_string<char,std::char_traits<char>,std::allocator<char> >,int,std::_Uhash_compare<std::basic_string<char,std::char_traits<char>,std::allocator<char> >,std::hash<std::basic_string<char,std::char_traits<char>,std::allocator<char> > >,std::equal_to<std::basic_string<char,std::char_traits<char>,std::allocator<char> > > >,std::allocator<std::pair<std::basic_string<char,std::char_traits<char>,std::allocator<char> > const ,int> >,0> >::end
PUBLIC	?_Unchecked_begin@?$_Hash@V?$_Umap_traits@V?$basic_string@DU?$char_traits@D@std@@V?$allocator@D@2@@std@@HV?$_Uhash_compare@V?$basic_string@DU?$char_traits@D@std@@V?$allocator@D@2@@std@@U?$hash@V?$basic_string@DU?$char_traits@D@std@@V?$allocator@D@2@@std@@@2@U?$equal_to@V?$basic_string@DU?$char_traits@D@std@@V?$allocator@D@2@@std@@@2@@2@V?$allocator@U?$pair@$$CBV?$basic_string@DU?$char_traits@D@std@@V?$allocator@D@2@@std@@H@std@@@2@$0A@@std@@@std@@QAE?AV?$_List_unchecked_iterator@V?$_List_val@U?$_List_simple_types@U?$pair@$$CBV?$basic_string@DU?$char_traits@D@std@@V?$allocator@D@2@@std@@H@std@@@std@@@std@@@2@XZ ; std::_Hash<std::_Umap_traits<std::basic_string<char,std::char_traits<char>,std::allocator<char> >,int,std::_Uhash_compare<std::basic_string<char,std::char_traits<char>,std::allocator<char> >,std::hash<std::basic_string<char,std::char_traits<char>,std::allocator<char> > >,std::equal_to<std::basic_string<char,std::char_traits<char>,std::allocator<char> > > >,std::allocator<std::pair<std::basic_string<char,std::char_traits<char>,std::allocator<char> > const ,int> >,0> >::_Unchecked_begin
PUBLIC	?_Unchecked_end@?$_Hash@V?$_Umap_traits@V?$basic_string@DU?$char_traits@D@std@@V?$allocator@D@2@@std@@HV?$_Uhash_compare@V?$basic_string@DU?$char_traits@D@std@@V?$allocator@D@2@@std@@U?$hash@V?$basic_string@DU?$char_traits@D@std@@V?$allocator@D@2@@std@@@2@U?$equal_to@V?$basic_string@DU?$char_traits@D@std@@V?$allocator@D@2@@std@@@2@@2@V?$allocator@U?$pair@$$CBV?$basic_string@DU?$char_traits@D@std@@V?$allocator@D@2@@std@@H@std@@@2@$0A@@std@@@std@@QAE?AV?$_List_unchecked_iterator@V?$_List_val@U?$_List_simple_types@U?$pair@$$CBV?$basic_string@DU?$char_traits@D@std@@V?$allocator@D@2@@std@@H@std@@@std@@@std@@@2@XZ ; std::_Hash<std::_Umap_traits<std::basic_string<char,std::char_traits<char>,std::allocator<char> >,int,std::_Uhash_compare<std::basic_string<char,std::char_traits<char>,std::allocator<char> >,std::hash<std::basic_string<char,std::char_traits<char>,std::allocator<char> > >,std::equal_to<std::basic_string<char,std::char_traits<char>,std::allocator<char> > > >,std::allocator<std::pair<std::basic_string<char,std::char_traits<char>,std::allocator<char> > const ,int> >,0> >::_Unchecked_end
PUBLIC	?bucket_count@?$_Hash@V?$_Umap_traits@V?$basic_string@DU?$char_traits@D@std@@V?$allocator@D@2@@std@@HV?$_Uhash_compare@V?$basic_string@DU?$char_traits@D@std@@V?$allocator@D@2@@std@@U?$hash@V?$basic_string@DU?$char_traits@D@std@@V?$allocator@D@2@@std@@@2@U?$equal_to@V?$basic_string@DU?$char_traits@D@std@@V?$allocator@D@2@@std@@@2@@2@V?$allocator@U?$pair@$$CBV?$basic_string@DU?$char_traits@D@std@@V?$allocator@D@2@@std@@H@std@@@2@$0A@@std@@@std@@QBEIXZ ; std::_Hash<std::_Umap_traits<std::basic_string<char,std::char_traits<char>,std::allocator<char> >,int,std::_Uhash_compare<std::basic_string<char,std::char_traits<char>,std::allocator<char> >,std::hash<std::basic_string<char,std::char_traits<char>,std::allocator<char> > >,std::equal_to<std::basic_string<char,std::char_traits<char>,std::allocator<char> > > >,std::allocator<std::pair<std::basic_string<char,std::char_traits<char>,std::allocator<char> > const ,int> >,0> >::bucket_count
PUBLIC	?bucket@?$_Hash@V?$_Umap_traits@V?$basic_string@DU?$char_traits@D@std@@V?$allocator@D@2@@std@@HV?$_Uhash_compare@V?$basic_string@DU?$char_traits@D@std@@V?$allocator@D@2@@std@@U?$hash@V?$basic_string@DU?$char_traits@D@std@@V?$allocator@D@2@@std@@@2@U?$equal_to@V?$basic_string@DU?$char_traits@D@std@@V?$allocator@D@2@@std@@@2@@2@V?$allocator@U?$pair@$$CBV?$basic_string@DU?$char_traits@D@std@@V?$allocator@D@2@@std@@H@std@@@2@$0A@@std@@@std@@QBEIABV?$basic_string@DU?$char_traits@D@std@@V?$allocator@D@2@@2@@Z ; std::_Hash<std::_Umap_traits<std::basic_string<char,std::char_traits<char>,std::allocator<char> >,int,std::_Uhash_compare<std::basic_string<char,std::char_traits<char>,std::allocator<char> >,std::hash<std::basic_string<char,std::char_traits<char>,std::allocator<char> > >,std::equal_to<std::basic_string<char,std::char_traits<char>,std::allocator<char> > > >,std::allocator<std::pair<std::basic_string<char,std::char_traits<char>,std::allocator<char> > const ,int> >,0> >::bucket
PUBLIC	?max_load_factor@?$_Hash@V?$_Umap_traits@V?$basic_string@DU?$char_traits@D@std@@V?$allocator@D@2@@std@@HV?$_Uhash_compare@V?$basic_string@DU?$char_traits@D@std@@V?$allocator@D@2@@std@@U?$hash@V?$basic_string@DU?$char_traits@D@std@@V?$allocator@D@2@@std@@@2@U?$equal_to@V?$basic_string@DU?$char_traits@D@std@@V?$allocator@D@2@@std@@@2@@2@V?$allocator@U?$pair@$$CBV?$basic_string@DU?$char_traits@D@std@@V?$allocator@D@2@@std@@H@std@@@2@$0A@@std@@@std@@QBEMXZ ; std::_Hash<std::_Umap_traits<std::basic_string<char,std::char_traits<char>,std::allocator<char> >,int,std::_Uhash_compare<std::basic_string<char,std::char_traits<char>,std::allocator<char> >,std::hash<std::basic_string<char,std::char_traits<char>,std::allocator<char> > >,std::equal_to<std::basic_string<char,std::char_traits<char>,std::allocator<char> > > >,std::allocator<std::pair<std::basic_string<char,std::char_traits<char>,std::allocator<char> > const ,int> >,0> >::max_load_factor
PUBLIC	?_Unchecked_erase@?$_Hash@V?$_Umap_traits@V?$basic_string@DU?$char_traits@D@std@@V?$allocator@D@2@@std@@HV?$_Uhash_compare@V?$basic_string@DU?$char_traits@D@std@@V?$allocator@D@2@@std@@U?$hash@V?$basic_string@DU?$char_traits@D@std@@V?$allocator@D@2@@std@@@2@U?$equal_to@V?$basic_string@DU?$char_traits@D@std@@V?$allocator@D@2@@std@@@2@@2@V?$allocator@U?$pair@$$CBV?$basic_string@DU?$char_traits@D@std@@V?$allocator@D@2@@std@@H@std@@@2@$0A@@std@@@std@@AAEPAU?$_List_node@U?$pair@$$CBV?$basic_string@DU?$char_traits@D@std@@V?$allocator@D@2@@std@@H@std@@PAX@2@PAU32@QAU32@@Z ; std::_Hash<std::_Umap_traits<std::basic_string<char,std::char_traits<char>,std::allocator<char> >,int,std::_Uhash_compare<std::basic_string<char,std::char_traits<char>,std::allocator<char> >,std::hash<std::basic_string<char,std::char_traits<char>,std::allocator<char> > >,std::equal_to<std::basic_string<char,std::char_traits<char>,std::allocator<char> > > >,std::allocator<std::pair<std::basic_string<char,std::char_traits<char>,std::allocator<char> > const ,int> >,0> >::_Unchecked_erase
PUBLIC	?clear@?$_Hash@V?$_Umap_traits@V?$basic_string@DU?$char_traits@D@std@@V?$allocator@D@2@@std@@HV?$_Uhash_compare@V?$basic_string@DU?$char_traits@D@std@@V?$allocator@D@2@@std@@U?$hash@V?$basic_string@DU?$char_traits@D@std@@V?$allocator@D@2@@std@@@2@U?$equal_to@V?$basic_string@DU?$char_traits@D@std@@V?$allocator@D@2@@std@@@2@@2@V?$allocator@U?$pair@$$CBV?$basic_string@DU?$char_traits@D@std@@V?$allocator@D@2@@std@@H@std@@@2@$0A@@std@@@std@@QAEXXZ ; std::_Hash<std::_Umap_traits<std::basic_string<char,std::char_traits<char>,std::allocator<char> >,int,std::_Uhash_compare<std::basic_string<char,std::char_traits<char>,std::allocator<char> >,std::hash<std::basic_string<char,std::char_traits<char>,std::allocator<char> > >,std::equal_to<std::basic_string<char,std::char_traits<char>,std::allocator<char> > > >,std::allocator<std::pair<std::basic_string<char,std::char_traits<char>,std::allocator<char> > const ,int> >,0> >::clear
PUBLIC	?_Insert_new_node_before@?$_Hash@V?$_Umap_traits@V?$basic_string@DU?$char_traits@D@std@@V?$allocator@D@2@@std@@HV?$_Uhash_compare@V?$basic_string@DU?$char_traits@D@std@@V?$allocator@D@2@@std@@U?$hash@V?$basic_string@DU?$char_traits@D@std@@V?$allocator@D@2@@std@@@2@U?$equal_to@V?$basic_string@DU?$char_traits@D@std@@V?$allocator@D@2@@std@@@2@@2@V?$allocator@U?$pair@$$CBV?$basic_string@DU?$char_traits@D@std@@V?$allocator@D@2@@std@@H@std@@@2@$0A@@std@@@std@@IAEPAU?$_List_node@U?$pair@$$CBV?$basic_string@DU?$char_traits@D@std@@V?$allocator@D@2@@std@@H@std@@PAX@2@IQAU32@0@Z ; std::_Hash<std::_Umap_traits<std::basic_string<char,std::char_traits<char>,std::allocator<char> >,int,std::_Uhash_compare<std::basic_string<char,std::char_traits<char>,std::allocator<char> >,std::hash<std::basic_string<char,std::char_traits<char>,std::allocator<char> > >,std::equal_to<std::basic_string<char,std::char_traits<char>,std::allocator<char> > > >,std::allocator<std::pair<std::basic_string<char,std::char_traits<char>,std::allocator<char> > const ,int> >,0> >::_Insert_new_node_before
PUBLIC	?_Check_max_size@?$_Hash@V?$_Umap_traits@V?$basic_string@DU?$char_traits@D@std@@V?$allocator@D@2@@std@@HV?$_Uhash_compare@V?$basic_string@DU?$char_traits@D@std@@V?$allocator@D@2@@std@@U?$hash@V?$basic_string@DU?$char_traits@D@std@@V?$allocator@D@2@@std@@@2@U?$equal_to@V?$basic_string@DU?$char_traits@D@std@@V?$allocator@D@2@@std@@@2@@2@V?$allocator@U?$pair@$$CBV?$basic_string@DU?$char_traits@D@std@@V?$allocator@D@2@@std@@H@std@@@2@$0A@@std@@@std@@IBEXXZ ; std::_Hash<std::_Umap_traits<std::basic_string<char,std::char_traits<char>,std::allocator<char> >,int,std::_Uhash_compare<std::basic_string<char,std::char_traits<char>,std::allocator<char> >,std::hash<std::basic_string<char,std::char_traits<char>,std::allocator<char> > >,std::equal_to<std::basic_string<char,std::char_traits<char>,std::allocator<char> > > >,std::allocator<std::pair<std::basic_string<char,std::char_traits<char>,std::allocator<char> > const ,int> >,0> >::_Check_max_size
PUBLIC	?_Check_rehash_required_1@?$_Hash@V?$_Umap_traits@V?$basic_string@DU?$char_traits@D@std@@V?$allocator@D@2@@std@@HV?$_Uhash_compare@V?$basic_string@DU?$char_traits@D@std@@V?$allocator@D@2@@std@@U?$hash@V?$basic_string@DU?$char_traits@D@std@@V?$allocator@D@2@@std@@@2@U?$equal_to@V?$basic_string@DU?$char_traits@D@std@@V?$allocator@D@2@@std@@@2@@2@V?$allocator@U?$pair@$$CBV?$basic_string@DU?$char_traits@D@std@@V?$allocator@D@2@@std@@H@std@@@2@$0A@@std@@@std@@IBE_NXZ ; std::_Hash<std::_Umap_traits<std::basic_string<char,std::char_traits<char>,std::allocator<char> >,int,std::_Uhash_compare<std::basic_string<char,std::char_traits<char>,std::allocator<char> >,std::hash<std::basic_string<char,std::char_traits<char>,std::allocator<char> > >,std::equal_to<std::basic_string<char,std::char_traits<char>,std::allocator<char> > > >,std::allocator<std::pair<std::basic_string<char,std::char_traits<char>,std::allocator<char> > const ,int> >,0> >::_Check_rehash_required_1
PUBLIC	?_Rehash_for_1@?$_Hash@V?$_Umap_traits@V?$basic_string@DU?$char_traits@D@std@@V?$allocator@D@2@@std@@HV?$_Uhash_compare@V?$basic_string@DU?$char_traits@D@std@@V?$allocator@D@2@@std@@U?$hash@V?$basic_string@DU?$char_traits@D@std@@V?$allocator@D@2@@std@@@2@U?$equal_to@V?$basic_string@DU?$char_traits@D@std@@V?$allocator@D@2@@std@@@2@@2@V?$allocator@U?$pair@$$CBV?$basic_string@DU?$char_traits@D@std@@V?$allocator@D@2@@std@@H@std@@@2@$0A@@std@@@std@@IAEXXZ ; std::_Hash<std::_Umap_traits<std::basic_string<char,std::char_traits<char>,std::allocator<char> >,int,std::_Uhash_compare<std::basic_string<char,std::char_traits<char>,std::allocator<char> >,std::hash<std::basic_string<char,std::char_traits<char>,std::allocator<char> > >,std::equal_to<std::basic_string<char,std::char_traits<char>,std::allocator<char> > > >,std::allocator<std::pair<std::basic_string<char,std::char_traits<char>,std::allocator<char> > const ,int> >,0> >::_Rehash_for_1
PUBLIC	?_Min_load_factor_buckets@?$_Hash@V?$_Umap_traits@V?$basic_string@DU?$char_traits@D@std@@V?$allocator@D@2@@std@@HV?$_Uhash_compare@V?$basic_string@DU?$char_traits@D@std@@V?$allocator@D@2@@std@@U?$hash@V?$basic_string@DU?$char_traits@D@std@@V?$allocator@D@2@@std@@@2@U?$equal_to@V?$basic_string@DU?$char_traits@D@std@@V?$allocator@D@2@@std@@@2@@2@V?$allocator@U?$pair@$$CBV?$basic_string@DU?$char_traits@D@std@@V?$allocator@D@2@@std@@H@std@@@2@$0A@@std@@@std@@IBEII@Z ; std::_Hash<std::_Umap_traits<std::basic_string<char,std::char_traits<char>,std::allocator<char> >,int,std::_Uhash_compare<std::basic_string<char,std::char_traits<char>,std::allocator<char> >,std::hash<std::basic_string<char,std::char_traits<char>,std::allocator<char> > >,std::equal_to<std::basic_string<char,std::char_traits<char>,std::allocator<char> > > >,std::allocator<std::pair<std::basic_string<char,std::char_traits<char>,std::allocator<char> > const ,int> >,0> >::_Min_load_factor_buckets
PUBLIC	?_Desired_grow_bucket_count@?$_Hash@V?$_Umap_traits@V?$basic_string@DU?$char_traits@D@std@@V?$allocator@D@2@@std@@HV?$_Uhash_compare@V?$basic_string@DU?$char_traits@D@std@@V?$allocator@D@2@@std@@U?$hash@V?$basic_string@DU?$char_traits@D@std@@V?$allocator@D@2@@std@@@2@U?$equal_to@V?$basic_string@DU?$char_traits@D@std@@V?$allocator@D@2@@std@@@2@@2@V?$allocator@U?$pair@$$CBV?$basic_string@DU?$char_traits@D@std@@V?$allocator@D@2@@std@@H@std@@@2@$0A@@std@@@std@@IBEII@Z ; std::_Hash<std::_Umap_traits<std::basic_string<char,std::char_traits<char>,std::allocator<char> >,int,std::_Uhash_compare<std::basic_string<char,std::char_traits<char>,std::allocator<char> >,std::hash<std::basic_string<char,std::char_traits<char>,std::allocator<char> > >,std::equal_to<std::basic_string<char,std::char_traits<char>,std::allocator<char> > > >,std::allocator<std::pair<std::basic_string<char,std::char_traits<char>,std::allocator<char> > const ,int> >,0> >::_Desired_grow_bucket_count
PUBLIC	?_Forced_rehash@?$_Hash@V?$_Umap_traits@V?$basic_string@DU?$char_traits@D@std@@V?$allocator@D@2@@std@@HV?$_Uhash_compare@V?$basic_string@DU?$char_traits@D@std@@V?$allocator@D@2@@std@@U?$hash@V?$basic_string@DU?$char_traits@D@std@@V?$allocator@D@2@@std@@@2@U?$equal_to@V?$basic_string@DU?$char_traits@D@std@@V?$allocator@D@2@@std@@@2@@2@V?$allocator@U?$pair@$$CBV?$basic_string@DU?$char_traits@D@std@@V?$allocator@D@2@@std@@H@std@@@2@$0A@@std@@@std@@IAEXI@Z ; std::_Hash<std::_Umap_traits<std::basic_string<char,std::char_traits<char>,std::allocator<char> >,int,std::_Uhash_compare<std::basic_string<char,std::char_traits<char>,std::allocator<char> >,std::hash<std::basic_string<char,std::char_traits<char>,std::allocator<char> > >,std::equal_to<std::basic_string<char,std::char_traits<char>,std::allocator<char> > > >,std::allocator<std::pair<std::basic_string<char,std::char_traits<char>,std::allocator<char> > const ,int> >,0> >::_Forced_rehash
PUBLIC	?_Max_bucket_size@?$_Hash@V?$_Umap_traits@V?$basic_string@DU?$char_traits@D@std@@V?$allocator@D@2@@std@@HV?$_Uhash_compare@V?$basic_string@DU?$char_traits@D@std@@V?$allocator@D@2@@std@@U?$hash@V?$basic_string@DU?$char_traits@D@std@@V?$allocator@D@2@@std@@@2@U?$equal_to@V?$basic_string@DU?$char_traits@D@std@@V?$allocator@D@2@@std@@@2@@2@V?$allocator@U?$pair@$$CBV?$basic_string@DU?$char_traits@D@std@@V?$allocator@D@2@@std@@H@std@@@2@$0A@@std@@@std@@IAEAAMXZ ; std::_Hash<std::_Umap_traits<std::basic_string<char,std::char_traits<char>,std::allocator<char> >,int,std::_Uhash_compare<std::basic_string<char,std::char_traits<char>,std::allocator<char> >,std::hash<std::basic_string<char,std::char_traits<char>,std::allocator<char> > >,std::equal_to<std::basic_string<char,std::char_traits<char>,std::allocator<char> > > >,std::allocator<std::pair<std::basic_string<char,std::char_traits<char>,std::allocator<char> > const ,int> >,0> >::_Max_bucket_size
PUBLIC	?_Max_bucket_size@?$_Hash@V?$_Umap_traits@V?$basic_string@DU?$char_traits@D@std@@V?$allocator@D@2@@std@@HV?$_Uhash_compare@V?$basic_string@DU?$char_traits@D@std@@V?$allocator@D@2@@std@@U?$hash@V?$basic_string@DU?$char_traits@D@std@@V?$allocator@D@2@@std@@@2@U?$equal_to@V?$basic_string@DU?$char_traits@D@std@@V?$allocator@D@2@@std@@@2@@2@V?$allocator@U?$pair@$$CBV?$basic_string@DU?$char_traits@D@std@@V?$allocator@D@2@@std@@H@std@@@2@$0A@@std@@@std@@IBEABMXZ ; std::_Hash<std::_Umap_traits<std::basic_string<char,std::char_traits<char>,std::allocator<char> >,int,std::_Uhash_compare<std::basic_string<char,std::char_traits<char>,std::allocator<char> >,std::hash<std::basic_string<char,std::char_traits<char>,std::allocator<char> > >,std::equal_to<std::basic_string<char,std::char_traits<char>,std::allocator<char> > > >,std::allocator<std::pair<std::basic_string<char,std::char_traits<char>,std::allocator<char> > const ,int> >,0> >::_Max_bucket_size
PUBLIC	?deallocate@?$allocator@V?$_List_unchecked_iterator@V?$_List_val@U?$_List_simple_types@U?$pair@$$CBV?$basic_string@DU?$char_traits@D@std@@V?$allocator@D@2@@std@@H@std@@@std@@@std@@@std@@@std@@QAEXQAV?$_List_unchecked_iterator@V?$_List_val@U?$_List_simple_types@U?$pair@$$CBV?$basic_string@DU?$char_traits@D@std@@V?$allocator@D@2@@std@@H@std@@@std@@@std@@@2@I@Z ; std::allocator<std::_List_unchecked_iterator<std::_List_val<std::_List_simple_types<std::pair<std::basic_string<char,std::char_traits<char>,std::allocator<char> > const ,int> > > > >::deallocate
PUBLIC	?allocate@?$allocator@V?$_List_unchecked_iterator@V?$_List_val@U?$_List_simple_types@U?$pair@$$CBV?$basic_string@DU?$char_traits@D@std@@V?$allocator@D@2@@std@@H@std@@@std@@@std@@@std@@@std@@QAEPAV?$_List_unchecked_iterator@V?$_List_val@U?$_List_simple_types@U?$pair@$$CBV?$basic_string@DU?$char_traits@D@std@@V?$allocator@D@2@@std@@H@std@@@std@@@std@@@2@I@Z ; std::allocator<std::_List_unchecked_iterator<std::_List_val<std::_List_simple_types<std::pair<std::basic_string<char,std::char_traits<char>,std::allocator<char> > const ,int> > > > >::allocate
PUBLIC	?max_size@?$_Default_allocator_traits@V?$allocator@V?$_List_unchecked_iterator@V?$_List_val@U?$_List_simple_types@U?$pair@$$CBV?$basic_string@DU?$char_traits@D@std@@V?$allocator@D@2@@std@@H@std@@@std@@@std@@@std@@@std@@@std@@SAIABV?$allocator@V?$_List_unchecked_iterator@V?$_List_val@U?$_List_simple_types@U?$pair@$$CBV?$basic_string@DU?$char_traits@D@std@@V?$allocator@D@2@@std@@H@std@@@std@@@std@@@std@@@2@@Z ; std::_Default_allocator_traits<std::allocator<std::_List_unchecked_iterator<std::_List_val<std::_List_simple_types<std::pair<std::basic_string<char,std::char_traits<char>,std::allocator<char> > const ,int> > > > > >::max_size
PUBLIC	?size@?$_Hash_vec@V?$allocator@V?$_List_unchecked_iterator@V?$_List_val@U?$_List_simple_types@U?$pair@$$CBV?$basic_string@DU?$char_traits@D@std@@V?$allocator@D@2@@std@@H@std@@@std@@@std@@@std@@@std@@@std@@QBEIXZ ; std::_Hash_vec<std::allocator<std::_List_unchecked_iterator<std::_List_val<std::_List_simple_types<std::pair<std::basic_string<char,std::char_traits<char>,std::allocator<char> > const ,int> > > > > >::size
PUBLIC	?max_size@?$_Hash_vec@V?$allocator@V?$_List_unchecked_iterator@V?$_List_val@U?$_List_simple_types@U?$pair@$$CBV?$basic_string@DU?$char_traits@D@std@@V?$allocator@D@2@@std@@H@std@@@std@@@std@@@std@@@std@@@std@@QBEIXZ ; std::_Hash_vec<std::allocator<std::_List_unchecked_iterator<std::_List_val<std::_List_simple_types<std::pair<std::basic_string<char,std::char_traits<char>,std::allocator<char> > const ,int> > > > > >::max_size
PUBLIC	?_Assign_grow@?$_Hash_vec@V?$allocator@V?$_List_unchecked_iterator@V?$_List_val@U?$_List_simple_types@U?$pair@$$CBV?$basic_string@DU?$char_traits@D@std@@V?$allocator@D@2@@std@@H@std@@@std@@@std@@@std@@@std@@@std@@QAEXIV?$_List_unchecked_iterator@V?$_List_val@U?$_List_simple_types@U?$pair@$$CBV?$basic_string@DU?$char_traits@D@std@@V?$allocator@D@2@@std@@H@std@@@std@@@std@@@2@@Z ; std::_Hash_vec<std::allocator<std::_List_unchecked_iterator<std::_List_val<std::_List_simple_types<std::pair<std::basic_string<char,std::char_traits<char>,std::allocator<char> > const ,int> > > > > >::_Assign_grow
PUBLIC	?_Tidy@?$_Hash_vec@V?$allocator@V?$_List_unchecked_iterator@V?$_List_val@U?$_List_simple_types@U?$pair@$$CBV?$basic_string@DU?$char_traits@D@std@@V?$allocator@D@2@@std@@H@std@@@std@@@std@@@std@@@std@@@std@@QAEXXZ ; std::_Hash_vec<std::allocator<std::_List_unchecked_iterator<std::_List_val<std::_List_simple_types<std::pair<std::basic_string<char,std::char_traits<char>,std::allocator<char> > const ,int> > > > > >::_Tidy
PUBLIC	??1?$_Hash_vec@V?$allocator@V?$_List_unchecked_iterator@V?$_List_val@U?$_List_simple_types@U?$pair@$$CBV?$basic_string@DU?$char_traits@D@std@@V?$allocator@D@2@@std@@H@std@@@std@@@std@@@std@@@std@@@std@@QAE@XZ ; std::_Hash_vec<std::allocator<std::_List_unchecked_iterator<std::_List_val<std::_List_simple_types<std::pair<std::basic_string<char,std::char_traits<char>,std::allocator<char> > const ,int> > > > > >::~_Hash_vec<std::allocator<std::_List_unchecked_iterator<std::_List_val<std::_List_simple_types<std::pair<std::basic_string<char,std::char_traits<char>,std::allocator<char> > const ,int> > > > > >
PUBLIC	??0?$_Vector_val@U?$_Simple_types@V?$_List_unchecked_iterator@V?$_List_val@U?$_List_simple_types@U?$pair@$$CBV?$basic_string@DU?$char_traits@D@std@@V?$allocator@D@2@@std@@H@std@@@std@@@std@@@std@@@std@@@std@@QAE@XZ ; std::_Vector_val<std::_Simple_types<std::_List_unchecked_iterator<std::_List_val<std::_List_simple_types<std::pair<std::basic_string<char,std::char_traits<char>,std::allocator<char> > const ,int> > > > > >::_Vector_val<std::_Simple_types<std::_List_unchecked_iterator<std::_List_val<std::_List_simple_types<std::pair<std::basic_string<char,std::char_traits<char>,std::allocator<char> > const ,int> > > > > >
PUBLIC	?_Get_first@?$_Compressed_pair@V?$allocator@V?$_List_unchecked_iterator@V?$_List_val@U?$_List_simple_types@U?$pair@$$CBV?$basic_string@DU?$char_traits@D@std@@V?$allocator@D@2@@std@@H@std@@@std@@@std@@@std@@@std@@V?$_Vector_val@U?$_Simple_types@V?$_List_unchecked_iterator@V?$_List_val@U?$_List_simple_types@U?$pair@$$CBV?$basic_string@DU?$char_traits@D@std@@V?$allocator@D@2@@std@@H@std@@@std@@@std@@@std@@@std@@@2@$00@std@@QAEAAV?$allocator@V?$_List_unchecked_iterator@V?$_List_val@U?$_List_simple_types@U?$pair@$$CBV?$basic_string@DU?$char_traits@D@std@@V?$allocator@D@2@@std@@H@std@@@std@@@std@@@std@@@2@XZ ; std::_Compressed_pair<std::allocator<std::_List_unchecked_iterator<std::_List_val<std::_List_simple_types<std::pair<std::basic_string<char,std::char_traits<char>,std::allocator<char> > const ,int> > > > >,std::_Vector_val<std::_Simple_types<std::_List_unchecked_iterator<std::_List_val<std::_List_simple_types<std::pair<std::basic_string<char,std::char_traits<char>,std::allocator<char> > const ,int> > > > > >,1>::_Get_first
PUBLIC	?_Get_first@?$_Compressed_pair@V?$allocator@V?$_List_unchecked_iterator@V?$_List_val@U?$_List_simple_types@U?$pair@$$CBV?$basic_string@DU?$char_traits@D@std@@V?$allocator@D@2@@std@@H@std@@@std@@@std@@@std@@@std@@V?$_Vector_val@U?$_Simple_types@V?$_List_unchecked_iterator@V?$_List_val@U?$_List_simple_types@U?$pair@$$CBV?$basic_string@DU?$char_traits@D@std@@V?$allocator@D@2@@std@@H@std@@@std@@@std@@@std@@@std@@@2@$00@std@@QBEABV?$allocator@V?$_List_unchecked_iterator@V?$_List_val@U?$_List_simple_types@U?$pair@$$CBV?$basic_string@DU?$char_traits@D@std@@V?$allocator@D@2@@std@@H@std@@@std@@@std@@@std@@@2@XZ ; std::_Compressed_pair<std::allocator<std::_List_unchecked_iterator<std::_List_val<std::_List_simple_types<std::pair<std::basic_string<char,std::char_traits<char>,std::allocator<char> > const ,int> > > > >,std::_Vector_val<std::_Simple_types<std::_List_unchecked_iterator<std::_List_val<std::_List_simple_types<std::pair<std::basic_string<char,std::char_traits<char>,std::allocator<char> > const ,int> > > > > >,1>::_Get_first
PUBLIC	??1?$_Hash@V?$_Umap_traits@V?$basic_string@DU?$char_traits@D@std@@V?$allocator@D@2@@std@@HV?$_Uhash_compare@V?$basic_string@DU?$char_traits@D@std@@V?$allocator@D@2@@std@@U?$hash@V?$basic_string@DU?$char_traits@D@std@@V?$allocator@D@2@@std@@@2@U?$equal_to@V?$basic_string@DU?$char_traits@D@std@@V?$allocator@D@2@@std@@@2@@2@V?$allocator@U?$pair@$$CBV?$basic_string@DU?$char_traits@D@std@@V?$allocator@D@2@@std@@H@std@@@2@$0A@@std@@@std@@QAE@XZ ; std::_Hash<std::_Umap_traits<std::basic_string<char,std::char_traits<char>,std::allocator<char> >,int,std::_Uhash_compare<std::basic_string<char,std::char_traits<char>,std::allocator<char> >,std::hash<std::basic_string<char,std::char_traits<char>,std::allocator<char> > >,std::equal_to<std::basic_string<char,std::char_traits<char>,std::allocator<char> > > >,std::allocator<std::pair<std::basic_string<char,std::char_traits<char>,std::allocator<char> > const ,int> >,0> >::~_Hash<std::_Umap_traits<std::basic_string<char,std::char_traits<char>,std::allocator<char> >,int,std::_Uhash_compare<std::basic_string<char,std::char_traits<char>,std::allocator<char> >,std::hash<std::basic_string<char,std::char_traits<char>,std::allocator<char> > >,std::equal_to<std::basic_string<char,std::char_traits<char>,std::allocator<char> > > >,std::allocator<std::pair<std::basic_string<char,std::char_traits<char>,std::allocator<char> > const ,int> >,0> >
PUBLIC	??0?$unordered_map@V?$basic_string@DU?$char_traits@D@std@@V?$allocator@D@2@@std@@HU?$hash@V?$basic_string@DU?$char_traits@D@std@@V?$allocator@D@2@@std@@@2@U?$equal_to@V?$basic_string@DU?$char_traits@D@std@@V?$allocator@D@2@@std@@@2@V?$allocator@U?$pair@$$CBV?$basic_string@DU?$char_traits@D@std@@V?$allocator@D@2@@std@@H@std@@@2@@std@@QAE@XZ ; std::unordered_map<std::basic_string<char,std::char_traits<char>,std::allocator<char> >,int,std::hash<std::basic_string<char,std::char_traits<char>,std::allocator<char> > >,std::equal_to<std::basic_string<char,std::char_traits<char>,std::allocator<char> > >,std::allocator<std::pair<std::basic_string<char,std::char_traits<char>,std::allocator<char> > const ,int> > >::unordered_map<std::basic_string<char,std::char_traits<char>,std::allocator<char> >,int,std::hash<std::basic_string<char,std::char_traits<char>,std::allocator<char> > >,std::equal_to<std::basic_string<char,std::char_traits<char>,std::allocator<char> > >,std::allocator<std::pair<std::basic_string<char,std::char_traits<char>,std::allocator<char> > const ,int> > >
PUBLIC	??A?$unordered_map@V?$basic_string@DU?$char_traits@D@std@@V?$allocator@D@2@@std@@HU?$hash@V?$basic_string@DU?$char_traits@D@std@@V?$allocator@D@2@@std@@@2@U?$equal_to@V?$basic_string@DU?$char_traits@D@std@@V?$allocator@D@2@@std@@@2@V?$allocator@U?$pair@$$CBV?$basic_string@DU?$char_traits@D@std@@V?$allocator@D@2@@std@@H@std@@@2@@std@@QAEAAHABV?$basic_string@DU?$char_traits@D@std@@V?$allocator@D@2@@1@@Z ; std::unordered_map<std::basic_string<char,std::char_traits<char>,std::allocator<char> >,int,std::hash<std::basic_string<char,std::char_traits<char>,std::allocator<char> > >,std::equal_to<std::basic_string<char,std::char_traits<char>,std::allocator<char> > >,std::allocator<std::pair<std::basic_string<char,std::char_traits<char>,std::allocator<char> > const ,int> > >::operator[]
PUBLIC	??1?$unordered_map@V?$basic_string@DU?$char_traits@D@std@@V?$allocator@D@2@@std@@HU?$hash@V?$basic_string@DU?$char_traits@D@std@@V?$allocator@D@2@@std@@@2@U?$equal_to@V?$basic_string@DU?$char_traits@D@std@@V?$allocator@D@2@@std@@@2@V?$allocator@U?$pair@$$CBV?$basic_string@DU?$char_traits@D@std@@V?$allocator@D@2@@std@@H@std@@@2@@std@@QAE@XZ ; std::unordered_map<std::basic_string<char,std::char_traits<char>,std::allocator<char> >,int,std::hash<std::basic_string<char,std::char_traits<char>,std::allocator<char> > >,std::equal_to<std::basic_string<char,std::char_traits<char>,std::allocator<char> > >,std::allocator<std::pair<std::basic_string<char,std::char_traits<char>,std::allocator<char> > const ,int> > >::~unordered_map<std::basic_string<char,std::char_traits<char>,std::allocator<char> >,int,std::hash<std::basic_string<char,std::char_traits<char>,std::allocator<char> > >,std::equal_to<std::basic_string<char,std::char_traits<char>,std::allocator<char> > >,std::allocator<std::pair<std::basic_string<char,std::char_traits<char>,std::allocator<char> > const ,int> > >
PUBLIC	?__autoclassinit2@?$unordered_map@V?$basic_string@DU?$char_traits@D@std@@V?$allocator@D@2@@std@@HU?$hash@V?$basic_string@DU?$char_traits@D@std@@V?$allocator@D@2@@std@@@2@U?$equal_to@V?$basic_string@DU?$char_traits@D@std@@V?$allocator@D@2@@std@@@2@V?$allocator@U?$pair@$$CBV?$basic_string@DU?$char_traits@D@std@@V?$allocator@D@2@@std@@H@std@@@2@@std@@QAEXI@Z ; std::unordered_map<std::basic_string<char,std::char_traits<char>,std::allocator<char> >,int,std::hash<std::basic_string<char,std::char_traits<char>,std::allocator<char> > >,std::equal_to<std::basic_string<char,std::char_traits<char>,std::allocator<char> > >,std::allocator<std::pair<std::basic_string<char,std::char_traits<char>,std::allocator<char> > const ,int> > >::__autoclassinit2
PUBLIC	??0?$_List_unchecked_const_iterator@V?$_List_val@U?$_List_simple_types@U?$pair@$$CBV?$basic_string@DU?$char_traits@D@std@@V?$allocator@D@2@@std@@H@std@@@std@@@std@@U_Iterator_base12@2@@std@@QAE@XZ ; std::_List_unchecked_const_iterator<std::_List_val<std::_List_simple_types<std::pair<std::basic_string<char,std::char_traits<char>,std::allocator<char> > const ,int> > >,std::_Iterator_base12>::_List_unchecked_const_iterator<std::_List_val<std::_List_simple_types<std::pair<std::basic_string<char,std::char_traits<char>,std::allocator<char> > const ,int> > >,std::_Iterator_base12>
PUBLIC	??0?$_List_unchecked_const_iterator@V?$_List_val@U?$_List_simple_types@U?$pair@$$CBV?$basic_string@DU?$char_traits@D@std@@V?$allocator@D@2@@std@@H@std@@@std@@@std@@U_Iterator_base12@2@@std@@QAE@PAU?$_List_node@U?$pair@$$CBV?$basic_string@DU?$char_traits@D@std@@V?$allocator@D@2@@std@@H@std@@PAX@1@PBV?$_List_val@U?$_List_simple_types@U?$pair@$$CBV?$basic_string@DU?$char_traits@D@std@@V?$allocator@D@2@@std@@H@std@@@std@@@1@@Z ; std::_List_unchecked_const_iterator<std::_List_val<std::_List_simple_types<std::pair<std::basic_string<char,std::char_traits<char>,std::allocator<char> > const ,int> > >,std::_Iterator_base12>::_List_unchecked_const_iterator<std::_List_val<std::_List_simple_types<std::pair<std::basic_string<char,std::char_traits<char>,std::allocator<char> > const ,int> > >,std::_Iterator_base12>
PUBLIC	??1?$_List_unchecked_const_iterator@V?$_List_val@U?$_List_simple_types@U?$pair@$$CBV?$basic_string@DU?$char_traits@D@std@@V?$allocator@D@2@@std@@H@std@@@std@@@std@@U_Iterator_base12@2@@std@@QAE@XZ ; std::_List_unchecked_const_iterator<std::_List_val<std::_List_simple_types<std::pair<std::basic_string<char,std::char_traits<char>,std::allocator<char> > const ,int> > >,std::_Iterator_base12>::~_List_unchecked_const_iterator<std::_List_val<std::_List_simple_types<std::pair<std::basic_string<char,std::char_traits<char>,std::allocator<char> > const ,int> > >,std::_Iterator_base12>
PUBLIC	??4?$_List_unchecked_const_iterator@V?$_List_val@U?$_List_simple_types@U?$pair@$$CBV?$basic_string@DU?$char_traits@D@std@@V?$allocator@D@2@@std@@H@std@@@std@@@std@@U_Iterator_base12@2@@std@@QAEAAV01@$$QAV01@@Z ; std::_List_unchecked_const_iterator<std::_List_val<std::_List_simple_types<std::pair<std::basic_string<char,std::char_traits<char>,std::allocator<char> > const ,int> > >,std::_Iterator_base12>::operator=
PUBLIC	??8?$_List_const_iterator@V?$_List_val@U?$_List_simple_types@U?$pair@$$CBV?$basic_string@DU?$char_traits@D@std@@V?$allocator@D@2@@std@@H@std@@@std@@@std@@@std@@QBE_NABV01@@Z ; std::_List_const_iterator<std::_List_val<std::_List_simple_types<std::pair<std::basic_string<char,std::char_traits<char>,std::allocator<char> > const ,int> > > >::operator==
PUBLIC	??0?$_List_const_iterator@V?$_List_val@U?$_List_simple_types@U?$pair@$$CBV?$basic_string@DU?$char_traits@D@std@@V?$allocator@D@2@@std@@H@std@@@std@@@std@@@std@@QAE@XZ ; std::_List_const_iterator<std::_List_val<std::_List_simple_types<std::pair<std::basic_string<char,std::char_traits<char>,std::allocator<char> > const ,int> > > >::_List_const_iterator<std::_List_val<std::_List_simple_types<std::pair<std::basic_string<char,std::char_traits<char>,std::allocator<char> > const ,int> > > >
PUBLIC	??1?$_List_const_iterator@V?$_List_val@U?$_List_simple_types@U?$pair@$$CBV?$basic_string@DU?$char_traits@D@std@@V?$allocator@D@2@@std@@H@std@@@std@@@std@@@std@@QAE@XZ ; std::_List_const_iterator<std::_List_val<std::_List_simple_types<std::pair<std::basic_string<char,std::char_traits<char>,std::allocator<char> > const ,int> > > >::~_List_const_iterator<std::_List_val<std::_List_simple_types<std::pair<std::basic_string<char,std::char_traits<char>,std::allocator<char> > const ,int> > > >
PUBLIC	??4?$_List_const_iterator@V?$_List_val@U?$_List_simple_types@U?$pair@$$CBV?$basic_string@DU?$char_traits@D@std@@V?$allocator@D@2@@std@@H@std@@@std@@@std@@@std@@QAEAAV01@$$QAV01@@Z ; std::_List_const_iterator<std::_List_val<std::_List_simple_types<std::pair<std::basic_string<char,std::char_traits<char>,std::allocator<char> > const ,int> > > >::operator=
PUBLIC	?__autoclassinit2@?$_List_const_iterator@V?$_List_val@U?$_List_simple_types@U?$pair@$$CBV?$basic_string@DU?$char_traits@D@std@@V?$allocator@D@2@@std@@H@std@@@std@@@std@@@std@@QAEXI@Z ; std::_List_const_iterator<std::_List_val<std::_List_simple_types<std::pair<std::basic_string<char,std::char_traits<char>,std::allocator<char> > const ,int> > > >::__autoclassinit2
PUBLIC	??0?$_List_const_iterator@V?$_List_val@U?$_List_simple_types@U?$pair@$$CBV?$basic_string@DU?$char_traits@D@std@@V?$allocator@D@2@@std@@H@std@@@std@@@std@@@std@@QAE@PAU?$_List_node@U?$pair@$$CBV?$basic_string@DU?$char_traits@D@std@@V?$allocator@D@2@@std@@H@std@@PAX@1@PBV?$_List_val@U?$_List_simple_types@U?$pair@$$CBV?$basic_string@DU?$char_traits@D@std@@V?$allocator@D@2@@std@@H@std@@@std@@@1@@Z ; std::_List_const_iterator<std::_List_val<std::_List_simple_types<std::pair<std::basic_string<char,std::char_traits<char>,std::allocator<char> > const ,int> > > >::_List_const_iterator<std::_List_val<std::_List_simple_types<std::pair<std::basic_string<char,std::char_traits<char>,std::allocator<char> > const ,int> > > >
PUBLIC	??$endl@DU?$char_traits@D@std@@@std@@YAAAV?$basic_ostream@DU?$char_traits@D@std@@@0@AAV10@@Z ; std::endl<char,std::char_traits<char> >
PUBLIC	??$getline@DU?$char_traits@D@std@@V?$allocator@D@2@@std@@YAAAV?$basic_istream@DU?$char_traits@D@std@@@0@AAV10@AAV?$basic_string@DU?$char_traits@D@std@@V?$allocator@D@2@@0@@Z ; std::getline<char,std::char_traits<char>,std::allocator<char> >
PUBLIC	??0?$basic_stringstream@DU?$char_traits@D@std@@V?$allocator@D@2@@std@@QAE@H@Z ; std::basic_stringstream<char,std::char_traits<char>,std::allocator<char> >::basic_stringstream<char,std::char_traits<char>,std::allocator<char> >
PUBLIC	??0?$basic_stringstream@DU?$char_traits@D@std@@V?$allocator@D@2@@std@@QAE@ABV?$basic_string@DU?$char_traits@D@std@@V?$allocator@D@2@@1@H@Z ; std::basic_stringstream<char,std::char_traits<char>,std::allocator<char> >::basic_stringstream<char,std::char_traits<char>,std::allocator<char> >
PUBLIC	??1?$basic_stringstream@DU?$char_traits@D@std@@V?$allocator@D@2@@std@@UAE@XZ ; std::basic_stringstream<char,std::char_traits<char>,std::allocator<char> >::~basic_stringstream<char,std::char_traits<char>,std::allocator<char> >
PUBLIC	?str@?$basic_stringstream@DU?$char_traits@D@std@@V?$allocator@D@2@@std@@QAEXABV?$basic_string@DU?$char_traits@D@std@@V?$allocator@D@2@@2@@Z ; std::basic_stringstream<char,std::char_traits<char>,std::allocator<char> >::str
PUBLIC	??0?$basic_stringbuf@DU?$char_traits@D@std@@V?$allocator@D@2@@std@@QAE@H@Z ; std::basic_stringbuf<char,std::char_traits<char>,std::allocator<char> >::basic_stringbuf<char,std::char_traits<char>,std::allocator<char> >
PUBLIC	??0?$basic_stringbuf@DU?$char_traits@D@std@@V?$allocator@D@2@@std@@QAE@ABV?$basic_string@DU?$char_traits@D@std@@V?$allocator@D@2@@1@H@Z ; std::basic_stringbuf<char,std::char_traits<char>,std::allocator<char> >::basic_stringbuf<char,std::char_traits<char>,std::allocator<char> >
PUBLIC	??1?$basic_stringbuf@DU?$char_traits@D@std@@V?$allocator@D@2@@std@@UAE@XZ ; std::basic_stringbuf<char,std::char_traits<char>,std::allocator<char> >::~basic_stringbuf<char,std::char_traits<char>,std::allocator<char> >
PUBLIC	?str@?$basic_stringbuf@DU?$char_traits@D@std@@V?$allocator@D@2@@std@@QAEXABV?$basic_string@DU?$char_traits@D@std@@V?$allocator@D@2@@2@@Z ; std::basic_stringbuf<char,std::char_traits<char>,std::allocator<char> >::str
PUBLIC	?overflow@?$basic_stringbuf@DU?$char_traits@D@std@@V?$allocator@D@2@@std@@MAEHH@Z ; std::basic_stringbuf<char,std::char_traits<char>,std::allocator<char> >::overflow
PUBLIC	?pbackfail@?$basic_stringbuf@DU?$char_traits@D@std@@V?$allocator@D@2@@std@@MAEHH@Z ; std::basic_stringbuf<char,std::char_traits<char>,std::allocator<char> >::pbackfail
PUBLIC	?underflow@?$basic_stringbuf@DU?$char_traits@D@std@@V?$allocator@D@2@@std@@MAEHXZ ; std::basic_stringbuf<char,std::char_traits<char>,std::allocator<char> >::underflow
PUBLIC	?seekoff@?$basic_stringbuf@DU?$char_traits@D@std@@V?$allocator@D@2@@std@@MAE?AV?$fpos@U_Mbstatet@@@2@_JHH@Z ; std::basic_stringbuf<char,std::char_traits<char>,std::allocator<char> >::seekoff
PUBLIC	?seekpos@?$basic_stringbuf@DU?$char_traits@D@std@@V?$allocator@D@2@@std@@MAE?AV?$fpos@U_Mbstatet@@@2@V32@H@Z ; std::basic_stringbuf<char,std::char_traits<char>,std::allocator<char> >::seekpos
PUBLIC	?_Init@?$basic_stringbuf@DU?$char_traits@D@std@@V?$allocator@D@2@@std@@IAEXPBDIH@Z ; std::basic_stringbuf<char,std::char_traits<char>,std::allocator<char> >::_Init
PUBLIC	?_Tidy@?$basic_stringbuf@DU?$char_traits@D@std@@V?$allocator@D@2@@std@@IAEXXZ ; std::basic_stringbuf<char,std::char_traits<char>,std::allocator<char> >::_Tidy
PUBLIC	?_Getstate@?$basic_stringbuf@DU?$char_traits@D@std@@V?$allocator@D@2@@std@@CAHH@Z ; std::basic_stringbuf<char,std::char_traits<char>,std::allocator<char> >::_Getstate
PUBLIC	??_G?$basic_stringbuf@DU?$char_traits@D@std@@V?$allocator@D@2@@std@@UAEPAXI@Z ; std::basic_stringbuf<char,std::char_traits<char>,std::allocator<char> >::`scalar deleting destructor'
PUBLIC	?__autoclassinit2@?$basic_stringstream@DU?$char_traits@D@std@@V?$allocator@D@2@@std@@QAEXI@Z ; std::basic_stringstream<char,std::char_traits<char>,std::allocator<char> >::__autoclassinit2
PUBLIC	??_G?$basic_stringstream@DU?$char_traits@D@std@@V?$allocator@D@2@@std@@UAEPAXI@Z ; std::basic_stringstream<char,std::char_traits<char>,std::allocator<char> >::`scalar deleting destructor'
PUBLIC	??_D?$basic_stringstream@DU?$char_traits@D@std@@V?$allocator@D@2@@std@@QAEXXZ ; std::basic_stringstream<char,std::char_traits<char>,std::allocator<char> >::`vbase destructor'
PUBLIC	??$getline@DU?$char_traits@D@std@@V?$allocator@D@2@@std@@YAAAV?$basic_istream@DU?$char_traits@D@std@@@0@AAV10@AAV?$basic_string@DU?$char_traits@D@std@@V?$allocator@D@2@@0@D@Z ; std::getline<char,std::char_traits<char>,std::allocator<char> >
PUBLIC	??$getline@DU?$char_traits@D@std@@V?$allocator@D@2@@std@@YAAAV?$basic_istream@DU?$char_traits@D@std@@@0@$$QAV10@AAV?$basic_string@DU?$char_traits@D@std@@V?$allocator@D@2@@0@D@Z ; std::getline<char,std::char_traits<char>,std::allocator<char> >
PUBLIC	??0?$vec@$02M$0A@@glm@@QAE@MMM@Z		; glm::vec<3,float,0>::vec<3,float,0>
PUBLIC	??0?$vec@$01M$0A@@glm@@QAE@MM@Z			; glm::vec<2,float,0>::vec<2,float,0>
PUBLIC	??$find@X@?$_Hash@V?$_Umap_traits@V?$basic_string@DU?$char_traits@D@std@@V?$allocator@D@2@@std@@HV?$_Uhash_compare@V?$basic_string@DU?$char_traits@D@std@@V?$allocator@D@2@@std@@U?$hash@V?$basic_string@DU?$char_traits@D@std@@V?$allocator@D@2@@std@@@2@U?$equal_to@V?$basic_string@DU?$char_traits@D@std@@V?$allocator@D@2@@std@@@2@@2@V?$allocator@U?$pair@$$CBV?$basic_string@DU?$char_traits@D@std@@V?$allocator@D@2@@std@@H@std@@@2@$0A@@std@@@std@@QAE?AV?$_List_iterator@V?$_List_val@U?$_List_simple_types@U?$pair@$$CBV?$basic_string@DU?$char_traits@D@std@@V?$allocator@D@2@@std@@H@std@@@std@@@std@@@1@ABV?$basic_string@DU?$char_traits@D@std@@V?$allocator@D@2@@1@@Z ; std::_Hash<std::_Umap_traits<std::basic_string<char,std::char_traits<char>,std::allocator<char> >,int,std::_Uhash_compare<std::basic_string<char,std::char_traits<char>,std::allocator<char> >,std::hash<std::basic_string<char,std::char_traits<char>,std::allocator<char> > >,std::equal_to<std::basic_string<char,std::char_traits<char>,std::allocator<char> > > >,std::allocator<std::pair<std::basic_string<char,std::char_traits<char>,std::allocator<char> > const ,int> >,0> >::find<void>
PUBLIC	??1?$_List_iterator@V?$_List_val@U?$_List_simple_types@U?$pair@$$CBV?$basic_string@DU?$char_traits@D@std@@V?$allocator@D@2@@std@@H@std@@@std@@@std@@@std@@QAE@XZ ; std::_List_iterator<std::_List_val<std::_List_simple_types<std::pair<std::basic_string<char,std::char_traits<char>,std::allocator<char> > const ,int> > > >::~_List_iterator<std::_List_val<std::_List_simple_types<std::pair<std::basic_string<char,std::char_traits<char>,std::allocator<char> > const ,int> > > >
PUBLIC	??0?$_List_iterator@V?$_List_val@U?$_List_simple_types@U?$pair@$$CBV?$basic_string@DU?$char_traits@D@std@@V?$allocator@D@2@@std@@H@std@@@std@@@std@@@std@@QAE@PAU?$_List_node@U?$pair@$$CBV?$basic_string@DU?$char_traits@D@std@@V?$allocator@D@2@@std@@H@std@@PAX@1@PBV?$_List_val@U?$_List_simple_types@U?$pair@$$CBV?$basic_string@DU?$char_traits@D@std@@V?$allocator@D@2@@std@@H@std@@@std@@@1@@Z ; std::_List_iterator<std::_List_val<std::_List_simple_types<std::pair<std::basic_string<char,std::char_traits<char>,std::allocator<char> > const ,int> > > >::_List_iterator<std::_List_val<std::_List_simple_types<std::pair<std::basic_string<char,std::char_traits<char>,std::allocator<char> > const ,int> > > >
PUBLIC	??1?$pair@$$CBV?$basic_string@DU?$char_traits@D@std@@V?$allocator@D@2@@std@@H@std@@QAE@XZ ; std::pair<std::basic_string<char,std::char_traits<char>,std::allocator<char> > const ,int>::~pair<std::basic_string<char,std::char_traits<char>,std::allocator<char> > const ,int>
PUBLIC	??_G?$pair@$$CBV?$basic_string@DU?$char_traits@D@std@@V?$allocator@D@2@@std@@H@std@@QAEPAXI@Z ; std::pair<std::basic_string<char,std::char_traits<char>,std::allocator<char> > const ,int>::`scalar deleting destructor'
PUBLIC	??$?0HHH@?$vec@$02I$0A@@glm@@QAE@HHH@Z		; glm::vec<3,unsigned int,0>::vec<3,unsigned int,0><int,int,int>
PUBLIC	??$_Max_value@PAD@std@@YAABQADABQAD0@Z		; std::_Max_value<char *>
PUBLIC	??$_Unfancy@D@std@@YAPADPAD@Z			; std::_Unfancy<char>
PUBLIC	?pointer_to@?$pointer_traits@PAD@std@@SAPADAAD@Z ; std::pointer_traits<char *>::pointer_to
PUBLIC	??$addressof@V?$basic_stringbuf@DU?$char_traits@D@std@@V?$allocator@D@2@@std@@@std@@YAPAV?$basic_stringbuf@DU?$char_traits@D@std@@V?$allocator@D@2@@0@AAV10@@Z ; std::addressof<std::basic_stringbuf<char,std::char_traits<char>,std::allocator<char> > >
PUBLIC	??$_Try_emplace@ABV?$basic_string@DU?$char_traits@D@std@@V?$allocator@D@2@@std@@$$V@?$_Hash@V?$_Umap_traits@V?$basic_string@DU?$char_traits@D@std@@V?$allocator@D@2@@std@@HV?$_Uhash_compare@V?$basic_string@DU?$char_traits@D@std@@V?$allocator@D@2@@std@@U?$hash@V?$basic_string@DU?$char_traits@D@std@@V?$allocator@D@2@@std@@@2@U?$equal_to@V?$basic_string@DU?$char_traits@D@std@@V?$allocator@D@2@@std@@@2@@2@V?$allocator@U?$pair@$$CBV?$basic_string@DU?$char_traits@D@std@@V?$allocator@D@2@@std@@H@std@@@2@$0A@@std@@@std@@IAE?AU?$pair@PAU?$_List_node@U?$pair@$$CBV?$basic_string@DU?$char_traits@D@std@@V?$allocator@D@2@@std@@H@std@@PAX@std@@_N@1@ABV?$basic_string@DU?$char_traits@D@std@@V?$allocator@D@2@@1@@Z ; std::_Hash<std::_Umap_traits<std::basic_string<char,std::char_traits<char>,std::allocator<char> >,int,std::_Uhash_compare<std::basic_string<char,std::char_traits<char>,std::allocator<char> >,std::hash<std::basic_string<char,std::char_traits<char>,std::allocator<char> > >,std::equal_to<std::basic_string<char,std::char_traits<char>,std::allocator<char> > > >,std::allocator<std::pair<std::basic_string<char,std::char_traits<char>,std::allocator<char> > const ,int> >,0> >::_Try_emplace<std::basic_string<char,std::char_traits<char>,std::allocator<char> > const &>
PUBLIC	?allocate@?$allocator@U_Container_proxy@std@@@std@@QAEPAU_Container_proxy@2@I@Z ; std::allocator<std::_Container_proxy>::allocate
PUBLIC	??$?0V?$_List_unchecked_iterator@V?$_List_val@U?$_List_simple_types@U?$pair@$$CBV?$basic_string@DU?$char_traits@D@std@@V?$allocator@D@2@@std@@H@std@@@std@@@std@@@std@@@?$allocator@U_Container_proxy@std@@@std@@QAE@ABV?$allocator@V?$_List_unchecked_iterator@V?$_List_val@U?$_List_simple_types@U?$pair@$$CBV?$basic_string@DU?$char_traits@D@std@@V?$allocator@D@2@@std@@H@std@@@std@@@std@@@std@@@1@@Z ; std::allocator<std::_Container_proxy>::allocator<std::_Container_proxy><std::_List_unchecked_iterator<std::_List_val<std::_List_simple_types<std::pair<std::basic_string<char,std::char_traits<char>,std::allocator<char> > const ,int> > > > >
PUBLIC	??$exchange@PAU_Container_proxy@std@@$$T@std@@YAPAU_Container_proxy@0@AAPAU10@$$QA$$T@Z ; std::exchange<std::_Container_proxy *,std::nullptr_t>
PUBLIC	??$_Delete_plain_internal@V?$allocator@U_Container_proxy@std@@@std@@@std@@YAXAAV?$allocator@U_Container_proxy@std@@@0@QAU_Container_proxy@0@@Z ; std::_Delete_plain_internal<std::allocator<std::_Container_proxy> >
PUBLIC	??$?0U?$_List_node@U?$pair@$$CBV?$basic_string@DU?$char_traits@D@std@@V?$allocator@D@2@@std@@H@std@@PAX@std@@@?$allocator@U_Container_proxy@std@@@std@@QAE@ABV?$allocator@U?$_List_node@U?$pair@$$CBV?$basic_string@DU?$char_traits@D@std@@V?$allocator@D@2@@std@@H@std@@PAX@std@@@1@@Z ; std::allocator<std::_Container_proxy>::allocator<std::_Container_proxy><std::_List_node<std::pair<std::basic_string<char,std::char_traits<char>,std::allocator<char> > const ,int>,void *> >
PUBLIC	??$_Try_emplace@ABH$$V@?$_Hash@V?$_Umap_traits@HV?$basic_string@DU?$char_traits@D@std@@V?$allocator@D@2@@std@@V?$_Uhash_compare@HU?$hash@H@std@@U?$equal_to@H@2@@2@V?$allocator@U?$pair@$$CBHV?$basic_string@DU?$char_traits@D@std@@V?$allocator@D@2@@std@@@std@@@2@$0A@@std@@@std@@IAE?AU?$pair@PAU?$_List_node@U?$pair@$$CBHV?$basic_string@DU?$char_traits@D@std@@V?$allocator@D@2@@std@@@std@@PAX@std@@_N@1@ABH@Z ; std::_Hash<std::_Umap_traits<int,std::basic_string<char,std::char_traits<char>,std::allocator<char> >,std::_Uhash_compare<int,std::hash<int>,std::equal_to<int> >,std::allocator<std::pair<int const ,std::basic_string<char,std::char_traits<char>,std::allocator<char> > > >,0> >::_Try_emplace<int const &>
PUBLIC	??1?$pair@$$CBHV?$basic_string@DU?$char_traits@D@std@@V?$allocator@D@2@@std@@@std@@QAE@XZ ; std::pair<int const ,std::basic_string<char,std::char_traits<char>,std::allocator<char> > >::~pair<int const ,std::basic_string<char,std::char_traits<char>,std::allocator<char> > >
PUBLIC	??_G?$pair@$$CBHV?$basic_string@DU?$char_traits@D@std@@V?$allocator@D@2@@std@@@std@@QAEPAXI@Z ; std::pair<int const ,std::basic_string<char,std::char_traits<char>,std::allocator<char> > >::`scalar deleting destructor'
PUBLIC	??$?0V?$_List_unchecked_iterator@V?$_List_val@U?$_List_simple_types@U?$pair@$$CBHV?$basic_string@DU?$char_traits@D@std@@V?$allocator@D@2@@std@@@std@@@std@@@std@@@std@@@?$allocator@U_Container_proxy@std@@@std@@QAE@ABV?$allocator@V?$_List_unchecked_iterator@V?$_List_val@U?$_List_simple_types@U?$pair@$$CBHV?$basic_string@DU?$char_traits@D@std@@V?$allocator@D@2@@std@@@std@@@std@@@std@@@std@@@1@@Z ; std::allocator<std::_Container_proxy>::allocator<std::_Container_proxy><std::_List_unchecked_iterator<std::_List_val<std::_List_simple_types<std::pair<int const ,std::basic_string<char,std::char_traits<char>,std::allocator<char> > > > > > >
PUBLIC	??$?0U?$_List_node@U?$pair@$$CBHV?$basic_string@DU?$char_traits@D@std@@V?$allocator@D@2@@std@@@std@@PAX@std@@@?$allocator@U_Container_proxy@std@@@std@@QAE@ABV?$allocator@U?$_List_node@U?$pair@$$CBHV?$basic_string@DU?$char_traits@D@std@@V?$allocator@D@2@@std@@@std@@PAX@std@@@1@@Z ; std::allocator<std::_Container_proxy>::allocator<std::_Container_proxy><std::_List_node<std::pair<int const ,std::basic_string<char,std::char_traits<char>,std::allocator<char> > >,void *> >
PUBLIC	??$?0V?$basic_string@DU?$char_traits@D@std@@V?$allocator@D@2@@std@@@?$allocator@U_Container_proxy@std@@@std@@QAE@ABV?$allocator@V?$basic_string@DU?$char_traits@D@std@@V?$allocator@D@2@@std@@@1@@Z ; std::allocator<std::_Container_proxy>::allocator<std::_Container_proxy><std::basic_string<char,std::char_traits<char>,std::allocator<char> > >
PUBLIC	??$?0$$V@?$_Compressed_pair@V?$allocator@V?$basic_string@DU?$char_traits@D@std@@V?$allocator@D@2@@std@@@std@@V?$_Deque_val@U?$_Deque_simple_types@V?$basic_string@DU?$char_traits@D@std@@V?$allocator@D@2@@std@@@std@@@2@$00@std@@QAE@U_Zero_then_variadic_args_t@1@@Z ; std::_Compressed_pair<std::allocator<std::basic_string<char,std::char_traits<char>,std::allocator<char> > >,std::_Deque_val<std::_Deque_simple_types<std::basic_string<char,std::char_traits<char>,std::allocator<char> > > >,1>::_Compressed_pair<std::allocator<std::basic_string<char,std::char_traits<char>,std::allocator<char> > >,std::_Deque_val<std::_Deque_simple_types<std::basic_string<char,std::char_traits<char>,std::allocator<char> > > >,1><>
PUBLIC	??$_Alloc_proxy@V?$allocator@U_Container_proxy@std@@@std@@@_Container_base12@std@@QAEX$$QAV?$allocator@U_Container_proxy@std@@@1@@Z ; std::_Container_base12::_Alloc_proxy<std::allocator<std::_Container_proxy> >
PUBLIC	??$use_facet@V?$codecvt@DDU_Mbstatet@@@std@@@std@@YAABV?$codecvt@DDU_Mbstatet@@@0@ABVlocale@0@@Z ; std::use_facet<std::codecvt<char,char,_Mbstatet> >
PUBLIC	??$addressof@V?$basic_filebuf@DU?$char_traits@D@std@@@std@@@std@@YAPAV?$basic_filebuf@DU?$char_traits@D@std@@@0@AAV10@@Z ; std::addressof<std::basic_filebuf<char,std::char_traits<char> > >
PUBLIC	??$?0U?$vec@$02I$0A@@glm@@@?$allocator@U_Container_proxy@std@@@std@@QAE@ABV?$allocator@U?$vec@$02I$0A@@glm@@@1@@Z ; std::allocator<std::_Container_proxy>::allocator<std::_Container_proxy><glm::vec<3,unsigned int,0> >
PUBLIC	??$addressof@V?$vector@U?$vec@$02I$0A@@glm@@V?$allocator@U?$vec@$02I$0A@@glm@@@std@@@std@@@std@@YAPAV?$vector@U?$vec@$02I$0A@@glm@@V?$allocator@U?$vec@$02I$0A@@glm@@@std@@@0@AAV10@@Z ; std::addressof<std::vector<glm::vec<3,unsigned int,0>,std::allocator<glm::vec<3,unsigned int,0> > > >
PUBLIC	??$?0V?$allocator@U?$vec@$02I$0A@@glm@@@std@@$$V@?$_Compressed_pair@V?$allocator@U?$vec@$02I$0A@@glm@@@std@@V?$_Vector_val@U?$_Simple_types@U?$vec@$02I$0A@@glm@@@std@@@2@$00@std@@QAE@U_One_then_variadic_args_t@1@$$QAV?$allocator@U?$vec@$02I$0A@@glm@@@1@@Z ; std::_Compressed_pair<std::allocator<glm::vec<3,unsigned int,0> >,std::_Vector_val<std::_Simple_types<glm::vec<3,unsigned int,0> > >,1>::_Compressed_pair<std::allocator<glm::vec<3,unsigned int,0> >,std::_Vector_val<std::_Simple_types<glm::vec<3,unsigned int,0> > >,1><std::allocator<glm::vec<3,unsigned int,0> > >
PUBLIC	??0?$_Container_proxy_ptr12@V?$allocator@U_Container_proxy@std@@@std@@@std@@QAE@AAV?$allocator@U_Container_proxy@std@@@1@AAU_Container_base12@1@@Z ; std::_Container_proxy_ptr12<std::allocator<std::_Container_proxy> >::_Container_proxy_ptr12<std::allocator<std::_Container_proxy> >
PUBLIC	??1?$_Container_proxy_ptr12@V?$allocator@U_Container_proxy@std@@@std@@@std@@QAE@XZ ; std::_Container_proxy_ptr12<std::allocator<std::_Container_proxy> >::~_Container_proxy_ptr12<std::allocator<std::_Container_proxy> >
PUBLIC	??1?$_Tidy_guard@V?$vector@U?$vec@$02I$0A@@glm@@V?$allocator@U?$vec@$02I$0A@@glm@@@std@@@std@@@std@@QAE@XZ ; std::_Tidy_guard<std::vector<glm::vec<3,unsigned int,0>,std::allocator<glm::vec<3,unsigned int,0> > > >::~_Tidy_guard<std::vector<glm::vec<3,unsigned int,0>,std::allocator<glm::vec<3,unsigned int,0> > > >
PUBLIC	??$_Ucopy@PAU?$vec@$02I$0A@@glm@@@?$vector@U?$vec@$02I$0A@@glm@@V?$allocator@U?$vec@$02I$0A@@glm@@@std@@@std@@AAEPAU?$vec@$02I$0A@@glm@@PAU23@00@Z ; std::vector<glm::vec<3,unsigned int,0>,std::allocator<glm::vec<3,unsigned int,0> > >::_Ucopy<glm::vec<3,unsigned int,0> *>
PUBLIC	??$?0ABV?$allocator@U?$vec@$02I$0A@@glm@@@std@@$$V@?$_Compressed_pair@V?$allocator@U?$vec@$02I$0A@@glm@@@std@@V?$_Vector_val@U?$_Simple_types@U?$vec@$02I$0A@@glm@@@std@@@2@$00@std@@QAE@U_One_then_variadic_args_t@1@ABV?$allocator@U?$vec@$02I$0A@@glm@@@1@@Z ; std::_Compressed_pair<std::allocator<glm::vec<3,unsigned int,0> >,std::_Vector_val<std::_Simple_types<glm::vec<3,unsigned int,0> > >,1>::_Compressed_pair<std::allocator<glm::vec<3,unsigned int,0> >,std::_Vector_val<std::_Simple_types<glm::vec<3,unsigned int,0> > >,1><std::allocator<glm::vec<3,unsigned int,0> > const &>
PUBLIC	??$_Construct_n_copies_of_ty@U_Value_init_tag@std@@@?$vector@U?$vec@$02I$0A@@glm@@V?$allocator@U?$vec@$02I$0A@@glm@@@std@@@std@@AAEXIABU_Value_init_tag@1@@Z ; std::vector<glm::vec<3,unsigned int,0>,std::allocator<glm::vec<3,unsigned int,0> > >::_Construct_n_copies_of_ty<std::_Value_init_tag>
PUBLIC	??$?0$$V@?$_Compressed_pair@V?$allocator@U?$vec@$02I$0A@@glm@@@std@@V?$_Vector_val@U?$_Simple_types@U?$vec@$02I$0A@@glm@@@std@@@2@$00@std@@QAE@U_Zero_then_variadic_args_t@1@@Z ; std::_Compressed_pair<std::allocator<glm::vec<3,unsigned int,0> >,std::_Vector_val<std::_Simple_types<glm::vec<3,unsigned int,0> > >,1>::_Compressed_pair<std::allocator<glm::vec<3,unsigned int,0> >,std::_Vector_val<std::_Simple_types<glm::vec<3,unsigned int,0> > >,1><>
PUBLIC	??$emplace_back@ABU?$vec@$01M$0A@@glm@@@?$vector@U?$vec@$01M$0A@@glm@@V?$allocator@U?$vec@$01M$0A@@glm@@@std@@@std@@QAE@ABU?$vec@$01M$0A@@glm@@@Z ; std::vector<glm::vec<2,float,0>,std::allocator<glm::vec<2,float,0> > >::emplace_back<glm::vec<2,float,0> const &>
PUBLIC	??$forward@ABU?$vec@$01M$0A@@glm@@@std@@YAABU?$vec@$01M$0A@@glm@@ABU12@@Z ; std::forward<glm::vec<2,float,0> const &>
PUBLIC	??$_Emplace_back_with_unused_capacity@ABU?$vec@$01M$0A@@glm@@@?$vector@U?$vec@$01M$0A@@glm@@V?$allocator@U?$vec@$01M$0A@@glm@@@std@@@std@@AAE@ABU?$vec@$01M$0A@@glm@@@Z ; std::vector<glm::vec<2,float,0>,std::allocator<glm::vec<2,float,0> > >::_Emplace_back_with_unused_capacity<glm::vec<2,float,0> const &>
PUBLIC	??$_Unfancy@U?$vec@$01M$0A@@glm@@@std@@YAPAU?$vec@$01M$0A@@glm@@PAU12@@Z ; std::_Unfancy<glm::vec<2,float,0> >
PUBLIC	??$construct@U?$vec@$01M$0A@@glm@@ABU12@@?$_Default_allocator_traits@V?$allocator@U?$vec@$01M$0A@@glm@@@std@@@std@@SAXAAV?$allocator@U?$vec@$01M$0A@@glm@@@1@QAU?$vec@$01M$0A@@glm@@ABU34@@Z ; std::_Default_allocator_traits<std::allocator<glm::vec<2,float,0> > >::construct<glm::vec<2,float,0>,glm::vec<2,float,0> const &>
PUBLIC	??$_Emplace_reallocate@ABU?$vec@$01M$0A@@glm@@@?$vector@U?$vec@$01M$0A@@glm@@V?$allocator@U?$vec@$01M$0A@@glm@@@std@@@std@@QAEPAU?$vec@$01M$0A@@glm@@QAU23@ABU23@@Z ; std::vector<glm::vec<2,float,0>,std::allocator<glm::vec<2,float,0> > >::_Emplace_reallocate<glm::vec<2,float,0> const &>
PUBLIC	??$?0U?$vec@$01M$0A@@glm@@@?$allocator@U_Container_proxy@std@@@std@@QAE@ABV?$allocator@U?$vec@$01M$0A@@glm@@@1@@Z ; std::allocator<std::_Container_proxy>::allocator<std::_Container_proxy><glm::vec<2,float,0> >
PUBLIC	??$addressof@V?$vector@U?$vec@$01M$0A@@glm@@V?$allocator@U?$vec@$01M$0A@@glm@@@std@@@std@@@std@@YAPAV?$vector@U?$vec@$01M$0A@@glm@@V?$allocator@U?$vec@$01M$0A@@glm@@@std@@@0@AAV10@@Z ; std::addressof<std::vector<glm::vec<2,float,0>,std::allocator<glm::vec<2,float,0> > > >
PUBLIC	??$move@AAV?$allocator@U?$vec@$01M$0A@@glm@@@std@@@std@@YA$$QAV?$allocator@U?$vec@$01M$0A@@glm@@@0@AAV10@@Z ; std::move<std::allocator<glm::vec<2,float,0> > &>
PUBLIC	??$?0V?$allocator@U?$vec@$01M$0A@@glm@@@std@@$$V@?$_Compressed_pair@V?$allocator@U?$vec@$01M$0A@@glm@@@std@@V?$_Vector_val@U?$_Simple_types@U?$vec@$01M$0A@@glm@@@std@@@2@$00@std@@QAE@U_One_then_variadic_args_t@1@$$QAV?$allocator@U?$vec@$01M$0A@@glm@@@1@@Z ; std::_Compressed_pair<std::allocator<glm::vec<2,float,0> >,std::_Vector_val<std::_Simple_types<glm::vec<2,float,0> > >,1>::_Compressed_pair<std::allocator<glm::vec<2,float,0> >,std::_Vector_val<std::_Simple_types<glm::vec<2,float,0> > >,1><std::allocator<glm::vec<2,float,0> > >
PUBLIC	??1?$_Tidy_guard@V?$vector@U?$vec@$01M$0A@@glm@@V?$allocator@U?$vec@$01M$0A@@glm@@@std@@@std@@@std@@QAE@XZ ; std::_Tidy_guard<std::vector<glm::vec<2,float,0>,std::allocator<glm::vec<2,float,0> > > >::~_Tidy_guard<std::vector<glm::vec<2,float,0>,std::allocator<glm::vec<2,float,0> > > >
PUBLIC	??$_Ucopy@PAU?$vec@$01M$0A@@glm@@@?$vector@U?$vec@$01M$0A@@glm@@V?$allocator@U?$vec@$01M$0A@@glm@@@std@@@std@@AAEPAU?$vec@$01M$0A@@glm@@PAU23@00@Z ; std::vector<glm::vec<2,float,0>,std::allocator<glm::vec<2,float,0> > >::_Ucopy<glm::vec<2,float,0> *>
PUBLIC	??$?0ABV?$allocator@U?$vec@$01M$0A@@glm@@@std@@$$V@?$_Compressed_pair@V?$allocator@U?$vec@$01M$0A@@glm@@@std@@V?$_Vector_val@U?$_Simple_types@U?$vec@$01M$0A@@glm@@@std@@@2@$00@std@@QAE@U_One_then_variadic_args_t@1@ABV?$allocator@U?$vec@$01M$0A@@glm@@@1@@Z ; std::_Compressed_pair<std::allocator<glm::vec<2,float,0> >,std::_Vector_val<std::_Simple_types<glm::vec<2,float,0> > >,1>::_Compressed_pair<std::allocator<glm::vec<2,float,0> >,std::_Vector_val<std::_Simple_types<glm::vec<2,float,0> > >,1><std::allocator<glm::vec<2,float,0> > const &>
PUBLIC	??$_Construct_n_copies_of_ty@U_Value_init_tag@std@@@?$vector@U?$vec@$01M$0A@@glm@@V?$allocator@U?$vec@$01M$0A@@glm@@@std@@@std@@AAEXIABU_Value_init_tag@1@@Z ; std::vector<glm::vec<2,float,0>,std::allocator<glm::vec<2,float,0> > >::_Construct_n_copies_of_ty<std::_Value_init_tag>
PUBLIC	??$?0$$V@?$_Compressed_pair@V?$allocator@U?$vec@$01M$0A@@glm@@@std@@V?$_Vector_val@U?$_Simple_types@U?$vec@$01M$0A@@glm@@@std@@@2@$00@std@@QAE@U_Zero_then_variadic_args_t@1@@Z ; std::_Compressed_pair<std::allocator<glm::vec<2,float,0> >,std::_Vector_val<std::_Simple_types<glm::vec<2,float,0> > >,1>::_Compressed_pair<std::allocator<glm::vec<2,float,0> >,std::_Vector_val<std::_Simple_types<glm::vec<2,float,0> > >,1><>
PUBLIC	??$emplace_back@ABU?$vec@$02M$0A@@glm@@@?$vector@U?$vec@$02M$0A@@glm@@V?$allocator@U?$vec@$02M$0A@@glm@@@std@@@std@@QAE@ABU?$vec@$02M$0A@@glm@@@Z ; std::vector<glm::vec<3,float,0>,std::allocator<glm::vec<3,float,0> > >::emplace_back<glm::vec<3,float,0> const &>
PUBLIC	??$forward@ABU?$vec@$02M$0A@@glm@@@std@@YAABU?$vec@$02M$0A@@glm@@ABU12@@Z ; std::forward<glm::vec<3,float,0> const &>
PUBLIC	??$_Emplace_back_with_unused_capacity@ABU?$vec@$02M$0A@@glm@@@?$vector@U?$vec@$02M$0A@@glm@@V?$allocator@U?$vec@$02M$0A@@glm@@@std@@@std@@AAE@ABU?$vec@$02M$0A@@glm@@@Z ; std::vector<glm::vec<3,float,0>,std::allocator<glm::vec<3,float,0> > >::_Emplace_back_with_unused_capacity<glm::vec<3,float,0> const &>
PUBLIC	??$_Unfancy@U?$vec@$02M$0A@@glm@@@std@@YAPAU?$vec@$02M$0A@@glm@@PAU12@@Z ; std::_Unfancy<glm::vec<3,float,0> >
PUBLIC	??$construct@U?$vec@$02M$0A@@glm@@ABU12@@?$_Default_allocator_traits@V?$allocator@U?$vec@$02M$0A@@glm@@@std@@@std@@SAXAAV?$allocator@U?$vec@$02M$0A@@glm@@@1@QAU?$vec@$02M$0A@@glm@@ABU34@@Z ; std::_Default_allocator_traits<std::allocator<glm::vec<3,float,0> > >::construct<glm::vec<3,float,0>,glm::vec<3,float,0> const &>
PUBLIC	??$_Emplace_reallocate@ABU?$vec@$02M$0A@@glm@@@?$vector@U?$vec@$02M$0A@@glm@@V?$allocator@U?$vec@$02M$0A@@glm@@@std@@@std@@QAEPAU?$vec@$02M$0A@@glm@@QAU23@ABU23@@Z ; std::vector<glm::vec<3,float,0>,std::allocator<glm::vec<3,float,0> > >::_Emplace_reallocate<glm::vec<3,float,0> const &>
PUBLIC	??$?0U?$vec@$02M$0A@@glm@@@?$allocator@U_Container_proxy@std@@@std@@QAE@ABV?$allocator@U?$vec@$02M$0A@@glm@@@1@@Z ; std::allocator<std::_Container_proxy>::allocator<std::_Container_proxy><glm::vec<3,float,0> >
PUBLIC	??$addressof@V?$vector@U?$vec@$02M$0A@@glm@@V?$allocator@U?$vec@$02M$0A@@glm@@@std@@@std@@@std@@YAPAV?$vector@U?$vec@$02M$0A@@glm@@V?$allocator@U?$vec@$02M$0A@@glm@@@std@@@0@AAV10@@Z ; std::addressof<std::vector<glm::vec<3,float,0>,std::allocator<glm::vec<3,float,0> > > >
PUBLIC	??$move@AAV?$allocator@U?$vec@$02M$0A@@glm@@@std@@@std@@YA$$QAV?$allocator@U?$vec@$02M$0A@@glm@@@0@AAV10@@Z ; std::move<std::allocator<glm::vec<3,float,0> > &>
PUBLIC	??$?0V?$allocator@U?$vec@$02M$0A@@glm@@@std@@$$V@?$_Compressed_pair@V?$allocator@U?$vec@$02M$0A@@glm@@@std@@V?$_Vector_val@U?$_Simple_types@U?$vec@$02M$0A@@glm@@@std@@@2@$00@std@@QAE@U_One_then_variadic_args_t@1@$$QAV?$allocator@U?$vec@$02M$0A@@glm@@@1@@Z ; std::_Compressed_pair<std::allocator<glm::vec<3,float,0> >,std::_Vector_val<std::_Simple_types<glm::vec<3,float,0> > >,1>::_Compressed_pair<std::allocator<glm::vec<3,float,0> >,std::_Vector_val<std::_Simple_types<glm::vec<3,float,0> > >,1><std::allocator<glm::vec<3,float,0> > >
PUBLIC	??1?$_Tidy_guard@V?$vector@U?$vec@$02M$0A@@glm@@V?$allocator@U?$vec@$02M$0A@@glm@@@std@@@std@@@std@@QAE@XZ ; std::_Tidy_guard<std::vector<glm::vec<3,float,0>,std::allocator<glm::vec<3,float,0> > > >::~_Tidy_guard<std::vector<glm::vec<3,float,0>,std::allocator<glm::vec<3,float,0> > > >
PUBLIC	??$_Ucopy@PAU?$vec@$02M$0A@@glm@@@?$vector@U?$vec@$02M$0A@@glm@@V?$allocator@U?$vec@$02M$0A@@glm@@@std@@@std@@AAEPAU?$vec@$02M$0A@@glm@@PAU23@00@Z ; std::vector<glm::vec<3,float,0>,std::allocator<glm::vec<3,float,0> > >::_Ucopy<glm::vec<3,float,0> *>
PUBLIC	??$?0ABV?$allocator@U?$vec@$02M$0A@@glm@@@std@@$$V@?$_Compressed_pair@V?$allocator@U?$vec@$02M$0A@@glm@@@std@@V?$_Vector_val@U?$_Simple_types@U?$vec@$02M$0A@@glm@@@std@@@2@$00@std@@QAE@U_One_then_variadic_args_t@1@ABV?$allocator@U?$vec@$02M$0A@@glm@@@1@@Z ; std::_Compressed_pair<std::allocator<glm::vec<3,float,0> >,std::_Vector_val<std::_Simple_types<glm::vec<3,float,0> > >,1>::_Compressed_pair<std::allocator<glm::vec<3,float,0> >,std::_Vector_val<std::_Simple_types<glm::vec<3,float,0> > >,1><std::allocator<glm::vec<3,float,0> > const &>
PUBLIC	??$_Construct_n_copies_of_ty@U_Value_init_tag@std@@@?$vector@U?$vec@$02M$0A@@glm@@V?$allocator@U?$vec@$02M$0A@@glm@@@std@@@std@@AAEXIABU_Value_init_tag@1@@Z ; std::vector<glm::vec<3,float,0>,std::allocator<glm::vec<3,float,0> > >::_Construct_n_copies_of_ty<std::_Value_init_tag>
PUBLIC	??$?0$$V@?$_Compressed_pair@V?$allocator@U?$vec@$02M$0A@@glm@@@std@@V?$_Vector_val@U?$_Simple_types@U?$vec@$02M$0A@@glm@@@std@@@2@$00@std@@QAE@U_Zero_then_variadic_args_t@1@@Z ; std::_Compressed_pair<std::allocator<glm::vec<3,float,0> >,std::_Vector_val<std::_Simple_types<glm::vec<3,float,0> > >,1>::_Compressed_pair<std::allocator<glm::vec<3,float,0> >,std::_Vector_val<std::_Simple_types<glm::vec<3,float,0> > >,1><>
PUBLIC	?zero@?$duration_values@_J@chrono@std@@SA_JXZ	; std::chrono::duration_values<__int64>::zero
PUBLIC	??0_Sentry_base@?$basic_ostream@DU?$char_traits@D@std@@@std@@QAE@AAV12@@Z ; std::basic_ostream<char,std::char_traits<char> >::_Sentry_base::_Sentry_base
PUBLIC	??1_Sentry_base@?$basic_ostream@DU?$char_traits@D@std@@@std@@QAE@XZ ; std::basic_ostream<char,std::char_traits<char> >::_Sentry_base::~_Sentry_base
PUBLIC	??0sentry@?$basic_ostream@DU?$char_traits@D@std@@@std@@QAE@AAV12@@Z ; std::basic_ostream<char,std::char_traits<char> >::sentry::sentry
PUBLIC	??1sentry@?$basic_ostream@DU?$char_traits@D@std@@@std@@QAE@XZ ; std::basic_ostream<char,std::char_traits<char> >::sentry::~sentry
PUBLIC	??Bsentry@?$basic_ostream@DU?$char_traits@D@std@@@std@@QBE_NXZ ; std::basic_ostream<char,std::char_traits<char> >::sentry::operator bool
PUBLIC	??$move@AAV?$basic_string@DU?$char_traits@D@std@@V?$allocator@D@2@@std@@@std@@YA$$QAV?$basic_string@DU?$char_traits@D@std@@V?$allocator@D@2@@0@AAV10@@Z ; std::move<std::basic_string<char,std::char_traits<char>,std::allocator<char> > &>
PUBLIC	??$addressof@$$CBV?$basic_string@DU?$char_traits@D@std@@V?$allocator@D@2@@std@@@std@@YAPBV?$basic_string@DU?$char_traits@D@std@@V?$allocator@D@2@@0@ABV10@@Z ; std::addressof<std::basic_string<char,std::char_traits<char>,std::allocator<char> > const >
PUBLIC	??$?0D@?$allocator@U_Container_proxy@std@@@std@@QAE@ABV?$allocator@D@1@@Z ; std::allocator<std::_Container_proxy>::allocator<std::_Container_proxy><char>
PUBLIC	??$addressof@V?$basic_string@DU?$char_traits@D@std@@V?$allocator@D@2@@std@@@std@@YAPAV?$basic_string@DU?$char_traits@D@std@@V?$allocator@D@2@@0@AAV10@@Z ; std::addressof<std::basic_string<char,std::char_traits<char>,std::allocator<char> > >
PUBLIC	??$move@AAV?$allocator@D@std@@@std@@YA$$QAV?$allocator@D@0@AAV10@@Z ; std::move<std::allocator<char> &>
PUBLIC	??$?0V?$allocator@D@std@@$$V@?$_Compressed_pair@V?$allocator@D@std@@V?$_String_val@U?$_Simple_types@D@std@@@2@$00@std@@QAE@U_One_then_variadic_args_t@1@$$QAV?$allocator@D@1@@Z ; std::_Compressed_pair<std::allocator<char>,std::_String_val<std::_Simple_types<char> >,1>::_Compressed_pair<std::allocator<char>,std::_String_val<std::_Simple_types<char> >,1><std::allocator<char> >
PUBLIC	??$?0$$V@?$_Compressed_pair@V?$allocator@D@std@@V?$_String_val@U?$_Simple_types@D@std@@@2@$00@std@@QAE@U_Zero_then_variadic_args_t@1@@Z ; std::_Compressed_pair<std::allocator<char>,std::_String_val<std::_Simple_types<char> >,1>::_Compressed_pair<std::allocator<char>,std::_String_val<std::_Simple_types<char> >,1><>
PUBLIC	??$_Unfancy@U_Container_proxy@std@@@std@@YAPAU_Container_proxy@0@PAU10@@Z ; std::_Unfancy<std::_Container_proxy>
PUBLIC	??$addressof@D@std@@YAPADAAD@Z			; std::addressof<char>
PUBLIC	??0?$_List_unchecked_const_iterator@V?$_List_val@U?$_List_simple_types@U?$pair@$$CBV?$basic_string@DU?$char_traits@D@std@@V?$allocator@D@2@@std@@H@std@@@std@@@std@@U_Iterator_base0@2@@std@@QAE@PAU?$_List_node@U?$pair@$$CBV?$basic_string@DU?$char_traits@D@std@@V?$allocator@D@2@@std@@H@std@@PAX@1@PBV?$_List_val@U?$_List_simple_types@U?$pair@$$CBV?$basic_string@DU?$char_traits@D@std@@V?$allocator@D@2@@std@@H@std@@@std@@@1@@Z ; std::_List_unchecked_const_iterator<std::_List_val<std::_List_simple_types<std::pair<std::basic_string<char,std::char_traits<char>,std::allocator<char> > const ,int> > >,std::_Iterator_base0>::_List_unchecked_const_iterator<std::_List_val<std::_List_simple_types<std::pair<std::basic_string<char,std::char_traits<char>,std::allocator<char> > const ,int> > >,std::_Iterator_base0>
PUBLIC	??D?$_List_unchecked_const_iterator@V?$_List_val@U?$_List_simple_types@U?$pair@$$CBV?$basic_string@DU?$char_traits@D@std@@V?$allocator@D@2@@std@@H@std@@@std@@@std@@U_Iterator_base0@2@@std@@QBEABU?$pair@$$CBV?$basic_string@DU?$char_traits@D@std@@V?$allocator@D@2@@std@@H@1@XZ ; std::_List_unchecked_const_iterator<std::_List_val<std::_List_simple_types<std::pair<std::basic_string<char,std::char_traits<char>,std::allocator<char> > const ,int> > >,std::_Iterator_base0>::operator*
PUBLIC	??E?$_List_unchecked_const_iterator@V?$_List_val@U?$_List_simple_types@U?$pair@$$CBV?$basic_string@DU?$char_traits@D@std@@V?$allocator@D@2@@std@@H@std@@@std@@@std@@U_Iterator_base0@2@@std@@QAEAAV01@XZ ; std::_List_unchecked_const_iterator<std::_List_val<std::_List_simple_types<std::pair<std::basic_string<char,std::char_traits<char>,std::allocator<char> > const ,int> > >,std::_Iterator_base0>::operator++
PUBLIC	??F?$_List_unchecked_const_iterator@V?$_List_val@U?$_List_simple_types@U?$pair@$$CBV?$basic_string@DU?$char_traits@D@std@@V?$allocator@D@2@@std@@H@std@@@std@@@std@@U_Iterator_base0@2@@std@@QAEAAV01@XZ ; std::_List_unchecked_const_iterator<std::_List_val<std::_List_simple_types<std::pair<std::basic_string<char,std::char_traits<char>,std::allocator<char> > const ,int> > >,std::_Iterator_base0>::operator--
PUBLIC	??8?$_List_unchecked_const_iterator@V?$_List_val@U?$_List_simple_types@U?$pair@$$CBV?$basic_string@DU?$char_traits@D@std@@V?$allocator@D@2@@std@@H@std@@@std@@@std@@U_Iterator_base0@2@@std@@QBE_NABV01@@Z ; std::_List_unchecked_const_iterator<std::_List_val<std::_List_simple_types<std::pair<std::basic_string<char,std::char_traits<char>,std::allocator<char> > const ,int> > >,std::_Iterator_base0>::operator==
PUBLIC	??9?$_List_unchecked_const_iterator@V?$_List_val@U?$_List_simple_types@U?$pair@$$CBV?$basic_string@DU?$char_traits@D@std@@V?$allocator@D@2@@std@@H@std@@@std@@@std@@U_Iterator_base0@2@@std@@QBE_NABV01@@Z ; std::_List_unchecked_const_iterator<std::_List_val<std::_List_simple_types<std::pair<std::basic_string<char,std::char_traits<char>,std::allocator<char> > const ,int> > >,std::_Iterator_base0>::operator!=
PUBLIC	?__autoclassinit2@?$_List_unchecked_const_iterator@V?$_List_val@U?$_List_simple_types@U?$pair@$$CBV?$basic_string@DU?$char_traits@D@std@@V?$allocator@D@2@@std@@H@std@@@std@@@std@@U_Iterator_base0@2@@std@@QAEXI@Z ; std::_List_unchecked_const_iterator<std::_List_val<std::_List_simple_types<std::pair<std::basic_string<char,std::char_traits<char>,std::allocator<char> > const ,int> > >,std::_Iterator_base0>::__autoclassinit2
PUBLIC	??D?$_List_unchecked_iterator@V?$_List_val@U?$_List_simple_types@U?$pair@$$CBV?$basic_string@DU?$char_traits@D@std@@V?$allocator@D@2@@std@@H@std@@@std@@@std@@@std@@QBEAAU?$pair@$$CBV?$basic_string@DU?$char_traits@D@std@@V?$allocator@D@2@@std@@H@1@XZ ; std::_List_unchecked_iterator<std::_List_val<std::_List_simple_types<std::pair<std::basic_string<char,std::char_traits<char>,std::allocator<char> > const ,int> > > >::operator*
PUBLIC	??E?$_List_unchecked_iterator@V?$_List_val@U?$_List_simple_types@U?$pair@$$CBV?$basic_string@DU?$char_traits@D@std@@V?$allocator@D@2@@std@@H@std@@@std@@@std@@@std@@QAEAAV01@XZ ; std::_List_unchecked_iterator<std::_List_val<std::_List_simple_types<std::pair<std::basic_string<char,std::char_traits<char>,std::allocator<char> > const ,int> > > >::operator++
PUBLIC	?__autoclassinit2@?$_List_unchecked_iterator@V?$_List_val@U?$_List_simple_types@U?$pair@$$CBV?$basic_string@DU?$char_traits@D@std@@V?$allocator@D@2@@std@@H@std@@@std@@@std@@@std@@QAEXI@Z ; std::_List_unchecked_iterator<std::_List_val<std::_List_simple_types<std::pair<std::basic_string<char,std::char_traits<char>,std::allocator<char> > const ,int> > > >::__autoclassinit2
PUBLIC	??0?$_List_unchecked_iterator@V?$_List_val@U?$_List_simple_types@U?$pair@$$CBV?$basic_string@DU?$char_traits@D@std@@V?$allocator@D@2@@std@@H@std@@@std@@@std@@@std@@QAE@PAU?$_List_node@U?$pair@$$CBV?$basic_string@DU?$char_traits@D@std@@V?$allocator@D@2@@std@@H@std@@PAX@1@PBV?$_List_val@U?$_List_simple_types@U?$pair@$$CBV?$basic_string@DU?$char_traits@D@std@@V?$allocator@D@2@@std@@H@std@@@std@@@1@@Z ; std::_List_unchecked_iterator<std::_List_val<std::_List_simple_types<std::pair<std::basic_string<char,std::char_traits<char>,std::allocator<char> > const ,int> > > >::_List_unchecked_iterator<std::_List_val<std::_List_simple_types<std::pair<std::basic_string<char,std::char_traits<char>,std::allocator<char> > const ,int> > > >
PUBLIC	??$_Destroy_range@PAV?$_List_unchecked_iterator@V?$_List_val@U?$_List_simple_types@U?$pair@$$CBV?$basic_string@DU?$char_traits@D@std@@V?$allocator@D@2@@std@@H@std@@@std@@@std@@@std@@@std@@YAXPAV?$_List_unchecked_iterator@V?$_List_val@U?$_List_simple_types@U?$pair@$$CBV?$basic_string@DU?$char_traits@D@std@@V?$allocator@D@2@@std@@H@std@@@std@@@std@@@0@QAV10@@Z ; std::_Destroy_range<std::_List_unchecked_iterator<std::_List_val<std::_List_simple_types<std::pair<std::basic_string<char,std::char_traits<char>,std::allocator<char> > const ,int> > > > *>
PUBLIC	??$?0ABV?$allocator@U?$pair@$$CBV?$basic_string@DU?$char_traits@D@std@@V?$allocator@D@2@@std@@H@std@@@std@@$0A@@?$_Hash_vec@V?$allocator@V?$_List_unchecked_iterator@V?$_List_val@U?$_List_simple_types@U?$pair@$$CBV?$basic_string@DU?$char_traits@D@std@@V?$allocator@D@2@@std@@H@std@@@std@@@std@@@std@@@std@@@std@@QAE@ABV?$allocator@U?$pair@$$CBV?$basic_string@DU?$char_traits@D@std@@V?$allocator@D@2@@std@@H@std@@@1@@Z ; std::_Hash_vec<std::allocator<std::_List_unchecked_iterator<std::_List_val<std::_List_simple_types<std::pair<std::basic_string<char,std::char_traits<char>,std::allocator<char> > const ,int> > > > > >::_Hash_vec<std::allocator<std::_List_unchecked_iterator<std::_List_val<std::_List_simple_types<std::pair<std::basic_string<char,std::char_traits<char>,std::allocator<char> > const ,int> > > > > ><std::allocator<std::pair<std::basic_string<char,std::char_traits<char>,std::allocator<char> > const ,int> > const &,0>
PUBLIC	??$_Free_non_head@V?$allocator@U?$_List_node@U?$pair@$$CBV?$basic_string@DU?$char_traits@D@std@@V?$allocator@D@2@@std@@H@std@@PAX@std@@@std@@@?$_List_node@U?$pair@$$CBV?$basic_string@DU?$char_traits@D@std@@V?$allocator@D@2@@std@@H@std@@PAX@std@@SAXAAV?$allocator@U?$_List_node@U?$pair@$$CBV?$basic_string@DU?$char_traits@D@std@@V?$allocator@D@2@@std@@H@std@@PAX@std@@@1@PAU01@@Z ; std::_List_node<std::pair<std::basic_string<char,std::char_traits<char>,std::allocator<char> > const ,int>,void *>::_Free_non_head<std::allocator<std::_List_node<std::pair<std::basic_string<char,std::char_traits<char>,std::allocator<char> > const ,int>,void *> > >
PUBLIC	??$_Freenode0@V?$allocator@U?$_List_node@U?$pair@$$CBV?$basic_string@DU?$char_traits@D@std@@V?$allocator@D@2@@std@@H@std@@PAX@std@@@std@@@?$_List_node@U?$pair@$$CBV?$basic_string@DU?$char_traits@D@std@@V?$allocator@D@2@@std@@H@std@@PAX@std@@SAXAAV?$allocator@U?$_List_node@U?$pair@$$CBV?$basic_string@DU?$char_traits@D@std@@V?$allocator@D@2@@std@@H@std@@PAX@std@@@1@PAU01@@Z ; std::_List_node<std::pair<std::basic_string<char,std::char_traits<char>,std::allocator<char> > const ,int>,void *>::_Freenode0<std::allocator<std::_List_node<std::pair<std::basic_string<char,std::char_traits<char>,std::allocator<char> > const ,int>,void *> > >
PUBLIC	??$addressof@V?$_List_val@U?$_List_simple_types@U?$pair@$$CBV?$basic_string@DU?$char_traits@D@std@@V?$allocator@D@2@@std@@H@std@@@std@@@std@@@std@@YAPAV?$_List_val@U?$_List_simple_types@U?$pair@$$CBV?$basic_string@DU?$char_traits@D@std@@V?$allocator@D@2@@std@@H@std@@@std@@@0@AAV10@@Z ; std::addressof<std::_List_val<std::_List_simple_types<std::pair<std::basic_string<char,std::char_traits<char>,std::allocator<char> > const ,int> > > >
PUBLIC	??$?0U_Zero_then_variadic_args_t@std@@M@?$_Compressed_pair@U?$hash@V?$basic_string@DU?$char_traits@D@std@@V?$allocator@D@2@@std@@@std@@V?$_Compressed_pair@U?$equal_to@V?$basic_string@DU?$char_traits@D@std@@V?$allocator@D@2@@std@@@std@@M$00@2@$00@std@@QAE@U_Zero_then_variadic_args_t@1@$$QAU21@$$QAM@Z ; std::_Compressed_pair<std::hash<std::basic_string<char,std::char_traits<char>,std::allocator<char> > >,std::_Compressed_pair<std::equal_to<std::basic_string<char,std::char_traits<char>,std::allocator<char> > >,float,1>,1>::_Compressed_pair<std::hash<std::basic_string<char,std::char_traits<char>,std::allocator<char> > >,std::_Compressed_pair<std::equal_to<std::basic_string<char,std::char_traits<char>,std::allocator<char> > >,float,1>,1><std::_Zero_then_variadic_args_t,float>
PUBLIC	??$?0M@?$_Compressed_pair@U?$equal_to@V?$basic_string@DU?$char_traits@D@std@@V?$allocator@D@2@@std@@@std@@M$00@std@@QAE@U_Zero_then_variadic_args_t@1@$$QAM@Z ; std::_Compressed_pair<std::equal_to<std::basic_string<char,std::char_traits<char>,std::allocator<char> > >,float,1>::_Compressed_pair<std::equal_to<std::basic_string<char,std::char_traits<char>,std::allocator<char> > >,float,1><float>
PUBLIC	??0?$_List_unchecked_const_iterator@V?$_List_val@U?$_List_simple_types@U?$pair@$$CBHV?$basic_string@DU?$char_traits@D@std@@V?$allocator@D@2@@std@@@std@@@std@@@std@@U_Iterator_base0@2@@std@@QAE@PAU?$_List_node@U?$pair@$$CBHV?$basic_string@DU?$char_traits@D@std@@V?$allocator@D@2@@std@@@std@@PAX@1@PBV?$_List_val@U?$_List_simple_types@U?$pair@$$CBHV?$basic_string@DU?$char_traits@D@std@@V?$allocator@D@2@@std@@@std@@@std@@@1@@Z ; std::_List_unchecked_const_iterator<std::_List_val<std::_List_simple_types<std::pair<int const ,std::basic_string<char,std::char_traits<char>,std::allocator<char> > > > >,std::_Iterator_base0>::_List_unchecked_const_iterator<std::_List_val<std::_List_simple_types<std::pair<int const ,std::basic_string<char,std::char_traits<char>,std::allocator<char> > > > >,std::_Iterator_base0>
PUBLIC	??D?$_List_unchecked_const_iterator@V?$_List_val@U?$_List_simple_types@U?$pair@$$CBHV?$basic_string@DU?$char_traits@D@std@@V?$allocator@D@2@@std@@@std@@@std@@@std@@U_Iterator_base0@2@@std@@QBEABU?$pair@$$CBHV?$basic_string@DU?$char_traits@D@std@@V?$allocator@D@2@@std@@@1@XZ ; std::_List_unchecked_const_iterator<std::_List_val<std::_List_simple_types<std::pair<int const ,std::basic_string<char,std::char_traits<char>,std::allocator<char> > > > >,std::_Iterator_base0>::operator*
PUBLIC	??E?$_List_unchecked_const_iterator@V?$_List_val@U?$_List_simple_types@U?$pair@$$CBHV?$basic_string@DU?$char_traits@D@std@@V?$allocator@D@2@@std@@@std@@@std@@@std@@U_Iterator_base0@2@@std@@QAEAAV01@XZ ; std::_List_unchecked_const_iterator<std::_List_val<std::_List_simple_types<std::pair<int const ,std::basic_string<char,std::char_traits<char>,std::allocator<char> > > > >,std::_Iterator_base0>::operator++
PUBLIC	??F?$_List_unchecked_const_iterator@V?$_List_val@U?$_List_simple_types@U?$pair@$$CBHV?$basic_string@DU?$char_traits@D@std@@V?$allocator@D@2@@std@@@std@@@std@@@std@@U_Iterator_base0@2@@std@@QAEAAV01@XZ ; std::_List_unchecked_const_iterator<std::_List_val<std::_List_simple_types<std::pair<int const ,std::basic_string<char,std::char_traits<char>,std::allocator<char> > > > >,std::_Iterator_base0>::operator--
PUBLIC	??8?$_List_unchecked_const_iterator@V?$_List_val@U?$_List_simple_types@U?$pair@$$CBHV?$basic_string@DU?$char_traits@D@std@@V?$allocator@D@2@@std@@@std@@@std@@@std@@U_Iterator_base0@2@@std@@QBE_NABV01@@Z ; std::_List_unchecked_const_iterator<std::_List_val<std::_List_simple_types<std::pair<int const ,std::basic_string<char,std::char_traits<char>,std::allocator<char> > > > >,std::_Iterator_base0>::operator==
PUBLIC	??9?$_List_unchecked_const_iterator@V?$_List_val@U?$_List_simple_types@U?$pair@$$CBHV?$basic_string@DU?$char_traits@D@std@@V?$allocator@D@2@@std@@@std@@@std@@@std@@U_Iterator_base0@2@@std@@QBE_NABV01@@Z ; std::_List_unchecked_const_iterator<std::_List_val<std::_List_simple_types<std::pair<int const ,std::basic_string<char,std::char_traits<char>,std::allocator<char> > > > >,std::_Iterator_base0>::operator!=
PUBLIC	?__autoclassinit2@?$_List_unchecked_const_iterator@V?$_List_val@U?$_List_simple_types@U?$pair@$$CBHV?$basic_string@DU?$char_traits@D@std@@V?$allocator@D@2@@std@@@std@@@std@@@std@@U_Iterator_base0@2@@std@@QAEXI@Z ; std::_List_unchecked_const_iterator<std::_List_val<std::_List_simple_types<std::pair<int const ,std::basic_string<char,std::char_traits<char>,std::allocator<char> > > > >,std::_Iterator_base0>::__autoclassinit2
PUBLIC	??D?$_List_unchecked_iterator@V?$_List_val@U?$_List_simple_types@U?$pair@$$CBHV?$basic_string@DU?$char_traits@D@std@@V?$allocator@D@2@@std@@@std@@@std@@@std@@@std@@QBEAAU?$pair@$$CBHV?$basic_string@DU?$char_traits@D@std@@V?$allocator@D@2@@std@@@1@XZ ; std::_List_unchecked_iterator<std::_List_val<std::_List_simple_types<std::pair<int const ,std::basic_string<char,std::char_traits<char>,std::allocator<char> > > > > >::operator*
PUBLIC	??E?$_List_unchecked_iterator@V?$_List_val@U?$_List_simple_types@U?$pair@$$CBHV?$basic_string@DU?$char_traits@D@std@@V?$allocator@D@2@@std@@@std@@@std@@@std@@@std@@QAEAAV01@XZ ; std::_List_unchecked_iterator<std::_List_val<std::_List_simple_types<std::pair<int const ,std::basic_string<char,std::char_traits<char>,std::allocator<char> > > > > >::operator++
PUBLIC	?__autoclassinit2@?$_List_unchecked_iterator@V?$_List_val@U?$_List_simple_types@U?$pair@$$CBHV?$basic_string@DU?$char_traits@D@std@@V?$allocator@D@2@@std@@@std@@@std@@@std@@@std@@QAEXI@Z ; std::_List_unchecked_iterator<std::_List_val<std::_List_simple_types<std::pair<int const ,std::basic_string<char,std::char_traits<char>,std::allocator<char> > > > > >::__autoclassinit2
PUBLIC	??0?$_List_unchecked_iterator@V?$_List_val@U?$_List_simple_types@U?$pair@$$CBHV?$basic_string@DU?$char_traits@D@std@@V?$allocator@D@2@@std@@@std@@@std@@@std@@@std@@QAE@PAU?$_List_node@U?$pair@$$CBHV?$basic_string@DU?$char_traits@D@std@@V?$allocator@D@2@@std@@@std@@PAX@1@PBV?$_List_val@U?$_List_simple_types@U?$pair@$$CBHV?$basic_string@DU?$char_traits@D@std@@V?$allocator@D@2@@std@@@std@@@std@@@1@@Z ; std::_List_unchecked_iterator<std::_List_val<std::_List_simple_types<std::pair<int const ,std::basic_string<char,std::char_traits<char>,std::allocator<char> > > > > >::_List_unchecked_iterator<std::_List_val<std::_List_simple_types<std::pair<int const ,std::basic_string<char,std::char_traits<char>,std::allocator<char> > > > > >
PUBLIC	??$_Destroy_range@PAV?$_List_unchecked_iterator@V?$_List_val@U?$_List_simple_types@U?$pair@$$CBHV?$basic_string@DU?$char_traits@D@std@@V?$allocator@D@2@@std@@@std@@@std@@@std@@@std@@@std@@YAXPAV?$_List_unchecked_iterator@V?$_List_val@U?$_List_simple_types@U?$pair@$$CBHV?$basic_string@DU?$char_traits@D@std@@V?$allocator@D@2@@std@@@std@@@std@@@std@@@0@QAV10@@Z ; std::_Destroy_range<std::_List_unchecked_iterator<std::_List_val<std::_List_simple_types<std::pair<int const ,std::basic_string<char,std::char_traits<char>,std::allocator<char> > > > > > *>
PUBLIC	??$?0ABV?$allocator@U?$pair@$$CBHV?$basic_string@DU?$char_traits@D@std@@V?$allocator@D@2@@std@@@std@@@std@@$0A@@?$_Hash_vec@V?$allocator@V?$_List_unchecked_iterator@V?$_List_val@U?$_List_simple_types@U?$pair@$$CBHV?$basic_string@DU?$char_traits@D@std@@V?$allocator@D@2@@std@@@std@@@std@@@std@@@std@@@std@@@std@@QAE@ABV?$allocator@U?$pair@$$CBHV?$basic_string@DU?$char_traits@D@std@@V?$allocator@D@2@@std@@@std@@@1@@Z ; std::_Hash_vec<std::allocator<std::_List_unchecked_iterator<std::_List_val<std::_List_simple_types<std::pair<int const ,std::basic_string<char,std::char_traits<char>,std::allocator<char> > > > > > > >::_Hash_vec<std::allocator<std::_List_unchecked_iterator<std::_List_val<std::_List_simple_types<std::pair<int const ,std::basic_string<char,std::char_traits<char>,std::allocator<char> > > > > > > ><std::allocator<std::pair<int const ,std::basic_string<char,std::char_traits<char>,std::allocator<char> > > > const &,0>
PUBLIC	??$_Free_non_head@V?$allocator@U?$_List_node@U?$pair@$$CBHV?$basic_string@DU?$char_traits@D@std@@V?$allocator@D@2@@std@@@std@@PAX@std@@@std@@@?$_List_node@U?$pair@$$CBHV?$basic_string@DU?$char_traits@D@std@@V?$allocator@D@2@@std@@@std@@PAX@std@@SAXAAV?$allocator@U?$_List_node@U?$pair@$$CBHV?$basic_string@DU?$char_traits@D@std@@V?$allocator@D@2@@std@@@std@@PAX@std@@@1@PAU01@@Z ; std::_List_node<std::pair<int const ,std::basic_string<char,std::char_traits<char>,std::allocator<char> > >,void *>::_Free_non_head<std::allocator<std::_List_node<std::pair<int const ,std::basic_string<char,std::char_traits<char>,std::allocator<char> > >,void *> > >
PUBLIC	??$_Freenode0@V?$allocator@U?$_List_node@U?$pair@$$CBHV?$basic_string@DU?$char_traits@D@std@@V?$allocator@D@2@@std@@@std@@PAX@std@@@std@@@?$_List_node@U?$pair@$$CBHV?$basic_string@DU?$char_traits@D@std@@V?$allocator@D@2@@std@@@std@@PAX@std@@SAXAAV?$allocator@U?$_List_node@U?$pair@$$CBHV?$basic_string@DU?$char_traits@D@std@@V?$allocator@D@2@@std@@@std@@PAX@std@@@1@PAU01@@Z ; std::_List_node<std::pair<int const ,std::basic_string<char,std::char_traits<char>,std::allocator<char> > >,void *>::_Freenode0<std::allocator<std::_List_node<std::pair<int const ,std::basic_string<char,std::char_traits<char>,std::allocator<char> > >,void *> > >
PUBLIC	??$?0U_Zero_then_variadic_args_t@std@@M@?$_Compressed_pair@U?$hash@H@std@@V?$_Compressed_pair@U?$equal_to@H@std@@M$00@2@$00@std@@QAE@U_Zero_then_variadic_args_t@1@$$QAU21@$$QAM@Z ; std::_Compressed_pair<std::hash<int>,std::_Compressed_pair<std::equal_to<int>,float,1>,1>::_Compressed_pair<std::hash<int>,std::_Compressed_pair<std::equal_to<int>,float,1>,1><std::_Zero_then_variadic_args_t,float>
PUBLIC	??$?0M@?$_Compressed_pair@U?$equal_to@H@std@@M$00@std@@QAE@U_Zero_then_variadic_args_t@1@$$QAM@Z ; std::_Compressed_pair<std::equal_to<int>,float,1>::_Compressed_pair<std::equal_to<int>,float,1><float>
PUBLIC	??$?0V?$basic_string@DU?$char_traits@D@std@@V?$allocator@D@2@@std@@@?$allocator@PAV?$basic_string@DU?$char_traits@D@std@@V?$allocator@D@2@@std@@@std@@QAE@ABV?$allocator@V?$basic_string@DU?$char_traits@D@std@@V?$allocator@D@2@@std@@@1@@Z ; std::allocator<std::basic_string<char,std::char_traits<char>,std::allocator<char> > *>::allocator<std::basic_string<char,std::char_traits<char>,std::allocator<char> > *><std::basic_string<char,std::char_traits<char>,std::allocator<char> > >
PUBLIC	??$_Destroy_in_place@PAV?$basic_string@DU?$char_traits@D@std@@V?$allocator@D@2@@std@@@std@@YAXAAPAV?$basic_string@DU?$char_traits@D@std@@V?$allocator@D@2@@0@@Z ; std::_Destroy_in_place<std::basic_string<char,std::char_traits<char>,std::allocator<char> > *>
PUBLIC	??$_Emplace_back_internal@ABV?$basic_string@DU?$char_traits@D@std@@V?$allocator@D@2@@std@@@?$deque@V?$basic_string@DU?$char_traits@D@std@@V?$allocator@D@2@@std@@V?$allocator@V?$basic_string@DU?$char_traits@D@std@@V?$allocator@D@2@@std@@@2@@std@@AAEXABV?$basic_string@DU?$char_traits@D@std@@V?$allocator@D@2@@1@@Z ; std::deque<std::basic_string<char,std::char_traits<char>,std::allocator<char> >,std::allocator<std::basic_string<char,std::char_traits<char>,std::allocator<char> > > >::_Emplace_back_internal<std::basic_string<char,std::char_traits<char>,std::allocator<char> > const &>
PUBLIC	??$_Unfancy@V?$basic_string@DU?$char_traits@D@std@@V?$allocator@D@2@@std@@@std@@YAPAV?$basic_string@DU?$char_traits@D@std@@V?$allocator@D@2@@0@PAV10@@Z ; std::_Unfancy<std::basic_string<char,std::char_traits<char>,std::allocator<char> > >
PUBLIC	??$destroy@V?$basic_string@DU?$char_traits@D@std@@V?$allocator@D@2@@std@@@?$_Default_allocator_traits@V?$allocator@V?$basic_string@DU?$char_traits@D@std@@V?$allocator@D@2@@std@@@std@@@std@@SAXAAV?$allocator@V?$basic_string@DU?$char_traits@D@std@@V?$allocator@D@2@@std@@@1@QAV?$basic_string@DU?$char_traits@D@std@@V?$allocator@D@2@@1@@Z ; std::_Default_allocator_traits<std::allocator<std::basic_string<char,std::char_traits<char>,std::allocator<char> > > >::destroy<std::basic_string<char,std::char_traits<char>,std::allocator<char> > >
PUBLIC	??0?$_Deque_unchecked_const_iterator@V?$_Deque_val@U?$_Deque_simple_types@V?$basic_string@DU?$char_traits@D@std@@V?$allocator@D@2@@std@@@std@@@std@@@std@@QAE@IPBU_Container_base12@1@@Z ; std::_Deque_unchecked_const_iterator<std::_Deque_val<std::_Deque_simple_types<std::basic_string<char,std::char_traits<char>,std::allocator<char> > > > >::_Deque_unchecked_const_iterator<std::_Deque_val<std::_Deque_simple_types<std::basic_string<char,std::char_traits<char>,std::allocator<char> > > > >
PUBLIC	??D?$_Deque_unchecked_const_iterator@V?$_Deque_val@U?$_Deque_simple_types@V?$basic_string@DU?$char_traits@D@std@@V?$allocator@D@2@@std@@@std@@@std@@@std@@QBEABV?$basic_string@DU?$char_traits@D@std@@V?$allocator@D@2@@1@XZ ; std::_Deque_unchecked_const_iterator<std::_Deque_val<std::_Deque_simple_types<std::basic_string<char,std::char_traits<char>,std::allocator<char> > > > >::operator*
PUBLIC	??D?$_Deque_unchecked_iterator@V?$_Deque_val@U?$_Deque_simple_types@V?$basic_string@DU?$char_traits@D@std@@V?$allocator@D@2@@std@@@std@@@std@@@std@@QBEAAV?$basic_string@DU?$char_traits@D@std@@V?$allocator@D@2@@1@XZ ; std::_Deque_unchecked_iterator<std::_Deque_val<std::_Deque_simple_types<std::basic_string<char,std::char_traits<char>,std::allocator<char> > > > >::operator*
PUBLIC	??0?$_Deque_unchecked_iterator@V?$_Deque_val@U?$_Deque_simple_types@V?$basic_string@DU?$char_traits@D@std@@V?$allocator@D@2@@std@@@std@@@std@@@std@@QAE@IPBU_Container_base12@1@@Z ; std::_Deque_unchecked_iterator<std::_Deque_val<std::_Deque_simple_types<std::basic_string<char,std::char_traits<char>,std::allocator<char> > > > >::_Deque_unchecked_iterator<std::_Deque_val<std::_Deque_simple_types<std::basic_string<char,std::char_traits<char>,std::allocator<char> > > > >
PUBLIC	??$addressof@$$CBV?$codecvt@DDU_Mbstatet@@@std@@@std@@YAPBV?$codecvt@DDU_Mbstatet@@@0@ABV10@@Z ; std::addressof<std::codecvt<char,char,_Mbstatet> const >
PUBLIC	??$_Pocma@V?$allocator@U?$vec@$02I$0A@@glm@@@std@@@std@@YAXAAV?$allocator@U?$vec@$02I$0A@@glm@@@0@0@Z ; std::_Pocma<std::allocator<glm::vec<3,unsigned int,0> > >
PUBLIC	??$_Pocma@V?$allocator@U?$vec@$01M$0A@@glm@@@std@@@std@@YAXAAV?$allocator@U?$vec@$01M$0A@@glm@@@0@0@Z ; std::_Pocma<std::allocator<glm::vec<2,float,0> > >
PUBLIC	??$_Pocma@V?$allocator@U?$vec@$02M$0A@@glm@@@std@@@std@@YAXAAV?$allocator@U?$vec@$02M$0A@@glm@@@0@0@Z ; std::_Pocma<std::allocator<glm::vec<3,float,0> > >
PUBLIC	??$_Hash_representation@H@std@@YAIABH@Z		; std::_Hash_representation<int>
PUBLIC	??$_Destroy_in_place@PAD@std@@YAXAAPAD@Z	; std::_Destroy_in_place<char *>
PUBLIC	??$_Max_value@I@std@@YAABIABI0@Z		; std::_Max_value<unsigned int>
PUBLIC	??R<lambda_15711c68e099a15a58f4d77303cb286d>@@QBEXQADQBDID@Z ; <lambda_15711c68e099a15a58f4d77303cb286d>::operator()
PUBLIC	??$_Reallocate_grow_by@V<lambda_15711c68e099a15a58f4d77303cb286d>@@D@?$basic_string@DU?$char_traits@D@std@@V?$allocator@D@2@@std@@AAEAAV01@IV<lambda_15711c68e099a15a58f4d77303cb286d>@@D@Z ; std::basic_string<char,std::char_traits<char>,std::allocator<char> >::_Reallocate_grow_by<<lambda_15711c68e099a15a58f4d77303cb286d>,char>
PUBLIC	??R<lambda_9366063389c5f42a00a5088cf24e69de>@@QBEXQADIQBD@Z ; <lambda_9366063389c5f42a00a5088cf24e69de>::operator()
PUBLIC	??$_Reallocate_for@V<lambda_9366063389c5f42a00a5088cf24e69de>@@PBD@?$basic_string@DU?$char_traits@D@std@@V?$allocator@D@2@@std@@AAEAAV01@IV<lambda_9366063389c5f42a00a5088cf24e69de>@@PBD@Z ; std::basic_string<char,std::char_traits<char>,std::allocator<char> >::_Reallocate_for<<lambda_9366063389c5f42a00a5088cf24e69de>,char const *>
PUBLIC	??R<lambda_ab246b20b9526e2ef7792587e4298a77>@@QBEXQADQBDI1I@Z ; <lambda_ab246b20b9526e2ef7792587e4298a77>::operator()
PUBLIC	??$_Reallocate_grow_by@V<lambda_ab246b20b9526e2ef7792587e4298a77>@@PBDI@?$basic_string@DU?$char_traits@D@std@@V?$allocator@D@2@@std@@AAEAAV01@IV<lambda_ab246b20b9526e2ef7792587e4298a77>@@PBDI@Z ; std::basic_string<char,std::char_traits<char>,std::allocator<char> >::_Reallocate_grow_by<<lambda_ab246b20b9526e2ef7792587e4298a77>,char const *,unsigned int>
PUBLIC	??$_Pocca@V?$allocator@D@std@@@std@@YAXAAV?$allocator@D@0@ABV10@@Z ; std::_Pocca<std::allocator<char> >
PUBLIC	??$_Construct_in_place@PADABQAD@std@@YAXAAPADABQAD@Z ; std::_Construct_in_place<char *,char * const &>
PUBLIC	??$_Pocma@V?$allocator@D@std@@@std@@YAXAAV?$allocator@D@0@0@Z ; std::_Pocma<std::allocator<char> >
PUBLIC	??$?0ABV?$allocator@D@std@@$$V@?$_Compressed_pair@V?$allocator@D@std@@V?$_String_val@U?$_Simple_types@D@std@@@2@$00@std@@QAE@U_One_then_variadic_args_t@1@ABV?$allocator@D@1@@Z ; std::_Compressed_pair<std::allocator<char>,std::_String_val<std::_Simple_types<char> >,1>::_Compressed_pair<std::allocator<char>,std::_String_val<std::_Simple_types<char> >,1><std::allocator<char> const &>
PUBLIC	??$_Get_size_of_n@$00@std@@YAII@Z		; std::_Get_size_of_n<1>
PUBLIC	??$_Allocate@$07U_Default_allocate_traits@std@@$0A@@std@@YAPAXI@Z ; std::_Allocate<8,std::_Default_allocate_traits,0>
PUBLIC	??$_Deallocate@$07$0A@@std@@YAXPAXI@Z		; std::_Deallocate<8,0>
PUBLIC	??$_Get_size_of_n@$07@std@@YAII@Z		; std::_Get_size_of_n<8>
PUBLIC	??$uninitialized_fill@PAV?$_List_unchecked_iterator@V?$_List_val@U?$_List_simple_types@U?$pair@$$CBV?$basic_string@DU?$char_traits@D@std@@V?$allocator@D@2@@std@@H@std@@@std@@@std@@@std@@V12@@std@@YAXQAV?$_List_unchecked_iterator@V?$_List_val@U?$_List_simple_types@U?$pair@$$CBV?$basic_string@DU?$char_traits@D@std@@V?$allocator@D@2@@std@@H@std@@@std@@@std@@@0@0ABV10@@Z ; std::uninitialized_fill<std::_List_unchecked_iterator<std::_List_val<std::_List_simple_types<std::pair<std::basic_string<char,std::char_traits<char>,std::allocator<char> > const ,int> > > > *,std::_List_unchecked_iterator<std::_List_val<std::_List_simple_types<std::pair<std::basic_string<char,std::char_traits<char>,std::allocator<char> > const ,int> > > > >
PUBLIC	??$fill@PAV?$_List_unchecked_iterator@V?$_List_val@U?$_List_simple_types@U?$pair@$$CBV?$basic_string@DU?$char_traits@D@std@@V?$allocator@D@2@@std@@H@std@@@std@@@std@@@std@@V12@@std@@YAXQAV?$_List_unchecked_iterator@V?$_List_val@U?$_List_simple_types@U?$pair@$$CBV?$basic_string@DU?$char_traits@D@std@@V?$allocator@D@2@@std@@H@std@@@std@@@std@@@0@0ABV10@@Z ; std::fill<std::_List_unchecked_iterator<std::_List_val<std::_List_simple_types<std::pair<std::basic_string<char,std::char_traits<char>,std::allocator<char> > const ,int> > > > *,std::_List_unchecked_iterator<std::_List_val<std::_List_simple_types<std::pair<std::basic_string<char,std::char_traits<char>,std::allocator<char> > const ,int> > > > >
PUBLIC	??$?0ABV?$allocator@U?$pair@$$CBV?$basic_string@DU?$char_traits@D@std@@V?$allocator@D@2@@std@@H@std@@@std@@$$V@?$_Compressed_pair@V?$allocator@U?$_List_node@U?$pair@$$CBV?$basic_string@DU?$char_traits@D@std@@V?$allocator@D@2@@std@@H@std@@PAX@std@@@std@@V?$_List_val@U?$_List_simple_types@U?$pair@$$CBV?$basic_string@DU?$char_traits@D@std@@V?$allocator@D@2@@std@@H@std@@@std@@@2@$00@std@@QAE@U_One_then_variadic_args_t@1@ABV?$allocator@U?$pair@$$CBV?$basic_string@DU?$char_traits@D@std@@V?$allocator@D@2@@std@@H@std@@@1@@Z ; std::_Compressed_pair<std::allocator<std::_List_node<std::pair<std::basic_string<char,std::char_traits<char>,std::allocator<char> > const ,int>,void *> >,std::_List_val<std::_List_simple_types<std::pair<std::basic_string<char,std::char_traits<char>,std::allocator<char> > const ,int> > >,1>::_Compressed_pair<std::allocator<std::_List_node<std::pair<std::basic_string<char,std::char_traits<char>,std::allocator<char> > const ,int>,void *> >,std::_List_val<std::_List_simple_types<std::pair<std::basic_string<char,std::char_traits<char>,std::allocator<char> > const ,int> > >,1><std::allocator<std::pair<std::basic_string<char,std::char_traits<char>,std::allocator<char> > const ,int> > const &>
PUBLIC	??$?0U?$pair@$$CBV?$basic_string@DU?$char_traits@D@std@@V?$allocator@D@2@@std@@H@std@@@?$allocator@U?$_List_node@U?$pair@$$CBV?$basic_string@DU?$char_traits@D@std@@V?$allocator@D@2@@std@@H@std@@PAX@std@@@std@@QAE@ABV?$allocator@U?$pair@$$CBV?$basic_string@DU?$char_traits@D@std@@V?$allocator@D@2@@std@@H@std@@@1@@Z ; std::allocator<std::_List_node<std::pair<std::basic_string<char,std::char_traits<char>,std::allocator<char> > const ,int>,void *> >::allocator<std::_List_node<std::pair<std::basic_string<char,std::char_traits<char>,std::allocator<char> > const ,int>,void *> ><std::pair<std::basic_string<char,std::char_traits<char>,std::allocator<char> > const ,int> >
PUBLIC	??$uninitialized_fill@PAV?$_List_unchecked_iterator@V?$_List_val@U?$_List_simple_types@U?$pair@$$CBHV?$basic_string@DU?$char_traits@D@std@@V?$allocator@D@2@@std@@@std@@@std@@@std@@@std@@V12@@std@@YAXQAV?$_List_unchecked_iterator@V?$_List_val@U?$_List_simple_types@U?$pair@$$CBHV?$basic_string@DU?$char_traits@D@std@@V?$allocator@D@2@@std@@@std@@@std@@@std@@@0@0ABV10@@Z ; std::uninitialized_fill<std::_List_unchecked_iterator<std::_List_val<std::_List_simple_types<std::pair<int const ,std::basic_string<char,std::char_traits<char>,std::allocator<char> > > > > > *,std::_List_unchecked_iterator<std::_List_val<std::_List_simple_types<std::pair<int const ,std::basic_string<char,std::char_traits<char>,std::allocator<char> > > > > > >
PUBLIC	??$fill@PAV?$_List_unchecked_iterator@V?$_List_val@U?$_List_simple_types@U?$pair@$$CBHV?$basic_string@DU?$char_traits@D@std@@V?$allocator@D@2@@std@@@std@@@std@@@std@@@std@@V12@@std@@YAXQAV?$_List_unchecked_iterator@V?$_List_val@U?$_List_simple_types@U?$pair@$$CBHV?$basic_string@DU?$char_traits@D@std@@V?$allocator@D@2@@std@@@std@@@std@@@std@@@0@0ABV10@@Z ; std::fill<std::_List_unchecked_iterator<std::_List_val<std::_List_simple_types<std::pair<int const ,std::basic_string<char,std::char_traits<char>,std::allocator<char> > > > > > *,std::_List_unchecked_iterator<std::_List_val<std::_List_simple_types<std::pair<int const ,std::basic_string<char,std::char_traits<char>,std::allocator<char> > > > > > >
PUBLIC	??$?0ABV?$allocator@U?$pair@$$CBHV?$basic_string@DU?$char_traits@D@std@@V?$allocator@D@2@@std@@@std@@@std@@$$V@?$_Compressed_pair@V?$allocator@U?$_List_node@U?$pair@$$CBHV?$basic_string@DU?$char_traits@D@std@@V?$allocator@D@2@@std@@@std@@PAX@std@@@std@@V?$_List_val@U?$_List_simple_types@U?$pair@$$CBHV?$basic_string@DU?$char_traits@D@std@@V?$allocator@D@2@@std@@@std@@@std@@@2@$00@std@@QAE@U_One_then_variadic_args_t@1@ABV?$allocator@U?$pair@$$CBHV?$basic_string@DU?$char_traits@D@std@@V?$allocator@D@2@@std@@@std@@@1@@Z ; std::_Compressed_pair<std::allocator<std::_List_node<std::pair<int const ,std::basic_string<char,std::char_traits<char>,std::allocator<char> > >,void *> >,std::_List_val<std::_List_simple_types<std::pair<int const ,std::basic_string<char,std::char_traits<char>,std::allocator<char> > > > >,1>::_Compressed_pair<std::allocator<std::_List_node<std::pair<int const ,std::basic_string<char,std::char_traits<char>,std::allocator<char> > >,void *> >,std::_List_val<std::_List_simple_types<std::pair<int const ,std::basic_string<char,std::char_traits<char>,std::allocator<char> > > > >,1><std::allocator<std::pair<int const ,std::basic_string<char,std::char_traits<char>,std::allocator<char> > > > const &>
PUBLIC	??$?0U?$pair@$$CBHV?$basic_string@DU?$char_traits@D@std@@V?$allocator@D@2@@std@@@std@@@?$allocator@U?$_List_node@U?$pair@$$CBHV?$basic_string@DU?$char_traits@D@std@@V?$allocator@D@2@@std@@@std@@PAX@std@@@std@@QAE@ABV?$allocator@U?$pair@$$CBHV?$basic_string@DU?$char_traits@D@std@@V?$allocator@D@2@@std@@@std@@@1@@Z ; std::allocator<std::_List_node<std::pair<int const ,std::basic_string<char,std::char_traits<char>,std::allocator<char> > >,void *> >::allocator<std::_List_node<std::pair<int const ,std::basic_string<char,std::char_traits<char>,std::allocator<char> > >,void *> ><std::pair<int const ,std::basic_string<char,std::char_traits<char>,std::allocator<char> > > >
PUBLIC	??$addressof@V?$_Deque_val@U?$_Deque_simple_types@V?$basic_string@DU?$char_traits@D@std@@V?$allocator@D@2@@std@@@std@@@std@@@std@@YAPAV?$_Deque_val@U?$_Deque_simple_types@V?$basic_string@DU?$char_traits@D@std@@V?$allocator@D@2@@std@@@std@@@0@AAV10@@Z ; std::addressof<std::_Deque_val<std::_Deque_simple_types<std::basic_string<char,std::char_traits<char>,std::allocator<char> > > > >
PUBLIC	??$_Destroy_range@V?$allocator@U?$vec@$02I$0A@@glm@@@std@@@std@@YAXPAU?$vec@$02I$0A@@glm@@QAU12@AAV?$allocator@U?$vec@$02I$0A@@glm@@@0@@Z ; std::_Destroy_range<std::allocator<glm::vec<3,unsigned int,0> > >
PUBLIC	??$_Get_size_of_n@$0M@@std@@YAII@Z		; std::_Get_size_of_n<12>
PUBLIC	??$_Destroy_range@V?$allocator@U?$vec@$01M$0A@@glm@@@std@@@std@@YAXPAU?$vec@$01M$0A@@glm@@QAU12@AAV?$allocator@U?$vec@$01M$0A@@glm@@@0@@Z ; std::_Destroy_range<std::allocator<glm::vec<2,float,0> > >
PUBLIC	??$_Destroy_range@V?$allocator@U?$vec@$02M$0A@@glm@@@std@@@std@@YAXPAU?$vec@$02M$0A@@glm@@QAU12@AAV?$allocator@U?$vec@$02M$0A@@glm@@@0@@Z ; std::_Destroy_range<std::allocator<glm::vec<3,float,0> > >
PUBLIC	??$addressof@V?$_String_val@U?$_Simple_types@D@std@@@std@@@std@@YAPAV?$_String_val@U?$_Simple_types@D@std@@@0@AAV10@@Z ; std::addressof<std::_String_val<std::_Simple_types<char> > >
PUBLIC	??$addressof@$$CBV?$_String_val@U?$_Simple_types@D@std@@@std@@@std@@YAPBV?$_String_val@U?$_Simple_types@D@std@@@0@ABV10@@Z ; std::addressof<std::_String_val<std::_Simple_types<char> > const >
PUBLIC	??$_Get_size_of_n@$03@std@@YAII@Z		; std::_Get_size_of_n<4>
PUBLIC	??$_Construct_in_place@PAU?$_List_node@U?$pair@$$CBV?$basic_string@DU?$char_traits@D@std@@V?$allocator@D@2@@std@@H@std@@PAX@std@@AAPAU12@@std@@YAXAAPAU?$_List_node@U?$pair@$$CBV?$basic_string@DU?$char_traits@D@std@@V?$allocator@D@2@@std@@H@std@@PAX@0@0@Z ; std::_Construct_in_place<std::_List_node<std::pair<std::basic_string<char,std::char_traits<char>,std::allocator<char> > const ,int>,void *> *,std::_List_node<std::pair<std::basic_string<char,std::char_traits<char>,std::allocator<char> > const ,int>,void *> * &>
PUBLIC	??$_Construct_in_place@PAU?$_List_node@U?$pair@$$CBHV?$basic_string@DU?$char_traits@D@std@@V?$allocator@D@2@@std@@@std@@PAX@std@@AAPAU12@@std@@YAXAAPAU?$_List_node@U?$pair@$$CBHV?$basic_string@DU?$char_traits@D@std@@V?$allocator@D@2@@std@@@std@@PAX@0@0@Z ; std::_Construct_in_place<std::_List_node<std::pair<int const ,std::basic_string<char,std::char_traits<char>,std::allocator<char> > >,void *> *,std::_List_node<std::pair<int const ,std::basic_string<char,std::char_traits<char>,std::allocator<char> > >,void *> * &>
PUBLIC	??$_Get_size_of_n@$0CI@@std@@YAII@Z		; std::_Get_size_of_n<40>
PUBLIC	??$addressof@U_Container_proxy@std@@@std@@YAPAU_Container_proxy@0@AAU10@@Z ; std::addressof<std::_Container_proxy>
PUBLIC	??$forward@PAU_Container_base12@std@@@std@@YA$$QAPAU_Container_base12@0@AAPAU10@@Z ; std::forward<std::_Container_base12 *>
PUBLIC	??R?$default_delete@V_Facet_base@std@@@std@@QBEXPAV_Facet_base@1@@Z ; std::default_delete<std::_Facet_base>::operator()
PUBLIC	??1?$unique_ptr@V_Facet_base@std@@U?$default_delete@V_Facet_base@std@@@2@@std@@QAE@XZ ; std::unique_ptr<std::_Facet_base,std::default_delete<std::_Facet_base> >::~unique_ptr<std::_Facet_base,std::default_delete<std::_Facet_base> >
PUBLIC	?release@?$unique_ptr@V_Facet_base@std@@U?$default_delete@V_Facet_base@std@@@2@@std@@QAEPAV_Facet_base@2@XZ ; std::unique_ptr<std::_Facet_base,std::default_delete<std::_Facet_base> >::release
PUBLIC	?_Get_first@?$_Compressed_pair@U?$default_delete@V_Facet_base@std@@@std@@PAV_Facet_base@2@$00@std@@QAEAAU?$default_delete@V_Facet_base@std@@@2@XZ ; std::_Compressed_pair<std::default_delete<std::_Facet_base>,std::_Facet_base *,1>::_Get_first
PUBLIC	?__autoclassinit2@?$unique_ptr@V_Facet_base@std@@U?$default_delete@V_Facet_base@std@@@2@@std@@QAEXI@Z ; std::unique_ptr<std::_Facet_base,std::default_delete<std::_Facet_base> >::__autoclassinit2
PUBLIC	??$?0U?$default_delete@V_Facet_base@std@@@std@@$0A@@?$unique_ptr@V_Facet_base@std@@U?$default_delete@V_Facet_base@std@@@2@@std@@QAE@PAV_Facet_base@1@@Z ; std::unique_ptr<std::_Facet_base,std::default_delete<std::_Facet_base> >::unique_ptr<std::_Facet_base,std::default_delete<std::_Facet_base> ><std::default_delete<std::_Facet_base>,0>
PUBLIC	??$?G_JU?$ratio@$00$0DLJKMKAA@@std@@_JU01@@chrono@std@@YA?AV?$duration@_JU?$ratio@$00$0DLJKMKAA@@std@@@01@ABV201@0@Z ; std::chrono::operator-<__int64,std::ratio<1,1000000000>,__int64,std::ratio<1,1000000000> >
PUBLIC	??$_Insert_string@DU?$char_traits@D@std@@I@std@@YAAAV?$basic_ostream@DU?$char_traits@D@std@@@0@AAV10@QBDI@Z ; std::_Insert_string<char,std::char_traits<char>,unsigned int>
PUBLIC	??$move@AAV?$basic_istream@DU?$char_traits@D@std@@@std@@@std@@YA$$QAV?$basic_istream@DU?$char_traits@D@std@@@0@AAV10@@Z ; std::move<std::basic_istream<char,std::char_traits<char> > &>
PUBLIC	??$?RV?$basic_string@DU?$char_traits@D@std@@V?$allocator@D@2@@std@@@?$_Uhash_compare@V?$basic_string@DU?$char_traits@D@std@@V?$allocator@D@2@@std@@U?$hash@V?$basic_string@DU?$char_traits@D@std@@V?$allocator@D@2@@std@@@2@U?$equal_to@V?$basic_string@DU?$char_traits@D@std@@V?$allocator@D@2@@std@@@2@@std@@QBEIABV?$basic_string@DU?$char_traits@D@std@@V?$allocator@D@2@@1@@Z ; std::_Uhash_compare<std::basic_string<char,std::char_traits<char>,std::allocator<char> >,std::hash<std::basic_string<char,std::char_traits<char>,std::allocator<char> > >,std::equal_to<std::basic_string<char,std::char_traits<char>,std::allocator<char> > > >::operator()<std::basic_string<char,std::char_traits<char>,std::allocator<char> > >
PUBLIC	??$_Find@V?$basic_string@DU?$char_traits@D@std@@V?$allocator@D@2@@std@@@?$_Hash@V?$_Umap_traits@V?$basic_string@DU?$char_traits@D@std@@V?$allocator@D@2@@std@@HV?$_Uhash_compare@V?$basic_string@DU?$char_traits@D@std@@V?$allocator@D@2@@std@@U?$hash@V?$basic_string@DU?$char_traits@D@std@@V?$allocator@D@2@@std@@@2@U?$equal_to@V?$basic_string@DU?$char_traits@D@std@@V?$allocator@D@2@@std@@@2@@2@V?$allocator@U?$pair@$$CBV?$basic_string@DU?$char_traits@D@std@@V?$allocator@D@2@@std@@H@std@@@2@$0A@@std@@@std@@ABEPAU?$_List_node@U?$pair@$$CBV?$basic_string@DU?$char_traits@D@std@@V?$allocator@D@2@@std@@H@std@@PAX@1@ABV?$basic_string@DU?$char_traits@D@std@@V?$allocator@D@2@@1@I@Z ; std::_Hash<std::_Umap_traits<std::basic_string<char,std::char_traits<char>,std::allocator<char> >,int,std::_Uhash_compare<std::basic_string<char,std::char_traits<char>,std::allocator<char> >,std::hash<std::basic_string<char,std::char_traits<char>,std::allocator<char> > >,std::equal_to<std::basic_string<char,std::char_traits<char>,std::allocator<char> > > >,std::allocator<std::pair<std::basic_string<char,std::char_traits<char>,std::allocator<char> > const ,int> >,0> >::_Find<std::basic_string<char,std::char_traits<char>,std::allocator<char> > >
PUBLIC	??$_Find_last@V?$basic_string@DU?$char_traits@D@std@@V?$allocator@D@2@@std@@@?$_Hash@V?$_Umap_traits@V?$basic_string@DU?$char_traits@D@std@@V?$allocator@D@2@@std@@HV?$_Uhash_compare@V?$basic_string@DU?$char_traits@D@std@@V?$allocator@D@2@@std@@U?$hash@V?$basic_string@DU?$char_traits@D@std@@V?$allocator@D@2@@std@@@2@U?$equal_to@V?$basic_string@DU?$char_traits@D@std@@V?$allocator@D@2@@std@@@2@@2@V?$allocator@U?$pair@$$CBV?$basic_string@DU?$char_traits@D@std@@V?$allocator@D@2@@std@@H@std@@@2@$0A@@std@@@std@@IBE?AU?$_Hash_find_last_result@PAU?$_List_node@U?$pair@$$CBV?$basic_string@DU?$char_traits@D@std@@V?$allocator@D@2@@std@@H@std@@PAX@std@@@1@ABV?$basic_string@DU?$char_traits@D@std@@V?$allocator@D@2@@1@I@Z ; std::_Hash<std::_Umap_traits<std::basic_string<char,std::char_traits<char>,std::allocator<char> >,int,std::_Uhash_compare<std::basic_string<char,std::char_traits<char>,std::allocator<char> >,std::hash<std::basic_string<char,std::char_traits<char>,std::allocator<char> > >,std::equal_to<std::basic_string<char,std::char_traits<char>,std::allocator<char> > > >,std::allocator<std::pair<std::basic_string<char,std::char_traits<char>,std::allocator<char> > const ,int> >,0> >::_Find_last<std::basic_string<char,std::char_traits<char>,std::allocator<char> > >
PUBLIC	??$?0AAPAU?$_List_node@U?$pair@$$CBV?$basic_string@DU?$char_traits@D@std@@V?$allocator@D@2@@std@@H@std@@PAX@std@@_N$0A@@?$pair@PAU?$_List_node@U?$pair@$$CBV?$basic_string@DU?$char_traits@D@std@@V?$allocator@D@2@@std@@H@std@@PAX@std@@_N@std@@QAE@AAPAU?$_List_node@U?$pair@$$CBV?$basic_string@DU?$char_traits@D@std@@V?$allocator@D@2@@std@@H@std@@PAX@1@$$QA_N@Z ; std::pair<std::_List_node<std::pair<std::basic_string<char,std::char_traits<char>,std::allocator<char> > const ,int>,void *> *,bool>::pair<std::_List_node<std::pair<std::basic_string<char,std::char_traits<char>,std::allocator<char> > const ,int>,void *> *,bool><std::_List_node<std::pair<std::basic_string<char,std::char_traits<char>,std::allocator<char> > const ,int>,void *> * &,bool,0>
PUBLIC	??$forward@ABV?$basic_string@DU?$char_traits@D@std@@V?$allocator@D@2@@std@@@std@@YAABV?$basic_string@DU?$char_traits@D@std@@V?$allocator@D@2@@0@ABV10@@Z ; std::forward<std::basic_string<char,std::char_traits<char>,std::allocator<char> > const &>
PUBLIC	??$forward_as_tuple@ABV?$basic_string@DU?$char_traits@D@std@@V?$allocator@D@2@@std@@@std@@YA?AV?$tuple@ABV?$basic_string@DU?$char_traits@D@std@@V?$allocator@D@2@@std@@@0@ABV?$basic_string@DU?$char_traits@D@std@@V?$allocator@D@2@@0@@Z ; std::forward_as_tuple<std::basic_string<char,std::char_traits<char>,std::allocator<char> > const &>
PUBLIC	??0?$tuple@ABV?$basic_string@DU?$char_traits@D@std@@V?$allocator@D@2@@std@@@std@@QAE@$$QAV01@@Z ; std::tuple<std::basic_string<char,std::char_traits<char>,std::allocator<char> > const &>::tuple<std::basic_string<char,std::char_traits<char>,std::allocator<char> > const &>
PUBLIC	??$forward_as_tuple@$$V@std@@YA?AV?$tuple@$$V@0@XZ ; std::forward_as_tuple<>
PUBLIC	??0?$_Alloc_construct_ptr@V?$allocator@U?$_List_node@U?$pair@$$CBV?$basic_string@DU?$char_traits@D@std@@V?$allocator@D@2@@std@@H@std@@PAX@std@@@std@@@std@@QAE@AAV?$allocator@U?$_List_node@U?$pair@$$CBV?$basic_string@DU?$char_traits@D@std@@V?$allocator@D@2@@std@@H@std@@PAX@std@@@1@@Z ; std::_Alloc_construct_ptr<std::allocator<std::_List_node<std::pair<std::basic_string<char,std::char_traits<char>,std::allocator<char> > const ,int>,void *> > >::_Alloc_construct_ptr<std::allocator<std::_List_node<std::pair<std::basic_string<char,std::char_traits<char>,std::allocator<char> > const ,int>,void *> > >
PUBLIC	?_Release@?$_Alloc_construct_ptr@V?$allocator@U?$_List_node@U?$pair@$$CBV?$basic_string@DU?$char_traits@D@std@@V?$allocator@D@2@@std@@H@std@@PAX@std@@@std@@@std@@QAEPAU?$_List_node@U?$pair@$$CBV?$basic_string@DU?$char_traits@D@std@@V?$allocator@D@2@@std@@H@std@@PAX@2@XZ ; std::_Alloc_construct_ptr<std::allocator<std::_List_node<std::pair<std::basic_string<char,std::char_traits<char>,std::allocator<char> > const ,int>,void *> > >::_Release
PUBLIC	?_Allocate@?$_Alloc_construct_ptr@V?$allocator@U?$_List_node@U?$pair@$$CBV?$basic_string@DU?$char_traits@D@std@@V?$allocator@D@2@@std@@H@std@@PAX@std@@@std@@@std@@QAEXXZ ; std::_Alloc_construct_ptr<std::allocator<std::_List_node<std::pair<std::basic_string<char,std::char_traits<char>,std::allocator<char> > const ,int>,void *> > >::_Allocate
PUBLIC	??1?$_Alloc_construct_ptr@V?$allocator@U?$_List_node@U?$pair@$$CBV?$basic_string@DU?$char_traits@D@std@@V?$allocator@D@2@@std@@H@std@@PAX@std@@@std@@@std@@QAE@XZ ; std::_Alloc_construct_ptr<std::allocator<std::_List_node<std::pair<std::basic_string<char,std::char_traits<char>,std::allocator<char> > const ,int>,void *> > >::~_Alloc_construct_ptr<std::allocator<std::_List_node<std::pair<std::basic_string<char,std::char_traits<char>,std::allocator<char> > const ,int>,void *> > >
PUBLIC	??1?$_List_node_emplace_op2@V?$allocator@U?$_List_node@U?$pair@$$CBV?$basic_string@DU?$char_traits@D@std@@V?$allocator@D@2@@std@@H@std@@PAX@std@@@std@@@std@@QAE@XZ ; std::_List_node_emplace_op2<std::allocator<std::_List_node<std::pair<std::basic_string<char,std::char_traits<char>,std::allocator<char> > const ,int>,void *> > >::~_List_node_emplace_op2<std::allocator<std::_List_node<std::pair<std::basic_string<char,std::char_traits<char>,std::allocator<char> > const ,int>,void *> > >
PUBLIC	??$?0ABUpiecewise_construct_t@std@@V?$tuple@ABV?$basic_string@DU?$char_traits@D@std@@V?$allocator@D@2@@std@@@1@V?$tuple@$$V@1@@?$_List_node_emplace_op2@V?$allocator@U?$_List_node@U?$pair@$$CBV?$basic_string@DU?$char_traits@D@std@@V?$allocator@D@2@@std@@H@std@@PAX@std@@@std@@@std@@QAE@AAV?$allocator@U?$_List_node@U?$pair@$$CBV?$basic_string@DU?$char_traits@D@std@@V?$allocator@D@2@@std@@H@std@@PAX@std@@@1@ABUpiecewise_construct_t@1@$$QAV?$tuple@ABV?$basic_string@DU?$char_traits@D@std@@V?$allocator@D@2@@std@@@1@$$QAV?$tuple@$$V@1@@Z ; std::_List_node_emplace_op2<std::allocator<std::_List_node<std::pair<std::basic_string<char,std::char_traits<char>,std::allocator<char> > const ,int>,void *> > >::_List_node_emplace_op2<std::allocator<std::_List_node<std::pair<std::basic_string<char,std::char_traits<char>,std::allocator<char> > const ,int>,void *> > ><std::piecewise_construct_t const &,std::tuple<std::basic_string<char,std::char_traits<char>,std::allocator<char> > const &>,std::tuple<> >
PUBLIC	??$_Kfn@$$CBV?$basic_string@DU?$char_traits@D@std@@V?$allocator@D@2@@std@@H@?$_Umap_traits@V?$basic_string@DU?$char_traits@D@std@@V?$allocator@D@2@@std@@HV?$_Uhash_compare@V?$basic_string@DU?$char_traits@D@std@@V?$allocator@D@2@@std@@U?$hash@V?$basic_string@DU?$char_traits@D@std@@V?$allocator@D@2@@std@@@2@U?$equal_to@V?$basic_string@DU?$char_traits@D@std@@V?$allocator@D@2@@std@@@2@@2@V?$allocator@U?$pair@$$CBV?$basic_string@DU?$char_traits@D@std@@V?$allocator@D@2@@std@@H@std@@@2@$0A@@std@@SAABV?$basic_string@DU?$char_traits@D@std@@V?$allocator@D@2@@1@ABU?$pair@$$CBV?$basic_string@DU?$char_traits@D@std@@V?$allocator@D@2@@std@@H@1@@Z ; std::_Umap_traits<std::basic_string<char,std::char_traits<char>,std::allocator<char> >,int,std::_Uhash_compare<std::basic_string<char,std::char_traits<char>,std::allocator<char> >,std::hash<std::basic_string<char,std::char_traits<char>,std::allocator<char> > >,std::equal_to<std::basic_string<char,std::char_traits<char>,std::allocator<char> > > >,std::allocator<std::pair<std::basic_string<char,std::char_traits<char>,std::allocator<char> > const ,int> >,0>::_Kfn<std::basic_string<char,std::char_traits<char>,std::allocator<char> > const ,int>
PUBLIC	??$?0PAU?$_List_node@U?$pair@$$CBV?$basic_string@DU?$char_traits@D@std@@V?$allocator@D@2@@std@@H@std@@PAX@std@@_N$0A@@?$pair@PAU?$_List_node@U?$pair@$$CBV?$basic_string@DU?$char_traits@D@std@@V?$allocator@D@2@@std@@H@std@@PAX@std@@_N@std@@QAE@$$QAPAU?$_List_node@U?$pair@$$CBV?$basic_string@DU?$char_traits@D@std@@V?$allocator@D@2@@std@@H@std@@PAX@1@$$QA_N@Z ; std::pair<std::_List_node<std::pair<std::basic_string<char,std::char_traits<char>,std::allocator<char> > const ,int>,void *> *,bool>::pair<std::_List_node<std::pair<std::basic_string<char,std::char_traits<char>,std::allocator<char> > const ,int>,void *> *,bool><std::_List_node<std::pair<std::basic_string<char,std::char_traits<char>,std::allocator<char> > const ,int>,void *> *,bool,0>
PUBLIC	??$_Deallocate_plain@V?$allocator@U_Container_proxy@std@@@std@@@std@@YAXAAV?$allocator@U_Container_proxy@std@@@0@QAU_Container_proxy@0@@Z ; std::_Deallocate_plain<std::allocator<std::_Container_proxy> >
PUBLIC	??$?RH@?$_Uhash_compare@HU?$hash@H@std@@U?$equal_to@H@2@@std@@QBEIABH@Z ; std::_Uhash_compare<int,std::hash<int>,std::equal_to<int> >::operator()<int>
PUBLIC	??$_Find_last@H@?$_Hash@V?$_Umap_traits@HV?$basic_string@DU?$char_traits@D@std@@V?$allocator@D@2@@std@@V?$_Uhash_compare@HU?$hash@H@std@@U?$equal_to@H@2@@2@V?$allocator@U?$pair@$$CBHV?$basic_string@DU?$char_traits@D@std@@V?$allocator@D@2@@std@@@std@@@2@$0A@@std@@@std@@IBE?AU?$_Hash_find_last_result@PAU?$_List_node@U?$pair@$$CBHV?$basic_string@DU?$char_traits@D@std@@V?$allocator@D@2@@std@@@std@@PAX@std@@@1@ABHI@Z ; std::_Hash<std::_Umap_traits<int,std::basic_string<char,std::char_traits<char>,std::allocator<char> >,std::_Uhash_compare<int,std::hash<int>,std::equal_to<int> >,std::allocator<std::pair<int const ,std::basic_string<char,std::char_traits<char>,std::allocator<char> > > >,0> >::_Find_last<int>
PUBLIC	??$?0AAPAU?$_List_node@U?$pair@$$CBHV?$basic_string@DU?$char_traits@D@std@@V?$allocator@D@2@@std@@@std@@PAX@std@@_N$0A@@?$pair@PAU?$_List_node@U?$pair@$$CBHV?$basic_string@DU?$char_traits@D@std@@V?$allocator@D@2@@std@@@std@@PAX@std@@_N@std@@QAE@AAPAU?$_List_node@U?$pair@$$CBHV?$basic_string@DU?$char_traits@D@std@@V?$allocator@D@2@@std@@@std@@PAX@1@$$QA_N@Z ; std::pair<std::_List_node<std::pair<int const ,std::basic_string<char,std::char_traits<char>,std::allocator<char> > >,void *> *,bool>::pair<std::_List_node<std::pair<int const ,std::basic_string<char,std::char_traits<char>,std::allocator<char> > >,void *> *,bool><std::_List_node<std::pair<int const ,std::basic_string<char,std::char_traits<char>,std::allocator<char> > >,void *> * &,bool,0>
PUBLIC	??$forward@ABH@std@@YAABHABH@Z			; std::forward<int const &>
PUBLIC	??$forward_as_tuple@ABH@std@@YA?AV?$tuple@ABH@0@ABH@Z ; std::forward_as_tuple<int const &>
PUBLIC	??0?$tuple@ABH@std@@QAE@$$QAV01@@Z		; std::tuple<int const &>::tuple<int const &>
PUBLIC	??0?$_Alloc_construct_ptr@V?$allocator@U?$_List_node@U?$pair@$$CBHV?$basic_string@DU?$char_traits@D@std@@V?$allocator@D@2@@std@@@std@@PAX@std@@@std@@@std@@QAE@AAV?$allocator@U?$_List_node@U?$pair@$$CBHV?$basic_string@DU?$char_traits@D@std@@V?$allocator@D@2@@std@@@std@@PAX@std@@@1@@Z ; std::_Alloc_construct_ptr<std::allocator<std::_List_node<std::pair<int const ,std::basic_string<char,std::char_traits<char>,std::allocator<char> > >,void *> > >::_Alloc_construct_ptr<std::allocator<std::_List_node<std::pair<int const ,std::basic_string<char,std::char_traits<char>,std::allocator<char> > >,void *> > >
PUBLIC	?_Release@?$_Alloc_construct_ptr@V?$allocator@U?$_List_node@U?$pair@$$CBHV?$basic_string@DU?$char_traits@D@std@@V?$allocator@D@2@@std@@@std@@PAX@std@@@std@@@std@@QAEPAU?$_List_node@U?$pair@$$CBHV?$basic_string@DU?$char_traits@D@std@@V?$allocator@D@2@@std@@@std@@PAX@2@XZ ; std::_Alloc_construct_ptr<std::allocator<std::_List_node<std::pair<int const ,std::basic_string<char,std::char_traits<char>,std::allocator<char> > >,void *> > >::_Release
PUBLIC	?_Allocate@?$_Alloc_construct_ptr@V?$allocator@U?$_List_node@U?$pair@$$CBHV?$basic_string@DU?$char_traits@D@std@@V?$allocator@D@2@@std@@@std@@PAX@std@@@std@@@std@@QAEXXZ ; std::_Alloc_construct_ptr<std::allocator<std::_List_node<std::pair<int const ,std::basic_string<char,std::char_traits<char>,std::allocator<char> > >,void *> > >::_Allocate
PUBLIC	??1?$_Alloc_construct_ptr@V?$allocator@U?$_List_node@U?$pair@$$CBHV?$basic_string@DU?$char_traits@D@std@@V?$allocator@D@2@@std@@@std@@PAX@std@@@std@@@std@@QAE@XZ ; std::_Alloc_construct_ptr<std::allocator<std::_List_node<std::pair<int const ,std::basic_string<char,std::char_traits<char>,std::allocator<char> > >,void *> > >::~_Alloc_construct_ptr<std::allocator<std::_List_node<std::pair<int const ,std::basic_string<char,std::char_traits<char>,std::allocator<char> > >,void *> > >
PUBLIC	??1?$_List_node_emplace_op2@V?$allocator@U?$_List_node@U?$pair@$$CBHV?$basic_string@DU?$char_traits@D@std@@V?$allocator@D@2@@std@@@std@@PAX@std@@@std@@@std@@QAE@XZ ; std::_List_node_emplace_op2<std::allocator<std::_List_node<std::pair<int const ,std::basic_string<char,std::char_traits<char>,std::allocator<char> > >,void *> > >::~_List_node_emplace_op2<std::allocator<std::_List_node<std::pair<int const ,std::basic_string<char,std::char_traits<char>,std::allocator<char> > >,void *> > >
PUBLIC	??$?0ABUpiecewise_construct_t@std@@V?$tuple@ABH@1@V?$tuple@$$V@1@@?$_List_node_emplace_op2@V?$allocator@U?$_List_node@U?$pair@$$CBHV?$basic_string@DU?$char_traits@D@std@@V?$allocator@D@2@@std@@@std@@PAX@std@@@std@@@std@@QAE@AAV?$allocator@U?$_List_node@U?$pair@$$CBHV?$basic_string@DU?$char_traits@D@std@@V?$allocator@D@2@@std@@@std@@PAX@std@@@1@ABUpiecewise_construct_t@1@$$QAV?$tuple@ABH@1@$$QAV?$tuple@$$V@1@@Z ; std::_List_node_emplace_op2<std::allocator<std::_List_node<std::pair<int const ,std::basic_string<char,std::char_traits<char>,std::allocator<char> > >,void *> > >::_List_node_emplace_op2<std::allocator<std::_List_node<std::pair<int const ,std::basic_string<char,std::char_traits<char>,std::allocator<char> > >,void *> > ><std::piecewise_construct_t const &,std::tuple<int const &>,std::tuple<> >
PUBLIC	??$_Kfn@$$CBHV?$basic_string@DU?$char_traits@D@std@@V?$allocator@D@2@@std@@@?$_Umap_traits@HV?$basic_string@DU?$char_traits@D@std@@V?$allocator@D@2@@std@@V?$_Uhash_compare@HU?$hash@H@std@@U?$equal_to@H@2@@2@V?$allocator@U?$pair@$$CBHV?$basic_string@DU?$char_traits@D@std@@V?$allocator@D@2@@std@@@std@@@2@$0A@@std@@SAABHABU?$pair@$$CBHV?$basic_string@DU?$char_traits@D@std@@V?$allocator@D@2@@std@@@1@@Z ; std::_Umap_traits<int,std::basic_string<char,std::char_traits<char>,std::allocator<char> >,std::_Uhash_compare<int,std::hash<int>,std::equal_to<int> >,std::allocator<std::pair<int const ,std::basic_string<char,std::char_traits<char>,std::allocator<char> > > >,0>::_Kfn<int const ,std::basic_string<char,std::char_traits<char>,std::allocator<char> > >
PUBLIC	??$?0PAU?$_List_node@U?$pair@$$CBHV?$basic_string@DU?$char_traits@D@std@@V?$allocator@D@2@@std@@@std@@PAX@std@@_N$0A@@?$pair@PAU?$_List_node@U?$pair@$$CBHV?$basic_string@DU?$char_traits@D@std@@V?$allocator@D@2@@std@@@std@@PAX@std@@_N@std@@QAE@$$QAPAU?$_List_node@U?$pair@$$CBHV?$basic_string@DU?$char_traits@D@std@@V?$allocator@D@2@@std@@@std@@PAX@1@$$QA_N@Z ; std::pair<std::_List_node<std::pair<int const ,std::basic_string<char,std::char_traits<char>,std::allocator<char> > >,void *> *,bool>::pair<std::_List_node<std::pair<int const ,std::basic_string<char,std::char_traits<char>,std::allocator<char> > >,void *> *,bool><std::_List_node<std::pair<int const ,std::basic_string<char,std::char_traits<char>,std::allocator<char> > >,void *> *,bool,0>
PUBLIC	??$forward@V?$allocator@U?$vec@$02I$0A@@glm@@@std@@@std@@YA$$QAV?$allocator@U?$vec@$02I$0A@@glm@@@0@AAV10@@Z ; std::forward<std::allocator<glm::vec<3,unsigned int,0> > >
PUBLIC	??$_Uninitialized_copy@PAU?$vec@$02I$0A@@glm@@V?$allocator@U?$vec@$02I$0A@@glm@@@std@@@std@@YAPAU?$vec@$02I$0A@@glm@@QAU12@0PAU12@AAV?$allocator@U?$vec@$02I$0A@@glm@@@0@@Z ; std::_Uninitialized_copy<glm::vec<3,unsigned int,0> *,std::allocator<glm::vec<3,unsigned int,0> > >
PUBLIC	??$forward@ABV?$allocator@U?$vec@$02I$0A@@glm@@@std@@@std@@YAABV?$allocator@U?$vec@$02I$0A@@glm@@@0@ABV10@@Z ; std::forward<std::allocator<glm::vec<3,unsigned int,0> > const &>
PUBLIC	??$forward@V?$allocator@U?$vec@$01M$0A@@glm@@@std@@@std@@YA$$QAV?$allocator@U?$vec@$01M$0A@@glm@@@0@AAV10@@Z ; std::forward<std::allocator<glm::vec<2,float,0> > >
PUBLIC	??$_Uninitialized_copy@PAU?$vec@$01M$0A@@glm@@V?$allocator@U?$vec@$01M$0A@@glm@@@std@@@std@@YAPAU?$vec@$01M$0A@@glm@@QAU12@0PAU12@AAV?$allocator@U?$vec@$01M$0A@@glm@@@0@@Z ; std::_Uninitialized_copy<glm::vec<2,float,0> *,std::allocator<glm::vec<2,float,0> > >
PUBLIC	??$forward@ABV?$allocator@U?$vec@$01M$0A@@glm@@@std@@@std@@YAABV?$allocator@U?$vec@$01M$0A@@glm@@@0@ABV10@@Z ; std::forward<std::allocator<glm::vec<2,float,0> > const &>
PUBLIC	??$forward@V?$allocator@U?$vec@$02M$0A@@glm@@@std@@@std@@YA$$QAV?$allocator@U?$vec@$02M$0A@@glm@@@0@AAV10@@Z ; std::forward<std::allocator<glm::vec<3,float,0> > >
PUBLIC	??$_Uninitialized_copy@PAU?$vec@$02M$0A@@glm@@V?$allocator@U?$vec@$02M$0A@@glm@@@std@@@std@@YAPAU?$vec@$02M$0A@@glm@@QAU12@0PAU12@AAV?$allocator@U?$vec@$02M$0A@@glm@@@0@@Z ; std::_Uninitialized_copy<glm::vec<3,float,0> *,std::allocator<glm::vec<3,float,0> > >
PUBLIC	??$forward@ABV?$allocator@U?$vec@$02M$0A@@glm@@@std@@@std@@YAABV?$allocator@U?$vec@$02M$0A@@glm@@@0@ABV10@@Z ; std::forward<std::allocator<glm::vec<3,float,0> > const &>
PUBLIC	??$forward@V?$allocator@D@std@@@std@@YA$$QAV?$allocator@D@0@AAV10@@Z ; std::forward<std::allocator<char> >
PUBLIC	??$forward@ABV?$allocator@U?$pair@$$CBV?$basic_string@DU?$char_traits@D@std@@V?$allocator@D@2@@std@@H@std@@@std@@@std@@YAABV?$allocator@U?$pair@$$CBV?$basic_string@DU?$char_traits@D@std@@V?$allocator@D@2@@std@@H@std@@@0@ABV10@@Z ; std::forward<std::allocator<std::pair<std::basic_string<char,std::char_traits<char>,std::allocator<char> > const ,int> > const &>
PUBLIC	??$?0ABV?$allocator@U?$pair@$$CBV?$basic_string@DU?$char_traits@D@std@@V?$allocator@D@2@@std@@H@std@@@std@@$$V@?$_Compressed_pair@V?$allocator@V?$_List_unchecked_iterator@V?$_List_val@U?$_List_simple_types@U?$pair@$$CBV?$basic_string@DU?$char_traits@D@std@@V?$allocator@D@2@@std@@H@std@@@std@@@std@@@std@@@std@@V?$_Vector_val@U?$_Simple_types@V?$_List_unchecked_iterator@V?$_List_val@U?$_List_simple_types@U?$pair@$$CBV?$basic_string@DU?$char_traits@D@std@@V?$allocator@D@2@@std@@H@std@@@std@@@std@@@std@@@std@@@2@$00@std@@QAE@U_One_then_variadic_args_t@1@ABV?$allocator@U?$pair@$$CBV?$basic_string@DU?$char_traits@D@std@@V?$allocator@D@2@@std@@H@std@@@1@@Z ; std::_Compressed_pair<std::allocator<std::_List_unchecked_iterator<std::_List_val<std::_List_simple_types<std::pair<std::basic_string<char,std::char_traits<char>,std::allocator<char> > const ,int> > > > >,std::_Vector_val<std::_Simple_types<std::_List_unchecked_iterator<std::_List_val<std::_List_simple_types<std::pair<std::basic_string<char,std::char_traits<char>,std::allocator<char> > const ,int> > > > > >,1>::_Compressed_pair<std::allocator<std::_List_unchecked_iterator<std::_List_val<std::_List_simple_types<std::pair<std::basic_string<char,std::char_traits<char>,std::allocator<char> > const ,int> > > > >,std::_Vector_val<std::_Simple_types<std::_List_unchecked_iterator<std::_List_val<std::_List_simple_types<std::pair<std::basic_string<char,std::char_traits<char>,std::allocator<char> > const ,int> > > > > >,1><std::allocator<std::pair<std::basic_string<char,std::char_traits<char>,std::allocator<char> > const ,int> > const &>
PUBLIC	??$?0U?$pair@$$CBV?$basic_string@DU?$char_traits@D@std@@V?$allocator@D@2@@std@@H@std@@@?$allocator@V?$_List_unchecked_iterator@V?$_List_val@U?$_List_simple_types@U?$pair@$$CBV?$basic_string@DU?$char_traits@D@std@@V?$allocator@D@2@@std@@H@std@@@std@@@std@@@std@@@std@@QAE@ABV?$allocator@U?$pair@$$CBV?$basic_string@DU?$char_traits@D@std@@V?$allocator@D@2@@std@@H@std@@@1@@Z ; std::allocator<std::_List_unchecked_iterator<std::_List_val<std::_List_simple_types<std::pair<std::basic_string<char,std::char_traits<char>,std::allocator<char> > const ,int> > > > >::allocator<std::_List_unchecked_iterator<std::_List_val<std::_List_simple_types<std::pair<std::basic_string<char,std::char_traits<char>,std::allocator<char> > const ,int> > > > ><std::pair<std::basic_string<char,std::char_traits<char>,std::allocator<char> > const ,int> >
PUBLIC	??$_Freenode@V?$allocator@U?$_List_node@U?$pair@$$CBV?$basic_string@DU?$char_traits@D@std@@V?$allocator@D@2@@std@@H@std@@PAX@std@@@std@@@?$_List_node@U?$pair@$$CBV?$basic_string@DU?$char_traits@D@std@@V?$allocator@D@2@@std@@H@std@@PAX@std@@SAXAAV?$allocator@U?$_List_node@U?$pair@$$CBV?$basic_string@DU?$char_traits@D@std@@V?$allocator@D@2@@std@@H@std@@PAX@std@@@1@PAU01@@Z ; std::_List_node<std::pair<std::basic_string<char,std::char_traits<char>,std::allocator<char> > const ,int>,void *>::_Freenode<std::allocator<std::_List_node<std::pair<std::basic_string<char,std::char_traits<char>,std::allocator<char> > const ,int>,void *> > >
PUBLIC	??$_Destroy_in_place@PAU?$_List_node@U?$pair@$$CBV?$basic_string@DU?$char_traits@D@std@@V?$allocator@D@2@@std@@H@std@@PAX@std@@@std@@YAXAAPAU?$_List_node@U?$pair@$$CBV?$basic_string@DU?$char_traits@D@std@@V?$allocator@D@2@@std@@H@std@@PAX@0@@Z ; std::_Destroy_in_place<std::_List_node<std::pair<std::basic_string<char,std::char_traits<char>,std::allocator<char> > const ,int>,void *> *>
PUBLIC	??$forward@U_Zero_then_variadic_args_t@std@@@std@@YA$$QAU_Zero_then_variadic_args_t@0@AAU10@@Z ; std::forward<std::_Zero_then_variadic_args_t>
PUBLIC	??$forward@M@std@@YA$$QAMAAM@Z			; std::forward<float>
PUBLIC	??$forward@ABV?$allocator@U?$pair@$$CBHV?$basic_string@DU?$char_traits@D@std@@V?$allocator@D@2@@std@@@std@@@std@@@std@@YAABV?$allocator@U?$pair@$$CBHV?$basic_string@DU?$char_traits@D@std@@V?$allocator@D@2@@std@@@std@@@0@ABV10@@Z ; std::forward<std::allocator<std::pair<int const ,std::basic_string<char,std::char_traits<char>,std::allocator<char> > > > const &>
PUBLIC	??$?0ABV?$allocator@U?$pair@$$CBHV?$basic_string@DU?$char_traits@D@std@@V?$allocator@D@2@@std@@@std@@@std@@$$V@?$_Compressed_pair@V?$allocator@V?$_List_unchecked_iterator@V?$_List_val@U?$_List_simple_types@U?$pair@$$CBHV?$basic_string@DU?$char_traits@D@std@@V?$allocator@D@2@@std@@@std@@@std@@@std@@@std@@@std@@V?$_Vector_val@U?$_Simple_types@V?$_List_unchecked_iterator@V?$_List_val@U?$_List_simple_types@U?$pair@$$CBHV?$basic_string@DU?$char_traits@D@std@@V?$allocator@D@2@@std@@@std@@@std@@@std@@@std@@@std@@@2@$00@std@@QAE@U_One_then_variadic_args_t@1@ABV?$allocator@U?$pair@$$CBHV?$basic_string@DU?$char_traits@D@std@@V?$allocator@D@2@@std@@@std@@@1@@Z ; std::_Compressed_pair<std::allocator<std::_List_unchecked_iterator<std::_List_val<std::_List_simple_types<std::pair<int const ,std::basic_string<char,std::char_traits<char>,std::allocator<char> > > > > > >,std::_Vector_val<std::_Simple_types<std::_List_unchecked_iterator<std::_List_val<std::_List_simple_types<std::pair<int const ,std::basic_string<char,std::char_traits<char>,std::allocator<char> > > > > > > >,1>::_Compressed_pair<std::allocator<std::_List_unchecked_iterator<std::_List_val<std::_List_simple_types<std::pair<int const ,std::basic_string<char,std::char_traits<char>,std::allocator<char> > > > > > >,std::_Vector_val<std::_Simple_types<std::_List_unchecked_iterator<std::_List_val<std::_List_simple_types<std::pair<int const ,std::basic_string<char,std::char_traits<char>,std::allocator<char> > > > > > > >,1><std::allocator<std::pair<int const ,std::basic_string<char,std::char_traits<char>,std::allocator<char> > > > const &>
PUBLIC	??$?0U?$pair@$$CBHV?$basic_string@DU?$char_traits@D@std@@V?$allocator@D@2@@std@@@std@@@?$allocator@V?$_List_unchecked_iterator@V?$_List_val@U?$_List_simple_types@U?$pair@$$CBHV?$basic_string@DU?$char_traits@D@std@@V?$allocator@D@2@@std@@@std@@@std@@@std@@@std@@@std@@QAE@ABV?$allocator@U?$pair@$$CBHV?$basic_string@DU?$char_traits@D@std@@V?$allocator@D@2@@std@@@std@@@1@@Z ; std::allocator<std::_List_unchecked_iterator<std::_List_val<std::_List_simple_types<std::pair<int const ,std::basic_string<char,std::char_traits<char>,std::allocator<char> > > > > > >::allocator<std::_List_unchecked_iterator<std::_List_val<std::_List_simple_types<std::pair<int const ,std::basic_string<char,std::char_traits<char>,std::allocator<char> > > > > > ><std::pair<int const ,std::basic_string<char,std::char_traits<char>,std::allocator<char> > > >
