; Listing generated by Microsoft (R) Optimizing Compiler Version 19.24.28315.0 

	TITLE	D:\Platformer\CPPGame-a38d0db726ab2ff89afdd02c18394bd0c58340c9\CPPGame-a38d0db726ab2ff89afdd02c18394bd0c58340c9\PlatformerGame\src\GameEngine\Start.cpp
	.686P
	.XMM
	include listing.inc
	.model	flat

INCLUDELIB MSVCRTD
INCLUDELIB OLDNAMES

PUBLIC	?framecap@@3NA					; framecap
PUBLIC	?CamPosition@@3U?$vec@$02M$0A@@glm@@A		; CamPosition
PUBLIC	?frames@@3HA					; frames
PUBLIC	?FPS@@3HA					; FPS
PUBLIC	?timepassed@@3NA				; timepassed
PUBLIC	?unproccesed@@3NA				; unproccesed
PUBLIC	?frameTime@@3NA					; frameTime
PUBLIC	?DeltaT@@3NA					; DeltaT
PUBLIC	?canRender@@3EA					; canRender
_BSS	SEGMENT
?CamPosition@@3U?$vec@$02M$0A@@glm@@A DB 0cH DUP (?)	; CamPosition
?frames@@3HA DD	01H DUP (?)				; frames
?FPS@@3HA DD	01H DUP (?)				; FPS
	ALIGN	8

?timepassed@@3NA DQ 01H DUP (?)				; timepassed
?unproccesed@@3NA DQ 01H DUP (?)			; unproccesed
?frameTime@@3NA DQ 01H DUP (?)				; frameTime
?DeltaT@@3NA DQ	01H DUP (?)				; DeltaT
?canRender@@3EA DB 01H DUP (?)				; canRender
_BSS	ENDS
msvcjmc	SEGMENT
__7242C389_ctype@h DB 01H
__90A1F774_basetsd@h DB 01H
__367CC694_corecrt_memcpy_s@h DB 01H
__35D7DDB3_corecrt_memory@h DB 01H
__DC9673E3_corecrt_wstring@h DB 01H
__A29A7DFB_string@h DB 01H
__3C23D660_guiddef@h DB 01H
__AF541008_winnt@h DB 01H
__0D001789_processthreadsapi@h DB 01H
__F972325D_memoryapi@h DB 01H
__76CD430D_winerror@h DB 01H
__737D49DB_winbase@h DB 01H
__1B9502AC_winuser@h DB 01H
__376EBCA0_winioctl@h DB 01H
__24E9E95F_stdlib@h DB 01H
__2CCBBE23_propidl@h DB 01H
__AD360DAF_oleauto@h DB 01H
__0396F1A5_stralign@h DB 01H
__BD3EDE1B_vcruntime_new@h DB 01H
__09340588_corecrt_math@h DB 01H
__EC2FBCF1_cstdlib DB 01H
__C0436A37_cmath DB 01H
__F66CEB67_corecrt_stdio_config@h DB 01H
__101834BA_corecrt_wstdio@h DB 01H
__AD6A91B7_stdio@h DB 01H
__4877352E_type_traits DB 01H
__B0C4CEA9_malloc@h DB 01H
__CFCEF810_vcruntime_exception@h DB 01H
__CB7CF65A_exception DB 01H
__5467428D_corecrt_wconio@h DB 01H
__4442441F_corecrt_wio@h DB 01H
__45F4AF76_corecrt_wtime@h DB 01H
__186FF47F_stat@h DB 01H
__534C724A_wchar@h DB 01H
__CDF80030_limits DB 01H
__45864D8F_xutility DB 01H
__B1B75AB9_xmemory DB 01H
__C564DC25_xstring DB 01H
__4232CC07_stdexcept DB 01H
__34C7AB85_xcall_once@h DB 01H
__8B9AB9A5_system_error DB 01H
__60622685_vcruntime_typeinfo@h DB 01H
__3559BE96_typeinfo DB 01H
__71560CBE_memory DB 01H
__5D135BB1_xfacet DB 01H
__2AD05D5E_xlocinfo DB 01H
__1A5AA814_xlocale DB 01H
__13352A4D_xiosbase DB 01H
__84DDCE03_xlocnum DB 01H
__735DEEF4_ios DB 01H
__8FA2E757_func_common@inl DB 01H
__05858A22_string DB 01H
__66607376_tuple DB 01H
__5A557807_xbit_ops@h DB 01H
__AFECAA51_xhash DB 01H
__ACF0F399_ratio DB 01H
__8AA3BE86_time@h DB 01H
__A91506BA_chrono DB 01H
__21B0B48E_algorithm DB 01H
__CBA375CA_Start@cpp DB 01H
__805570D0_vector DB 01H
__6A9A47EA_istream DB 01H
__094A72D0_ostream DB 01H
__409274BB_streambuf DB 01H
__0111D5B6_iosfwd DB 01H
__DB22397A_utility DB 01H
__2C3DAE68_xstddef DB 01H
__C1707A8C_xatomic@h DB 01H
__05392703_type_vec3@inl DB 01H
__C4BB2EA4_type_vec3@hpp DB 01H
msvcjmc	ENDS
_DATA	SEGMENT
?framecap@@3NA DQ 03f91111111111111r		; 0.0166667 ; framecap
_DATA	ENDS
PUBLIC	?__empty_global_delete@@YAXPAX@Z		; __empty_global_delete
PUBLIC	?__empty_global_delete@@YAXPAXI@Z		; __empty_global_delete
PUBLIC	??2@YAPAXIPAX@Z					; operator new
PUBLIC	___local_stdio_printf_options
PUBLIC	__vfprintf_l
PUBLIC	_printf
PUBLIC	??0exception@std@@QAE@QBDH@Z			; std::exception::exception
PUBLIC	??0exception@std@@QAE@ABV01@@Z			; std::exception::exception
PUBLIC	??1exception@std@@UAE@XZ			; std::exception::~exception
PUBLIC	?what@exception@std@@UBEPBDXZ			; std::exception::what
PUBLIC	??_Gexception@std@@UAEPAXI@Z			; std::exception::`scalar deleting destructor'
PUBLIC	??0bad_alloc@std@@AAE@QBD@Z			; std::bad_alloc::bad_alloc
PUBLIC	??1bad_alloc@std@@UAE@XZ			; std::bad_alloc::~bad_alloc
PUBLIC	??0bad_alloc@std@@QAE@ABV01@@Z			; std::bad_alloc::bad_alloc
PUBLIC	??_Gbad_alloc@std@@UAEPAXI@Z			; std::bad_alloc::`scalar deleting destructor'
PUBLIC	??0bad_array_new_length@std@@QAE@XZ		; std::bad_array_new_length::bad_array_new_length
PUBLIC	??1bad_array_new_length@std@@UAE@XZ		; std::bad_array_new_length::~bad_array_new_length
PUBLIC	??0bad_array_new_length@std@@QAE@ABV01@@Z	; std::bad_array_new_length::bad_array_new_length
PUBLIC	??_Gbad_array_new_length@std@@UAEPAXI@Z		; std::bad_array_new_length::`scalar deleting destructor'
PUBLIC	?_Throw_bad_array_new_length@std@@YAXXZ		; std::_Throw_bad_array_new_length
PUBLIC	?max@?$numeric_limits@H@std@@SAHXZ		; std::numeric_limits<int>::max
PUBLIC	?_Allocate@_Default_allocate_traits@std@@SAPAXI@Z ; std::_Default_allocate_traits::_Allocate
PUBLIC	?_Adjust_manually_vector_aligned@std@@YAXAAPAXAAI@Z ; std::_Adjust_manually_vector_aligned
PUBLIC	??$_Convert_size@I@std@@YAII@Z			; std::_Convert_size<unsigned int>
PUBLIC	??0_Container_proxy@std@@QAE@PAU_Container_base12@1@@Z ; std::_Container_proxy::_Container_proxy
PUBLIC	??0_Container_base12@std@@QAE@XZ		; std::_Container_base12::_Container_base12
PUBLIC	?_Orphan_all@_Container_base12@std@@QAEXXZ	; std::_Container_base12::_Orphan_all
PUBLIC	?_Release@_Basic_container_proxy_ptr12@std@@QAEXXZ ; std::_Basic_container_proxy_ptr12::_Release
PUBLIC	??$addressof@U_Container_base12@std@@@std@@YAPAU_Container_base12@0@AAU10@@Z ; std::addressof<std::_Container_base12>
PUBLIC	??$_Construct_in_place@U_Container_proxy@std@@PAU_Container_base12@2@@std@@YAXAAU_Container_proxy@0@$$QAPAU_Container_base12@0@@Z ; std::_Construct_in_place<std::_Container_proxy,std::_Container_base12 *>
PUBLIC	?length@?$_Narrow_char_traits@DH@std@@SAIQBD@Z	; std::_Narrow_char_traits<char,int>::length
PUBLIC	?copy@?$_Narrow_char_traits@DH@std@@SAPADQADQBDI@Z ; std::_Narrow_char_traits<char,int>::copy
PUBLIC	?move@?$_Narrow_char_traits@DH@std@@SAPADQADQBDI@Z ; std::_Narrow_char_traits<char,int>::move
PUBLIC	?assign@?$_Narrow_char_traits@DH@std@@SAXAADABD@Z ; std::_Narrow_char_traits<char,int>::assign
PUBLIC	?eq_int_type@?$_Narrow_char_traits@DH@std@@SA_NABH0@Z ; std::_Narrow_char_traits<char,int>::eq_int_type
PUBLIC	?eof@?$_Narrow_char_traits@DH@std@@SAHXZ	; std::_Narrow_char_traits<char,int>::eof
PUBLIC	??$_Min_value@I@std@@YAABIABI0@Z		; std::_Min_value<unsigned int>
PUBLIC	??0?$allocator@D@std@@QAE@XZ			; std::allocator<char>::allocator<char>
PUBLIC	?deallocate@?$allocator@D@std@@QAEXQADI@Z	; std::allocator<char>::deallocate
PUBLIC	?allocate@?$allocator@D@std@@QAEPADI@Z		; std::allocator<char>::allocate
PUBLIC	?max_size@?$_Default_allocator_traits@V?$allocator@D@std@@@std@@SAIABV?$allocator@D@2@@Z ; std::_Default_allocator_traits<std::allocator<char> >::max_size
PUBLIC	??0?$_String_val@U?$_Simple_types@D@std@@@std@@QAE@XZ ; std::_String_val<std::_Simple_types<char> >::_String_val<std::_Simple_types<char> >
PUBLIC	?_Myptr@?$_String_val@U?$_Simple_types@D@std@@@std@@QAEPADXZ ; std::_String_val<std::_Simple_types<char> >::_Myptr
PUBLIC	?_Large_string_engaged@?$_String_val@U?$_Simple_types@D@std@@@std@@QBE_NXZ ; std::_String_val<std::_Simple_types<char> >::_Large_string_engaged
PUBLIC	??0_Bxty@?$_String_val@U?$_Simple_types@D@std@@@std@@QAE@XZ ; std::_String_val<std::_Simple_types<char> >::_Bxty::_Bxty
PUBLIC	??1_Bxty@?$_String_val@U?$_Simple_types@D@std@@@std@@QAE@XZ ; std::_String_val<std::_Simple_types<char> >::_Bxty::~_Bxty
PUBLIC	??1?$_String_val@U?$_Simple_types@D@std@@@std@@QAE@XZ ; std::_String_val<std::_Simple_types<char> >::~_String_val<std::_Simple_types<char> >
PUBLIC	??0?$basic_string@DU?$char_traits@D@std@@V?$allocator@D@2@@std@@QAE@QBD@Z ; std::basic_string<char,std::char_traits<char>,std::allocator<char> >::basic_string<char,std::char_traits<char>,std::allocator<char> >
PUBLIC	??1?$basic_string@DU?$char_traits@D@std@@V?$allocator@D@2@@std@@QAE@XZ ; std::basic_string<char,std::char_traits<char>,std::allocator<char> >::~basic_string<char,std::char_traits<char>,std::allocator<char> >
PUBLIC	?assign@?$basic_string@DU?$char_traits@D@std@@V?$allocator@D@2@@std@@QAEAAV12@QBDI@Z ; std::basic_string<char,std::char_traits<char>,std::allocator<char> >::assign
PUBLIC	?assign@?$basic_string@DU?$char_traits@D@std@@V?$allocator@D@2@@std@@QAEAAV12@QBD@Z ; std::basic_string<char,std::char_traits<char>,std::allocator<char> >::assign
PUBLIC	?max_size@?$basic_string@DU?$char_traits@D@std@@V?$allocator@D@2@@std@@QBEIXZ ; std::basic_string<char,std::char_traits<char>,std::allocator<char> >::max_size
PUBLIC	?_Calculate_growth@?$basic_string@DU?$char_traits@D@std@@V?$allocator@D@2@@std@@CAIIII@Z ; std::basic_string<char,std::char_traits<char>,std::allocator<char> >::_Calculate_growth
PUBLIC	?_Calculate_growth@?$basic_string@DU?$char_traits@D@std@@V?$allocator@D@2@@std@@ABEII@Z ; std::basic_string<char,std::char_traits<char>,std::allocator<char> >::_Calculate_growth
PUBLIC	?_Tidy_init@?$basic_string@DU?$char_traits@D@std@@V?$allocator@D@2@@std@@AAEXXZ ; std::basic_string<char,std::char_traits<char>,std::allocator<char> >::_Tidy_init
PUBLIC	?_Tidy_deallocate@?$basic_string@DU?$char_traits@D@std@@V?$allocator@D@2@@std@@AAEXXZ ; std::basic_string<char,std::char_traits<char>,std::allocator<char> >::_Tidy_deallocate
PUBLIC	?_Xlen@?$basic_string@DU?$char_traits@D@std@@V?$allocator@D@2@@std@@CAXXZ ; std::basic_string<char,std::char_traits<char>,std::allocator<char> >::_Xlen
PUBLIC	?_Getal@?$basic_string@DU?$char_traits@D@std@@V?$allocator@D@2@@std@@AAEAAV?$allocator@D@2@XZ ; std::basic_string<char,std::char_traits<char>,std::allocator<char> >::_Getal
PUBLIC	?_Getal@?$basic_string@DU?$char_traits@D@std@@V?$allocator@D@2@@std@@ABEABV?$allocator@D@2@XZ ; std::basic_string<char,std::char_traits<char>,std::allocator<char> >::_Getal
PUBLIC	?_Get_first@?$_Compressed_pair@V?$allocator@D@std@@V?$_String_val@U?$_Simple_types@D@std@@@2@$00@std@@QAEAAV?$allocator@D@2@XZ ; std::_Compressed_pair<std::allocator<char>,std::_String_val<std::_Simple_types<char> >,1>::_Get_first
PUBLIC	?_Get_first@?$_Compressed_pair@V?$allocator@D@std@@V?$_String_val@U?$_Simple_types@D@std@@@2@$00@std@@QBEABV?$allocator@D@2@XZ ; std::_Compressed_pair<std::allocator<char>,std::_String_val<std::_Simple_types<char> >,1>::_Get_first
PUBLIC	??1?$_Compressed_pair@V?$allocator@D@std@@V?$_String_val@U?$_Simple_types@D@std@@@2@$00@std@@QAE@XZ ; std::_Compressed_pair<std::allocator<char>,std::_String_val<std::_Simple_types<char> >,1>::~_Compressed_pair<std::allocator<char>,std::_String_val<std::_Simple_types<char> >,1>
PUBLIC	?__autoclassinit2@Texture@@QAEXI@Z		; Texture::__autoclassinit2
PUBLIC	??0?$vec@$02M$0A@@glm@@QAE@M@Z			; glm::vec<3,float,0>::vec<3,float,0>
PUBLIC	?__autoclassinit2@Window@@QAEXI@Z		; Window::__autoclassinit2
PUBLIC	?__autoclassinit2@Entity@@QAEXI@Z		; Entity::__autoclassinit2
PUBLIC	?now@steady_clock@chrono@std@@SA?AV?$time_point@Usteady_clock@chrono@std@@V?$duration@_JU?$ratio@$00$0DLJKMKAA@@std@@@23@@23@XZ ; std::chrono::steady_clock::now
PUBLIC	?count@?$duration@_JU?$ratio@$00$0DLJKMKAA@@std@@@chrono@std@@QBE_JXZ ; std::chrono::duration<__int64,std::ratio<1,1000000000> >::count
PUBLIC	?zero@?$duration@_JU?$ratio@$00$0DLJKMKAA@@std@@@chrono@std@@SA?AV123@XZ ; std::chrono::duration<__int64,std::ratio<1,1000000000> >::zero
PUBLIC	??0?$time_point@Usteady_clock@chrono@std@@V?$duration@_JU?$ratio@$00$0DLJKMKAA@@std@@@23@@chrono@std@@QAE@XZ ; std::chrono::time_point<std::chrono::steady_clock,std::chrono::duration<__int64,std::ratio<1,1000000000> > >::time_point<std::chrono::steady_clock,std::chrono::duration<__int64,std::ratio<1,1000000000> > >
PUBLIC	??0?$time_point@Usteady_clock@chrono@std@@V?$duration@_JU?$ratio@$00$0DLJKMKAA@@std@@@23@@chrono@std@@QAE@ABV?$duration@_JU?$ratio@$00$0DLJKMKAA@@std@@@12@@Z ; std::chrono::time_point<std::chrono::steady_clock,std::chrono::duration<__int64,std::ratio<1,1000000000> > >::time_point<std::chrono::steady_clock,std::chrono::duration<__int64,std::ratio<1,1000000000> > >
PUBLIC	?time_since_epoch@?$time_point@Usteady_clock@chrono@std@@V?$duration@_JU?$ratio@$00$0DLJKMKAA@@std@@@23@@chrono@std@@QBE?AV?$duration@_JU?$ratio@$00$0DLJKMKAA@@std@@@23@XZ ; std::chrono::time_point<std::chrono::steady_clock,std::chrono::duration<__int64,std::ratio<1,1000000000> > >::time_since_epoch
PUBLIC	??$?0_JX@?$duration@_JU?$ratio@$00$0DLJKMKAA@@std@@@chrono@std@@QAE@AB_J@Z ; std::chrono::duration<__int64,std::ratio<1,1000000000> >::duration<__int64,std::ratio<1,1000000000> ><__int64,void>
PUBLIC	?count@?$duration@NU?$ratio@$00$00@std@@@chrono@std@@QBENXZ ; std::chrono::duration<double,std::ratio<1,1> >::count
PUBLIC	??$?0_JU?$ratio@$00$0DLJKMKAA@@std@@X@?$duration@NU?$ratio@$00$00@std@@@chrono@std@@QAE@ABV?$duration@_JU?$ratio@$00$0DLJKMKAA@@std@@@12@@Z ; std::chrono::duration<double,std::ratio<1,1> >::duration<double,std::ratio<1,1> ><__int64,std::ratio<1,1000000000>,void>
PUBLIC	??$duration_cast@V?$duration@NU?$ratio@$00$00@std@@@chrono@std@@_JU?$ratio@$00$0DLJKMKAA@@3@X@chrono@std@@YA?AV?$duration@NU?$ratio@$00$00@std@@@01@ABV?$duration@_JU?$ratio@$00$0DLJKMKAA@@std@@@01@@Z ; std::chrono::duration_cast<std::chrono::duration<double,std::ratio<1,1> >,__int64,std::ratio<1,1000000000>,void>
PUBLIC	??$?0NX@?$duration@NU?$ratio@$00$00@std@@@chrono@std@@QAE@ABN@Z ; std::chrono::duration<double,std::ratio<1,1> >::duration<double,std::ratio<1,1> ><double,void>
PUBLIC	?deallocate@?$allocator@U?$vec@$02M$0A@@glm@@@std@@QAEXQAU?$vec@$02M$0A@@glm@@I@Z ; std::allocator<glm::vec<3,float,0> >::deallocate
PUBLIC	??1?$vector@U?$vec@$02M$0A@@glm@@V?$allocator@U?$vec@$02M$0A@@glm@@@std@@@std@@QAE@XZ ; std::vector<glm::vec<3,float,0>,std::allocator<glm::vec<3,float,0> > >::~vector<glm::vec<3,float,0>,std::allocator<glm::vec<3,float,0> > >
PUBLIC	?_Destroy@?$vector@U?$vec@$02M$0A@@glm@@V?$allocator@U?$vec@$02M$0A@@glm@@@std@@@std@@AAEXPAU?$vec@$02M$0A@@glm@@0@Z ; std::vector<glm::vec<3,float,0>,std::allocator<glm::vec<3,float,0> > >::_Destroy
PUBLIC	?_Tidy@?$vector@U?$vec@$02M$0A@@glm@@V?$allocator@U?$vec@$02M$0A@@glm@@@std@@@std@@AAEXXZ ; std::vector<glm::vec<3,float,0>,std::allocator<glm::vec<3,float,0> > >::_Tidy
PUBLIC	?_Getal@?$vector@U?$vec@$02M$0A@@glm@@V?$allocator@U?$vec@$02M$0A@@glm@@@std@@@std@@AAEAAV?$allocator@U?$vec@$02M$0A@@glm@@@2@XZ ; std::vector<glm::vec<3,float,0>,std::allocator<glm::vec<3,float,0> > >::_Getal
PUBLIC	?_Get_first@?$_Compressed_pair@V?$allocator@U?$vec@$02M$0A@@glm@@@std@@V?$_Vector_val@U?$_Simple_types@U?$vec@$02M$0A@@glm@@@std@@@2@$00@std@@QAEAAV?$allocator@U?$vec@$02M$0A@@glm@@@2@XZ ; std::_Compressed_pair<std::allocator<glm::vec<3,float,0> >,std::_Vector_val<std::_Simple_types<glm::vec<3,float,0> > >,1>::_Get_first
PUBLIC	?deallocate@?$allocator@U?$vec@$01M$0A@@glm@@@std@@QAEXQAU?$vec@$01M$0A@@glm@@I@Z ; std::allocator<glm::vec<2,float,0> >::deallocate
PUBLIC	??1?$vector@U?$vec@$01M$0A@@glm@@V?$allocator@U?$vec@$01M$0A@@glm@@@std@@@std@@QAE@XZ ; std::vector<glm::vec<2,float,0>,std::allocator<glm::vec<2,float,0> > >::~vector<glm::vec<2,float,0>,std::allocator<glm::vec<2,float,0> > >
PUBLIC	?_Destroy@?$vector@U?$vec@$01M$0A@@glm@@V?$allocator@U?$vec@$01M$0A@@glm@@@std@@@std@@AAEXPAU?$vec@$01M$0A@@glm@@0@Z ; std::vector<glm::vec<2,float,0>,std::allocator<glm::vec<2,float,0> > >::_Destroy
PUBLIC	?_Tidy@?$vector@U?$vec@$01M$0A@@glm@@V?$allocator@U?$vec@$01M$0A@@glm@@@std@@@std@@AAEXXZ ; std::vector<glm::vec<2,float,0>,std::allocator<glm::vec<2,float,0> > >::_Tidy
PUBLIC	?_Getal@?$vector@U?$vec@$01M$0A@@glm@@V?$allocator@U?$vec@$01M$0A@@glm@@@std@@@std@@AAEAAV?$allocator@U?$vec@$01M$0A@@glm@@@2@XZ ; std::vector<glm::vec<2,float,0>,std::allocator<glm::vec<2,float,0> > >::_Getal
PUBLIC	?_Get_first@?$_Compressed_pair@V?$allocator@U?$vec@$01M$0A@@glm@@@std@@V?$_Vector_val@U?$_Simple_types@U?$vec@$01M$0A@@glm@@@std@@@2@$00@std@@QAEAAV?$allocator@U?$vec@$01M$0A@@glm@@@2@XZ ; std::_Compressed_pair<std::allocator<glm::vec<2,float,0> >,std::_Vector_val<std::_Simple_types<glm::vec<2,float,0> > >,1>::_Get_first
PUBLIC	?deallocate@?$allocator@U?$vec@$02I$0A@@glm@@@std@@QAEXQAU?$vec@$02I$0A@@glm@@I@Z ; std::allocator<glm::vec<3,unsigned int,0> >::deallocate
PUBLIC	??1?$vector@U?$vec@$02I$0A@@glm@@V?$allocator@U?$vec@$02I$0A@@glm@@@std@@@std@@QAE@XZ ; std::vector<glm::vec<3,unsigned int,0>,std::allocator<glm::vec<3,unsigned int,0> > >::~vector<glm::vec<3,unsigned int,0>,std::allocator<glm::vec<3,unsigned int,0> > >
PUBLIC	?_Destroy@?$vector@U?$vec@$02I$0A@@glm@@V?$allocator@U?$vec@$02I$0A@@glm@@@std@@@std@@AAEXPAU?$vec@$02I$0A@@glm@@0@Z ; std::vector<glm::vec<3,unsigned int,0>,std::allocator<glm::vec<3,unsigned int,0> > >::_Destroy
PUBLIC	?_Tidy@?$vector@U?$vec@$02I$0A@@glm@@V?$allocator@U?$vec@$02I$0A@@glm@@@std@@@std@@AAEXXZ ; std::vector<glm::vec<3,unsigned int,0>,std::allocator<glm::vec<3,unsigned int,0> > >::_Tidy
PUBLIC	?_Getal@?$vector@U?$vec@$02I$0A@@glm@@V?$allocator@U?$vec@$02I$0A@@glm@@@std@@@std@@AAEAAV?$allocator@U?$vec@$02I$0A@@glm@@@2@XZ ; std::vector<glm::vec<3,unsigned int,0>,std::allocator<glm::vec<3,unsigned int,0> > >::_Getal
PUBLIC	?_Get_first@?$_Compressed_pair@V?$allocator@U?$vec@$02I$0A@@glm@@@std@@V?$_Vector_val@U?$_Simple_types@U?$vec@$02I$0A@@glm@@@std@@@2@$00@std@@QAEAAV?$allocator@U?$vec@$02I$0A@@glm@@@2@XZ ; std::_Compressed_pair<std::allocator<glm::vec<3,unsigned int,0> >,std::_Vector_val<std::_Simple_types<glm::vec<3,unsigned int,0> > >,1>::_Get_first
PUBLIC	??1objLoader@@QAE@XZ				; objLoader::~objLoader
PUBLIC	?__autoclassinit2@objLoader@@QAEXI@Z		; objLoader::__autoclassinit2
PUBLIC	??$?0HHH@?$vec@$02M$0A@@glm@@QAE@HHH@Z		; glm::vec<3,float,0>::vec<3,float,0><int,int,int>
PUBLIC	?Input@@YAXXZ					; Input
PUBLIC	?fps@@YAXXZ					; fps
PUBLIC	??$?GUsteady_clock@chrono@std@@V?$duration@_JU?$ratio@$00$0DLJKMKAA@@std@@@12@V312@@chrono@std@@YA?AV?$duration@_JU?$ratio@$00$0DLJKMKAA@@std@@@01@ABV?$time_point@Usteady_clock@chrono@std@@V?$duration@_JU?$ratio@$00$0DLJKMKAA@@std@@@23@@01@0@Z ; std::chrono::operator-<std::chrono::steady_clock,std::chrono::duration<__int64,std::ratio<1,1000000000> >,std::chrono::duration<__int64,std::ratio<1,1000000000> > >
PUBLIC	??$?6U?$char_traits@D@std@@@std@@YAAAV?$basic_ostream@DU?$char_traits@D@std@@@0@AAV10@PBD@Z ; std::operator<<<std::char_traits<char> >
PUBLIC	??$endl@DU?$char_traits@D@std@@@std@@YAAAV?$basic_ostream@DU?$char_traits@D@std@@@0@AAV10@@Z ; std::endl<char,std::char_traits<char> >
PUBLIC	?intFPS@@YAXXZ					; intFPS
PUBLIC	_main
PUBLIC	??$?0M$0A@@?$vec@$02I$0A@@glm@@QAE@ABU?$vec@$02M$0A@@1@@Z ; glm::vec<3,unsigned int,0>::vec<3,unsigned int,0><float,0>
PUBLIC	??$?0HMH@?$vec@$02M$0A@@glm@@QAE@HMH@Z		; glm::vec<3,float,0>::vec<3,float,0><int,float,int>
PUBLIC	?allocate@?$allocator@U_Container_proxy@std@@@std@@QAEPAU_Container_proxy@2@I@Z ; std::allocator<std::_Container_proxy>::allocate
PUBLIC	??$?0U?$vec@$02I$0A@@glm@@@?$allocator@U_Container_proxy@std@@@std@@QAE@ABV?$allocator@U?$vec@$02I$0A@@glm@@@1@@Z ; std::allocator<std::_Container_proxy>::allocator<std::_Container_proxy><glm::vec<3,unsigned int,0> >
PUBLIC	??$exchange@PAU_Container_proxy@std@@$$T@std@@YAPAU_Container_proxy@0@AAPAU10@$$QA$$T@Z ; std::exchange<std::_Container_proxy *,std::nullptr_t>
PUBLIC	??$_Delete_plain_internal@V?$allocator@U_Container_proxy@std@@@std@@@std@@YAXAAV?$allocator@U_Container_proxy@std@@@0@QAU_Container_proxy@0@@Z ; std::_Delete_plain_internal<std::allocator<std::_Container_proxy> >
PUBLIC	??$?0U?$vec@$01M$0A@@glm@@@?$allocator@U_Container_proxy@std@@@std@@QAE@ABV?$allocator@U?$vec@$01M$0A@@glm@@@1@@Z ; std::allocator<std::_Container_proxy>::allocator<std::_Container_proxy><glm::vec<2,float,0> >
PUBLIC	??$?0U?$vec@$02M$0A@@glm@@@?$allocator@U_Container_proxy@std@@@std@@QAE@ABV?$allocator@U?$vec@$02M$0A@@glm@@@1@@Z ; std::allocator<std::_Container_proxy>::allocator<std::_Container_proxy><glm::vec<3,float,0> >
PUBLIC	?zero@?$duration_values@_J@chrono@std@@SA_JXZ	; std::chrono::duration_values<__int64>::zero
PUBLIC	??0_Sentry_base@?$basic_ostream@DU?$char_traits@D@std@@@std@@QAE@AAV12@@Z ; std::basic_ostream<char,std::char_traits<char> >::_Sentry_base::_Sentry_base
PUBLIC	??1_Sentry_base@?$basic_ostream@DU?$char_traits@D@std@@@std@@QAE@XZ ; std::basic_ostream<char,std::char_traits<char> >::_Sentry_base::~_Sentry_base
PUBLIC	??0sentry@?$basic_ostream@DU?$char_traits@D@std@@@std@@QAE@AAV12@@Z ; std::basic_ostream<char,std::char_traits<char> >::sentry::sentry
PUBLIC	??1sentry@?$basic_ostream@DU?$char_traits@D@std@@@std@@QAE@XZ ; std::basic_ostream<char,std::char_traits<char> >::sentry::~sentry
PUBLIC	??Bsentry@?$basic_ostream@DU?$char_traits@D@std@@@std@@QBE_NXZ ; std::basic_ostream<char,std::char_traits<char> >::sentry::operator bool
PUBLIC	??0?$_Container_proxy_ptr12@V?$allocator@U_Container_proxy@std@@@std@@@std@@QAE@AAV?$allocator@U_Container_proxy@std@@@1@AAU_Container_base12@1@@Z ; std::_Container_proxy_ptr12<std::allocator<std::_Container_proxy> >::_Container_proxy_ptr12<std::allocator<std::_Container_proxy> >
PUBLIC	??1?$_Container_proxy_ptr12@V?$allocator@U_Container_proxy@std@@@std@@@std@@QAE@XZ ; std::_Container_proxy_ptr12<std::allocator<std::_Container_proxy> >::~_Container_proxy_ptr12<std::allocator<std::_Container_proxy> >
PUBLIC	??$_Unfancy@D@std@@YAPADPAD@Z			; std::_Unfancy<char>
PUBLIC	??$?0D@?$allocator@U_Container_proxy@std@@@std@@QAE@ABV?$allocator@D@1@@Z ; std::allocator<std::_Container_proxy>::allocator<std::_Container_proxy><char>
PUBLIC	??$?0$$V@?$_Compressed_pair@V?$allocator@D@std@@V?$_String_val@U?$_Simple_types@D@std@@@2@$00@std@@QAE@U_Zero_then_variadic_args_t@1@@Z ; std::_Compressed_pair<std::allocator<char>,std::_String_val<std::_Simple_types<char> >,1>::_Compressed_pair<std::allocator<char>,std::_String_val<std::_Simple_types<char> >,1><>
PUBLIC	??$_Unfancy@U_Container_proxy@std@@@std@@YAPAU_Container_proxy@0@PAU10@@Z ; std::_Unfancy<std::_Container_proxy>
PUBLIC	??$_Destroy_in_place@PAD@std@@YAXAAPAD@Z	; std::_Destroy_in_place<char *>
PUBLIC	??$_Max_value@I@std@@YAABIABI0@Z		; std::_Max_value<unsigned int>
PUBLIC	??R<lambda_9366063389c5f42a00a5088cf24e69de>@@QBEXQADIQBD@Z ; <lambda_9366063389c5f42a00a5088cf24e69de>::operator()
PUBLIC	??$_Reallocate_for@V<lambda_9366063389c5f42a00a5088cf24e69de>@@PBD@?$basic_string@DU?$char_traits@D@std@@V?$allocator@D@2@@std@@AAEAAV01@IV<lambda_9366063389c5f42a00a5088cf24e69de>@@PBD@Z ; std::basic_string<char,std::char_traits<char>,std::allocator<char> >::_Reallocate_for<<lambda_9366063389c5f42a00a5088cf24e69de>,char const *>
PUBLIC	??$_Construct_in_place@PADABQAD@std@@YAXAAPADABQAD@Z ; std::_Construct_in_place<char *,char * const &>
PUBLIC	??$_Get_size_of_n@$00@std@@YAII@Z		; std::_Get_size_of_n<1>
PUBLIC	??$_Allocate@$07U_Default_allocate_traits@std@@$0A@@std@@YAPAXI@Z ; std::_Allocate<8,std::_Default_allocate_traits,0>
PUBLIC	??$_Deallocate@$07$0A@@std@@YAXPAXI@Z		; std::_Deallocate<8,0>
PUBLIC	??$_Get_size_of_n@$07@std@@YAII@Z		; std::_Get_size_of_n<8>
PUBLIC	??$_Destroy_range@V?$allocator@U?$vec@$02I$0A@@glm@@@std@@@std@@YAXPAU?$vec@$02I$0A@@glm@@QAU12@AAV?$allocator@U?$vec@$02I$0A@@glm@@@0@@Z ; std::_Destroy_range<std::allocator<glm::vec<3,unsigned int,0> > >
PUBLIC	??$_Destroy_range@V?$allocator@U?$vec@$01M$0A@@glm@@@std@@@std@@YAXPAU?$vec@$01M$0A@@glm@@QAU12@AAV?$allocator@U?$vec@$01M$0A@@glm@@@0@@Z ; std::_Destroy_range<std::allocator<glm::vec<2,float,0> > >
PUBLIC	??$_Destroy_range@V?$allocator@U?$vec@$02M$0A@@glm@@@std@@@std@@YAXPAU?$vec@$02M$0A@@glm@@QAU12@AAV?$allocator@U?$vec@$02M$0A@@glm@@@0@@Z ; std::_Destroy_range<std::allocator<glm::vec<3,float,0> > >
PUBLIC	??$addressof@U_Container_proxy@std@@@std@@YAPAU_Container_proxy@0@AAU10@@Z ; std::addressof<std::_Container_proxy>
PUBLIC	??$forward@PAU_Container_base12@std@@@std@@YA$$QAPAU_Container_base12@0@AAPAU10@@Z ; std::forward<std::_Container_base12 *>
PUBLIC	??$?G_JU?$ratio@$00$0DLJKMKAA@@std@@_JU01@@chrono@std@@YA?AV?$duration@_JU?$ratio@$00$0DLJKMKAA@@std@@@01@ABV201@0@Z ; std::chrono::operator-<__int64,std::ratio<1,1000000000>,__int64,std::ratio<1,1000000000> >
PUBLIC	??$_Deallocate_plain@V?$allocator@U_Container_proxy@std@@@std@@@std@@YAXAAV?$allocator@U_Container_proxy@std@@@0@QAU_Container_proxy@0@@Z ; std::_Deallocate_plain<std::allocator<std::_Container_proxy> >
PUBLIC	??$addressof@PAD@std@@YAPAPADAAPAD@Z		; std::addressof<char *>
PUBLIC	??$forward@ABQAD@std@@YAABQADABQAD@Z		; std::forward<char * const &>
PUBLIC	??$_Allocate_manually_vector_aligned@U_Default_allocate_traits@std@@@std@@YAPAXI@Z ; std::_Allocate_manually_vector_aligned<std::_Default_allocate_traits>
PUBLIC	?deallocate@?$_Default_allocator_traits@V?$allocator@U_Container_proxy@std@@@std@@@std@@SAXAAV?$allocator@U_Container_proxy@std@@@2@QAU_Container_proxy@2@I@Z ; std::_Default_allocator_traits<std::allocator<std::_Container_proxy> >::deallocate
PUBLIC	__JustMyCode_Default
PUBLIC	?_OptionsStorage@?1??__local_stdio_printf_options@@9@4_KA ; `__local_stdio_printf_options'::`2'::_OptionsStorage
PUBLIC	??_7exception@std@@6B@				; std::exception::`vftable'
PUBLIC	??_C@_0BC@EOODALEL@Unknown?5exception@		; `string'
PUBLIC	??_7bad_alloc@std@@6B@				; std::bad_alloc::`vftable'
PUBLIC	??_7bad_array_new_length@std@@6B@		; std::bad_array_new_length::`vftable'
PUBLIC	??_C@_0BF@KINCDENJ@bad?5array?5new?5length@	; `string'
PUBLIC	__TI3?AVbad_array_new_length@std@@
PUBLIC	__CTA3?AVbad_array_new_length@std@@
PUBLIC	??_R0?AVbad_array_new_length@std@@@8		; std::bad_array_new_length `RTTI Type Descriptor'
PUBLIC	__CT??_R0?AVbad_array_new_length@std@@@8??0bad_array_new_length@std@@QAE@ABV01@@Z12
PUBLIC	??_R0?AVbad_alloc@std@@@8			; std::bad_alloc `RTTI Type Descriptor'
PUBLIC	__CT??_R0?AVbad_alloc@std@@@8??0bad_alloc@std@@QAE@ABV01@@Z12
PUBLIC	??_R0?AVexception@std@@@8			; std::exception `RTTI Type Descriptor'
PUBLIC	__CT??_R0?AVexception@std@@@8??0exception@std@@QAE@ABV01@@Z12
PUBLIC	?__LINE__Var@?0??_Adjust_manually_vector_aligned@std@@YAXAAPAXAAI@Z@4JA ; `std::_Adjust_manually_vector_aligned'::`1'::__LINE__Var
PUBLIC	??_C@_0BB@FCMFBGOM@invalid?5argument@		; `string'
PUBLIC	??_C@_02DKCKIIND@?$CFs@				; `string'
PUBLIC	??_C@_0GI@JKOMEBKC@C?3?2Program?5Files?5?$CIx86?$CJ?2Microsof@ ; `string'
PUBLIC	??_C@_1NA@OANNLGA@?$AAC?$AA?3?$AA?2?$AAP?$AAr?$AAo?$AAg?$AAr?$AAa?$AAm?$AA?5?$AAF?$AAi?$AAl?$AAe@ ; `string'
PUBLIC	??_C@_1EK@NIFDJFDG@?$AAs?$AAt?$AAd?$AA?3?$AA?3?$AA_?$AAA?$AAd?$AAj?$AAu?$AAs?$AAt?$AA_?$AAm?$AAa@ ; `string'
PUBLIC	??_C@_1CG@JNLFBNGN@?$AA?$CC?$AAi?$AAn?$AAv?$AAa?$AAl?$AAi?$AAd?$AA?5?$AAa?$AAr?$AAg?$AAu?$AAm?$AAe@ ; `string'
PUBLIC	?Position@@3U?$vec@$02M$0A@@glm@@A		; Position
PUBLIC	?lightPosition@@3U?$vec@$02M$0A@@glm@@A		; lightPosition
PUBLIC	?window@@3VWindow@@A				; window
PUBLIC	??_C@_08CEDOAIBO@Engine3d@			; `string'
PUBLIC	?Time1@@3V?$time_point@Usteady_clock@chrono@std@@V?$duration@_JU?$ratio@$00$0DLJKMKAA@@std@@@23@@chrono@std@@A ; Time1
PUBLIC	?Time2@@3V?$time_point@Usteady_clock@chrono@std@@V?$duration@_JU?$ratio@$00$0DLJKMKAA@@std@@@23@@chrono@std@@A ; Time2
PUBLIC	?lastFrame@@3V?$time_point@Usteady_clock@chrono@std@@V?$duration@_JU?$ratio@$00$0DLJKMKAA@@std@@@23@@chrono@std@@A ; lastFrame
PUBLIC	?now@@3V?$time_point@Usteady_clock@chrono@std@@V?$duration@_JU?$ratio@$00$0DLJKMKAA@@std@@@23@@chrono@std@@A ; now
PUBLIC	??_C@_04CBHBHCPO@FPS?$DN@			; `string'
PUBLIC	??_C@_06NHAKHCIK@Shader@			; `string'
PUBLIC	??_C@_09MGGOFKHG@texDragon@			; `string'
PUBLIC	??_C@_06OBNGLPMO@dragon@			; `string'
PUBLIC	??_C@_0L@PPHAJBEH@projection@			; `string'
PUBLIC	??_C@_03EIGHKCEN@rts@				; `string'
PUBLIC	??_C@_07PKJOFHPL@sampler@			; `string'
PUBLIC	??_C@_0O@POHKLELN@LightPosition@		; `string'
PUBLIC	??_C@_0L@HNLDIBIB@lightColor@			; `string'
PUBLIC	??_C@_08HPPOJBLD@haslight@			; `string'
PUBLIC	??_C@_0EB@CJPEBOIB@Closing?9?9?9?9?9?9?9?9?9?9?9?9?9?9?9?9?9?9?9?9?9?9?9?9@ ; `string'
PUBLIC	??_C@_0BA@JFNIOLAK@string?5too?5long@		; `string'
PUBLIC	??_C@_1EO@GFNCMDLA@?$AAs?$AAt?$AAd?$AA?3?$AA?3?$AA_?$AAA?$AAl?$AAl?$AAo?$AAc?$AAa?$AAt?$AAe?$AA_@ ; `string'
PUBLIC	??_R4exception@std@@6B@				; std::exception::`RTTI Complete Object Locator'
PUBLIC	??_R3exception@std@@8				; std::exception::`RTTI Class Hierarchy Descriptor'
PUBLIC	??_R2exception@std@@8				; std::exception::`RTTI Base Class Array'
PUBLIC	??_R1A@?0A@EA@exception@std@@8			; std::exception::`RTTI Base Class Descriptor at (0,-1,0,64)'
PUBLIC	??_R4bad_alloc@std@@6B@				; std::bad_alloc::`RTTI Complete Object Locator'
PUBLIC	??_R3bad_alloc@std@@8				; std::bad_alloc::`RTTI Class Hierarchy Descriptor'
PUBLIC	??_R2bad_alloc@std@@8				; std::bad_alloc::`RTTI Base Class Array'
PUBLIC	??_R1A@?0A@EA@bad_alloc@std@@8			; std::bad_alloc::`RTTI Base Class Descriptor at (0,-1,0,64)'
PUBLIC	??_R4bad_array_new_length@std@@6B@		; std::bad_array_new_length::`RTTI Complete Object Locator'
PUBLIC	??_R3bad_array_new_length@std@@8		; std::bad_array_new_length::`RTTI Class Hierarchy Descriptor'
PUBLIC	??_R2bad_array_new_length@std@@8		; std::bad_array_new_length::`RTTI Base Class Array'
PUBLIC	??_R1A@?0A@EA@bad_array_new_length@std@@8	; std::bad_array_new_length::`RTTI Base Class Descriptor at (0,-1,0,64)'
PUBLIC	__real@3f800000
PUBLIC	__real@3ff0000000000000
PUBLIC	__real@40400000
PUBLIC	__real@41cdcd6500000000
PUBLIC	__real@428c0000
PUBLIC	__real@43f00000
PUBLIC	__real@44200000
EXTRN	??2@YAPAXI@Z:PROC				; operator new
EXTRN	??3@YAXPAXI@Z:PROC				; operator delete
EXTRN	__imp___invalid_parameter:PROC
EXTRN	_memcpy:PROC
EXTRN	_memmove:PROC
EXTRN	_strlen:PROC
EXTRN	__imp___CrtDbgReport:PROC
EXTRN	__imp_??0_Lockit@std@@QAE@H@Z:PROC
EXTRN	__imp_??1_Lockit@std@@QAE@XZ:PROC
EXTRN	__imp____acrt_iob_func:PROC
EXTRN	__imp____stdio_common_vfprintf:PROC
EXTRN	?uncaught_exception@std@@YA_NXZ:PROC		; std::uncaught_exception
EXTRN	___std_exception_copy:PROC
EXTRN	___std_exception_destroy:PROC
EXTRN	??_Eexception@std@@UAEPAXI@Z:PROC		; std::exception::`vector deleting destructor'
EXTRN	??_Ebad_alloc@std@@UAEPAXI@Z:PROC		; std::bad_alloc::`vector deleting destructor'
EXTRN	??_Ebad_array_new_length@std@@UAEPAXI@Z:PROC	; std::bad_array_new_length::`vector deleting destructor'
EXTRN	?_Xlength_error@std@@YAXPBD@Z:PROC		; std::_Xlength_error
EXTRN	__imp_?good@ios_base@std@@QBE_NXZ:PROC
EXTRN	__imp_?flags@ios_base@std@@QBEHXZ:PROC
EXTRN	__imp_?width@ios_base@std@@QBE_JXZ:PROC
EXTRN	__imp_?width@ios_base@std@@QAE_J_J@Z:PROC
EXTRN	__imp_?sputc@?$basic_streambuf@DU?$char_traits@D@std@@@std@@QAEHD@Z:PROC
EXTRN	__imp_?sputn@?$basic_streambuf@DU?$char_traits@D@std@@@std@@QAE_JPBD_J@Z:PROC
EXTRN	__imp_?setstate@?$basic_ios@DU?$char_traits@D@std@@@std@@QAEXH_N@Z:PROC
EXTRN	__imp_?tie@?$basic_ios@DU?$char_traits@D@std@@@std@@QBEPAV?$basic_ostream@DU?$char_traits@D@std@@@2@XZ:PROC
EXTRN	__imp_?rdbuf@?$basic_ios@DU?$char_traits@D@std@@@std@@QBEPAV?$basic_streambuf@DU?$char_traits@D@std@@@2@XZ:PROC
EXTRN	__imp_?fill@?$basic_ios@DU?$char_traits@D@std@@@std@@QBEDXZ:PROC
EXTRN	__imp_?widen@?$basic_ios@DU?$char_traits@D@std@@@std@@QBEDD@Z:PROC
EXTRN	__imp_?_Osfx@?$basic_ostream@DU?$char_traits@D@std@@@std@@QAEXXZ:PROC
EXTRN	__imp_??6?$basic_ostream@DU?$char_traits@D@std@@@std@@QAEAAV01@P6AAAV01@AAV01@@Z@Z:PROC
EXTRN	__imp_??6?$basic_ostream@DU?$char_traits@D@std@@@std@@QAEAAV01@H@Z:PROC
EXTRN	__imp_?put@?$basic_ostream@DU?$char_traits@D@std@@@std@@QAEAAV12@D@Z:PROC
EXTRN	__imp_?flush@?$basic_ostream@DU?$char_traits@D@std@@@std@@QAEAAV12@XZ:PROC
EXTRN	??0Model@@QAE@V?$vector@U?$vec@$02M$0A@@glm@@V?$allocator@U?$vec@$02M$0A@@glm@@@std@@@std@@V?$vector@U?$vec@$01M$0A@@glm@@V?$allocator@U?$vec@$01M$0A@@glm@@@std@@@2@0V?$vector@U?$vec@$02I$0A@@glm@@V?$allocator@U?$vec@$02I$0A@@glm@@@std@@@2@@Z:PROC ; Model::Model
EXTRN	??1Model@@QAE@XZ:PROC				; Model::~Model
EXTRN	??0ShaderProgram@@QAE@AAV?$basic_string@DU?$char_traits@D@std@@V?$allocator@D@2@@std@@@Z:PROC ; ShaderProgram::ShaderProgram
EXTRN	?Bind@ShaderProgram@@QAEXXZ:PROC		; ShaderProgram::Bind
EXTRN	?makeLocation@ShaderProgram@@QAEHQBD@Z:PROC	; ShaderProgram::makeLocation
EXTRN	?loadBool@ShaderProgram@@QAEXH_N@Z:PROC		; ShaderProgram::loadBool
EXTRN	?loadInt@ShaderProgram@@QAEXHH@Z:PROC		; ShaderProgram::loadInt
EXTRN	?loadMat4@ShaderProgram@@QAEXHU?$mat@$03$03M$0A@@glm@@@Z:PROC ; ShaderProgram::loadMat4
EXTRN	?loadvec3@ShaderProgram@@QAEXHMMM@Z:PROC	; ShaderProgram::loadvec3
EXTRN	??0Texture@@QAE@V?$basic_string@DU?$char_traits@D@std@@V?$allocator@D@2@@std@@@Z:PROC ; Texture::Texture
EXTRN	??1Texture@@QAE@XZ:PROC				; Texture::~Texture
EXTRN	?Bind@Texture@@QAEXI@Z:PROC			; Texture::Bind
EXTRN	??0Camera@@QAE@MMMU?$vec@$02M$0A@@glm@@@Z:PROC	; Camera::Camera
EXTRN	?setPosition@Camera@@QAEXU?$vec@$02M$0A@@glm@@@Z:PROC ; Camera::setPosition
EXTRN	?getProjection@Camera@@QAE?AU?$mat@$03$03M$0A@@glm@@XZ:PROC ; Camera::getProjection
EXTRN	??0Window@@QAE@HHQBD@Z:PROC			; Window::Window
EXTRN	?Update@Window@@QAEXXZ:PROC			; Window::Update
EXTRN	?Render@Window@@QAEXXZ:PROC			; Window::Render
EXTRN	?clear@Window@@QAEXXZ:PROC			; Window::clear
EXTRN	?Destroy@Window@@QAEXXZ:PROC			; Window::Destroy
EXTRN	?SHouldExit@Window@@QAEEXZ:PROC			; Window::SHouldExit
EXTRN	?checkState@Window@@SAEH@Z:PROC			; Window::checkState
EXTRN	??0Entity@@QAE@PAVModel@@U?$vec@$02M$0A@@glm@@1M@Z:PROC ; Entity::Entity
EXTRN	?Draw@Entity@@QAEXXZ:PROC			; Entity::Draw
EXTRN	?setPosition@Entity@@QAEXU?$vec@$02M$0A@@glm@@@Z:PROC ; Entity::setPosition
EXTRN	?setRotation@Entity@@QAEXU?$vec@$02M$0A@@glm@@@Z:PROC ; Entity::setRotation
EXTRN	?getTRS@Entity@@QAE?AU?$mat@$03$03M$0A@@glm@@XZ:PROC ; Entity::getTRS
EXTRN	__Query_perf_counter:PROC
EXTRN	__Query_perf_frequency:PROC
EXTRN	??0objLoader@@QAE@V?$basic_string@DU?$char_traits@D@std@@V?$allocator@D@2@@std@@@Z:PROC ; objLoader::objLoader
EXTRN	?getverts@objLoader@@QAE?AV?$vector@U?$vec@$02M$0A@@glm@@V?$allocator@U?$vec@$02M$0A@@glm@@@std@@@std@@XZ:PROC ; objLoader::getverts
EXTRN	?getNormals@objLoader@@QAE?AV?$vector@U?$vec@$02M$0A@@glm@@V?$allocator@U?$vec@$02M$0A@@glm@@@std@@@std@@XZ:PROC ; objLoader::getNormals
EXTRN	?getUVS@objLoader@@QAE?AV?$vector@U?$vec@$01M$0A@@glm@@V?$allocator@U?$vec@$01M$0A@@glm@@@std@@@std@@XZ:PROC ; objLoader::getUVS
EXTRN	?getInds@objLoader@@QAE?AV?$vector@U?$vec@$02I$0A@@glm@@V?$allocator@U?$vec@$02I$0A@@glm@@@std@@@std@@XZ:PROC ; objLoader::getInds
EXTRN	??0Light@@QAE@U?$vec@$02I$0A@@glm@@U?$vec@$02M$0A@@2@@Z:PROC ; Light::Light
EXTRN	?setPosition@Light@@QAEXU?$vec@$02M$0A@@glm@@@Z:PROC ; Light::setPosition
EXTRN	?getPosition@Light@@QAE?AU?$vec@$02M$0A@@glm@@XZ:PROC ; Light::getPosition
EXTRN	?getColor@Light@@QAE?AU?$vec@$02M$0A@@glm@@XZ:PROC ; Light::getColor
EXTRN	@_RTC_CheckStackVars@8:PROC
EXTRN	@__CheckForDebuggerJustMyCode@4:PROC
EXTRN	@__security_check_cookie@4:PROC
EXTRN	__CxxThrowException@8:PROC
EXTRN	__RTC_CheckEsp:PROC
EXTRN	__RTC_InitBase:PROC
EXTRN	__RTC_Shutdown:PROC
EXTRN	___CxxFrameHandler3:PROC
EXTRN	__alldiv:PROC
EXTRN	__allmul:PROC
EXTRN	__allrem:PROC
EXTRN	__ftoui3:PROC
EXTRN	__ltod3:PROC
EXTRN	_memset:PROC
EXTRN	??_7type_info@@6B@:QWORD			; type_info::`vftable'
EXTRN	__imp_?cout@std@@3V?$basic_ostream@DU?$char_traits@D@std@@@1@A:BYTE
EXTRN	___security_cookie:DWORD
EXTRN	__fltused:DWORD
;	COMDAT ?_OptionsStorage@?1??__local_stdio_printf_options@@9@4_KA
_BSS	SEGMENT
?_OptionsStorage@?1??__local_stdio_printf_options@@9@4_KA DQ 01H DUP (?) ; `__local_stdio_printf_options'::`2'::_OptionsStorage
_BSS	ENDS
_BSS	SEGMENT
	ALIGN	4

?Position@@3U?$vec@$02M$0A@@glm@@A DB 0cH DUP (?)	; Position
?lightPosition@@3U?$vec@$02M$0A@@glm@@A DB 0cH DUP (?)	; lightPosition
?window@@3VWindow@@A DB 0cH DUP (?)			; window
?Time1@@3V?$time_point@Usteady_clock@chrono@std@@V?$duration@_JU?$ratio@$00$0DLJKMKAA@@std@@@23@@chrono@std@@A DQ 01H DUP (?) ; Time1
?Time2@@3V?$time_point@Usteady_clock@chrono@std@@V?$duration@_JU?$ratio@$00$0DLJKMKAA@@std@@@23@@chrono@std@@A DQ 01H DUP (?) ; Time2
?lastFrame@@3V?$time_point@Usteady_clock@chrono@std@@V?$duration@_JU?$ratio@$00$0DLJKMKAA@@std@@@23@@chrono@std@@A DQ 01H DUP (?) ; lastFrame
?now@@3V?$time_point@Usteady_clock@chrono@std@@V?$duration@_JU?$ratio@$00$0DLJKMKAA@@std@@@23@@chrono@std@@A DQ 01H DUP (?) ; now
_BSS	ENDS
CRT$XCU	SEGMENT
?Position$initializer$@@3P6AXXZA DD FLAT:??__EPosition@@YAXXZ ; Position$initializer$
CRT$XCU	ENDS
;	COMDAT __real@44200000
CONST	SEGMENT
__real@44200000 DD 044200000r			; 640
CONST	ENDS
;	COMDAT __real@43f00000
CONST	SEGMENT
__real@43f00000 DD 043f00000r			; 480
CONST	ENDS
;	COMDAT __real@428c0000
CONST	SEGMENT
__real@428c0000 DD 0428c0000r			; 70
CONST	ENDS
;	COMDAT __real@41cdcd6500000000
CONST	SEGMENT
__real@41cdcd6500000000 DQ 041cdcd6500000000r	; 1e+09
CONST	ENDS
;	COMDAT __real@40400000
CONST	SEGMENT
__real@40400000 DD 040400000r			; 3
CONST	ENDS
;	COMDAT __real@3ff0000000000000
CONST	SEGMENT
__real@3ff0000000000000 DQ 03ff0000000000000r	; 1
CONST	ENDS
;	COMDAT __real@3f800000
CONST	SEGMENT
__real@3f800000 DD 03f800000r			; 1
CONST	ENDS
;	COMDAT rtc$TMZ
rtc$TMZ	SEGMENT
__RTC_Shutdown.rtc$TMZ DD FLAT:__RTC_Shutdown
rtc$TMZ	ENDS
;	COMDAT rtc$IMZ
rtc$IMZ	SEGMENT
__RTC_InitBase.rtc$IMZ DD FLAT:__RTC_InitBase
rtc$IMZ	ENDS
;	COMDAT ??_R1A@?0A@EA@bad_array_new_length@std@@8
rdata$r	SEGMENT
??_R1A@?0A@EA@bad_array_new_length@std@@8 DD FLAT:??_R0?AVbad_array_new_length@std@@@8 ; std::bad_array_new_length::`RTTI Base Class Descriptor at (0,-1,0,64)'
	DD	02H
	DD	00H
	DD	0ffffffffH
	DD	00H
	DD	040H
	DD	FLAT:??_R3bad_array_new_length@std@@8
rdata$r	ENDS
;	COMDAT ??_R2bad_array_new_length@std@@8
rdata$r	SEGMENT
??_R2bad_array_new_length@std@@8 DD FLAT:??_R1A@?0A@EA@bad_array_new_length@std@@8 ; std::bad_array_new_length::`RTTI Base Class Array'
	DD	FLAT:??_R1A@?0A@EA@bad_alloc@std@@8
	DD	FLAT:??_R1A@?0A@EA@exception@std@@8
rdata$r	ENDS
;	COMDAT ??_R3bad_array_new_length@std@@8
rdata$r	SEGMENT
??_R3bad_array_new_length@std@@8 DD 00H			; std::bad_array_new_length::`RTTI Class Hierarchy Descriptor'
	DD	00H
	DD	03H
	DD	FLAT:??_R2bad_array_new_length@std@@8
rdata$r	ENDS
;	COMDAT ??_R4bad_array_new_length@std@@6B@
rdata$r	SEGMENT
??_R4bad_array_new_length@std@@6B@ DD 00H		; std::bad_array_new_length::`RTTI Complete Object Locator'
	DD	00H
	DD	00H
	DD	FLAT:??_R0?AVbad_array_new_length@std@@@8
	DD	FLAT:??_R3bad_array_new_length@std@@8
rdata$r	ENDS
;	COMDAT ??_R1A@?0A@EA@bad_alloc@std@@8
rdata$r	SEGMENT
??_R1A@?0A@EA@bad_alloc@std@@8 DD FLAT:??_R0?AVbad_alloc@std@@@8 ; std::bad_alloc::`RTTI Base Class Descriptor at (0,-1,0,64)'
	DD	01H
	DD	00H
	DD	0ffffffffH
	DD	00H
	DD	040H
	DD	FLAT:??_R3bad_alloc@std@@8
rdata$r	ENDS
;	COMDAT ??_R2bad_alloc@std@@8
rdata$r	SEGMENT
??_R2bad_alloc@std@@8 DD FLAT:??_R1A@?0A@EA@bad_alloc@std@@8 ; std::bad_alloc::`RTTI Base Class Array'
	DD	FLAT:??_R1A@?0A@EA@exception@std@@8
rdata$r	ENDS
;	COMDAT ??_R3bad_alloc@std@@8
rdata$r	SEGMENT
??_R3bad_alloc@std@@8 DD 00H				; std::bad_alloc::`RTTI Class Hierarchy Descriptor'
	DD	00H
	DD	02H
	DD	FLAT:??_R2bad_alloc@std@@8
rdata$r	ENDS
;	COMDAT ??_R4bad_alloc@std@@6B@
rdata$r	SEGMENT
??_R4bad_alloc@std@@6B@ DD 00H				; std::bad_alloc::`RTTI Complete Object Locator'
	DD	00H
	DD	00H
	DD	FLAT:??_R0?AVbad_alloc@std@@@8
	DD	FLAT:??_R3bad_alloc@std@@8
rdata$r	ENDS
;	COMDAT ??_R1A@?0A@EA@exception@std@@8
rdata$r	SEGMENT
??_R1A@?0A@EA@exception@std@@8 DD FLAT:??_R0?AVexception@std@@@8 ; std::exception::`RTTI Base Class Descriptor at (0,-1,0,64)'
	DD	00H
	DD	00H
	DD	0ffffffffH
	DD	00H
	DD	040H
	DD	FLAT:??_R3exception@std@@8
rdata$r	ENDS
;	COMDAT ??_R2exception@std@@8
rdata$r	SEGMENT
??_R2exception@std@@8 DD FLAT:??_R1A@?0A@EA@exception@std@@8 ; std::exception::`RTTI Base Class Array'
rdata$r	ENDS
;	COMDAT ??_R3exception@std@@8
rdata$r	SEGMENT
??_R3exception@std@@8 DD 00H				; std::exception::`RTTI Class Hierarchy Descriptor'
	DD	00H
	DD	01H
	DD	FLAT:??_R2exception@std@@8
rdata$r	ENDS
;	COMDAT ??_R4exception@std@@6B@
rdata$r	SEGMENT
??_R4exception@std@@6B@ DD 00H				; std::exception::`RTTI Complete Object Locator'
	DD	00H
	DD	00H
	DD	FLAT:??_R0?AVexception@std@@@8
	DD	FLAT:??_R3exception@std@@8
rdata$r	ENDS
;	COMDAT ??_C@_1EO@GFNCMDLA@?$AAs?$AAt?$AAd?$AA?3?$AA?3?$AA_?$AAA?$AAl?$AAl?$AAo?$AAc?$AAa?$AAt?$AAe?$AA_@
CONST	SEGMENT
??_C@_1EO@GFNCMDLA@?$AAs?$AAt?$AAd?$AA?3?$AA?3?$AA_?$AAA?$AAl?$AAl?$AAo?$AAc?$AAa?$AAt?$AAe?$AA_@ DB 's'
	DB	00H, 't', 00H, 'd', 00H, ':', 00H, ':', 00H, '_', 00H, 'A', 00H
	DB	'l', 00H, 'l', 00H, 'o', 00H, 'c', 00H, 'a', 00H, 't', 00H, 'e'
	DB	00H, '_', 00H, 'm', 00H, 'a', 00H, 'n', 00H, 'u', 00H, 'a', 00H
	DB	'l', 00H, 'l', 00H, 'y', 00H, '_', 00H, 'v', 00H, 'e', 00H, 'c'
	DB	00H, 't', 00H, 'o', 00H, 'r', 00H, '_', 00H, 'a', 00H, 'l', 00H
	DB	'i', 00H, 'g', 00H, 'n', 00H, 'e', 00H, 'd', 00H, 00H, 00H ; `string'
CONST	ENDS
;	COMDAT ??_C@_0BA@JFNIOLAK@string?5too?5long@
CONST	SEGMENT
??_C@_0BA@JFNIOLAK@string?5too?5long@ DB 'string too long', 00H ; `string'
CONST	ENDS
;	COMDAT ??_C@_0EB@CJPEBOIB@Closing?9?9?9?9?9?9?9?9?9?9?9?9?9?9?9?9?9?9?9?9?9?9?9?9@
CONST	SEGMENT
??_C@_0EB@CJPEBOIB@Closing?9?9?9?9?9?9?9?9?9?9?9?9?9?9?9?9?9?9?9?9?9?9?9?9@ DB 'C'
	DB	'losing-------------------------------------------------------'
	DB	'--', 00H					; `string'
CONST	ENDS
;	COMDAT ??_C@_08HPPOJBLD@haslight@
CONST	SEGMENT
??_C@_08HPPOJBLD@haslight@ DB 'haslight', 00H		; `string'
CONST	ENDS
;	COMDAT ??_C@_0L@HNLDIBIB@lightColor@
CONST	SEGMENT
??_C@_0L@HNLDIBIB@lightColor@ DB 'lightColor', 00H	; `string'
CONST	ENDS
;	COMDAT ??_C@_0O@POHKLELN@LightPosition@
CONST	SEGMENT
??_C@_0O@POHKLELN@LightPosition@ DB 'LightPosition', 00H ; `string'
CONST	ENDS
;	COMDAT ??_C@_07PKJOFHPL@sampler@
CONST	SEGMENT
??_C@_07PKJOFHPL@sampler@ DB 'sampler', 00H		; `string'
CONST	ENDS
;	COMDAT ??_C@_03EIGHKCEN@rts@
CONST	SEGMENT
??_C@_03EIGHKCEN@rts@ DB 'rts', 00H			; `string'
CONST	ENDS
;	COMDAT ??_C@_0L@PPHAJBEH@projection@
CONST	SEGMENT
??_C@_0L@PPHAJBEH@projection@ DB 'projection', 00H	; `string'
CONST	ENDS
;	COMDAT ??_C@_06OBNGLPMO@dragon@
CONST	SEGMENT
??_C@_06OBNGLPMO@dragon@ DB 'dragon', 00H		; `string'
CONST	ENDS
;	COMDAT ??_C@_09MGGOFKHG@texDragon@
CONST	SEGMENT
??_C@_09MGGOFKHG@texDragon@ DB 'texDragon', 00H		; `string'
CONST	ENDS
;	COMDAT ??_C@_06NHAKHCIK@Shader@
CONST	SEGMENT
??_C@_06NHAKHCIK@Shader@ DB 'Shader', 00H		; `string'
CONST	ENDS
;	COMDAT ??_C@_04CBHBHCPO@FPS?$DN@
CONST	SEGMENT
??_C@_04CBHBHCPO@FPS?$DN@ DB 'FPS=', 00H		; `string'
CONST	ENDS
;	COMDAT ??_C@_08CEDOAIBO@Engine3d@
CONST	SEGMENT
??_C@_08CEDOAIBO@Engine3d@ DB 'Engine3d', 00H		; `string'
CONST	ENDS
;	COMDAT ??_C@_1CG@JNLFBNGN@?$AA?$CC?$AAi?$AAn?$AAv?$AAa?$AAl?$AAi?$AAd?$AA?5?$AAa?$AAr?$AAg?$AAu?$AAm?$AAe@
CONST	SEGMENT
??_C@_1CG@JNLFBNGN@?$AA?$CC?$AAi?$AAn?$AAv?$AAa?$AAl?$AAi?$AAd?$AA?5?$AAa?$AAr?$AAg?$AAu?$AAm?$AAe@ DB '"'
	DB	00H, 'i', 00H, 'n', 00H, 'v', 00H, 'a', 00H, 'l', 00H, 'i', 00H
	DB	'd', 00H, ' ', 00H, 'a', 00H, 'r', 00H, 'g', 00H, 'u', 00H, 'm'
	DB	00H, 'e', 00H, 'n', 00H, 't', 00H, '"', 00H, 00H, 00H ; `string'
CONST	ENDS
;	COMDAT ??_C@_1EK@NIFDJFDG@?$AAs?$AAt?$AAd?$AA?3?$AA?3?$AA_?$AAA?$AAd?$AAj?$AAu?$AAs?$AAt?$AA_?$AAm?$AAa@
CONST	SEGMENT
??_C@_1EK@NIFDJFDG@?$AAs?$AAt?$AAd?$AA?3?$AA?3?$AA_?$AAA?$AAd?$AAj?$AAu?$AAs?$AAt?$AA_?$AAm?$AAa@ DB 's'
	DB	00H, 't', 00H, 'd', 00H, ':', 00H, ':', 00H, '_', 00H, 'A', 00H
	DB	'd', 00H, 'j', 00H, 'u', 00H, 's', 00H, 't', 00H, '_', 00H, 'm'
	DB	00H, 'a', 00H, 'n', 00H, 'u', 00H, 'a', 00H, 'l', 00H, 'l', 00H
	DB	'y', 00H, '_', 00H, 'v', 00H, 'e', 00H, 'c', 00H, 't', 00H, 'o'
	DB	00H, 'r', 00H, '_', 00H, 'a', 00H, 'l', 00H, 'i', 00H, 'g', 00H
	DB	'n', 00H, 'e', 00H, 'd', 00H, 00H, 00H	; `string'
CONST	ENDS
;	COMDAT ??_C@_1NA@OANNLGA@?$AAC?$AA?3?$AA?2?$AAP?$AAr?$AAo?$AAg?$AAr?$AAa?$AAm?$AA?5?$AAF?$AAi?$AAl?$AAe@
CONST	SEGMENT
??_C@_1NA@OANNLGA@?$AAC?$AA?3?$AA?2?$AAP?$AAr?$AAo?$AAg?$AAr?$AAa?$AAm?$AA?5?$AAF?$AAi?$AAl?$AAe@ DB 'C'
	DB	00H, ':', 00H, '\', 00H, 'P', 00H, 'r', 00H, 'o', 00H, 'g', 00H
	DB	'r', 00H, 'a', 00H, 'm', 00H, ' ', 00H, 'F', 00H, 'i', 00H, 'l'
	DB	00H, 'e', 00H, 's', 00H, ' ', 00H, '(', 00H, 'x', 00H, '8', 00H
	DB	'6', 00H, ')', 00H, '\', 00H, 'M', 00H, 'i', 00H, 'c', 00H, 'r'
	DB	00H, 'o', 00H, 's', 00H, 'o', 00H, 'f', 00H, 't', 00H, ' ', 00H
	DB	'V', 00H, 'i', 00H, 's', 00H, 'u', 00H, 'a', 00H, 'l', 00H, ' '
	DB	00H, 'S', 00H, 't', 00H, 'u', 00H, 'd', 00H, 'i', 00H, 'o', 00H
	DB	'\', 00H, '2', 00H, '0', 00H, '1', 00H, '9', 00H, '\', 00H, 'C'
	DB	00H, 'o', 00H, 'm', 00H, 'm', 00H, 'u', 00H, 'n', 00H, 'i', 00H
	DB	't', 00H, 'y', 00H, '\', 00H, 'V', 00H, 'C', 00H, '\', 00H, 'T'
	DB	00H, 'o', 00H, 'o', 00H, 'l', 00H, 's', 00H, '\', 00H, 'M', 00H
	DB	'S', 00H, 'V', 00H, 'C', 00H, '\', 00H, '1', 00H, '4', 00H, '.'
	DB	00H, '2', 00H, '4', 00H, '.', 00H, '2', 00H, '8', 00H, '3', 00H
	DB	'1', 00H, '4', 00H, '\', 00H, 'i', 00H, 'n', 00H, 'c', 00H, 'l'
	DB	00H, 'u', 00H, 'd', 00H, 'e', 00H, '\', 00H, 'x', 00H, 'm', 00H
	DB	'e', 00H, 'm', 00H, 'o', 00H, 'r', 00H, 'y', 00H, 00H, 00H ; `string'
CONST	ENDS
;	COMDAT ??_C@_0GI@JKOMEBKC@C?3?2Program?5Files?5?$CIx86?$CJ?2Microsof@
CONST	SEGMENT
??_C@_0GI@JKOMEBKC@C?3?2Program?5Files?5?$CIx86?$CJ?2Microsof@ DB 'C:\Pro'
	DB	'gram Files (x86)\Microsoft Visual Studio\2019\Community\VC\To'
	DB	'ols\MSVC\14.24.28314\include\xmemory', 00H	; `string'
CONST	ENDS
;	COMDAT ??_C@_02DKCKIIND@?$CFs@
CONST	SEGMENT
??_C@_02DKCKIIND@?$CFs@ DB '%s', 00H			; `string'
CONST	ENDS
;	COMDAT ??_C@_0BB@FCMFBGOM@invalid?5argument@
CONST	SEGMENT
??_C@_0BB@FCMFBGOM@invalid?5argument@ DB 'invalid argument', 00H ; `string'
CONST	ENDS
;	COMDAT ?__LINE__Var@?0??_Adjust_manually_vector_aligned@std@@YAXAAPAXAAI@Z@4JA
_DATA	SEGMENT
?__LINE__Var@?0??_Adjust_manually_vector_aligned@std@@YAXAAPAXAAI@Z@4JA DD 06aH ; `std::_Adjust_manually_vector_aligned'::`1'::__LINE__Var
_DATA	ENDS
;	COMDAT __CT??_R0?AVexception@std@@@8??0exception@std@@QAE@ABV01@@Z12
xdata$x	SEGMENT
__CT??_R0?AVexception@std@@@8??0exception@std@@QAE@ABV01@@Z12 DD 00H
	DD	FLAT:??_R0?AVexception@std@@@8
	DD	00H
	DD	0ffffffffH
	ORG $+4
	DD	0cH
	DD	FLAT:??0exception@std@@QAE@ABV01@@Z
xdata$x	ENDS
;	COMDAT ??_R0?AVexception@std@@@8
data$r	SEGMENT
??_R0?AVexception@std@@@8 DD FLAT:??_7type_info@@6B@	; std::exception `RTTI Type Descriptor'
	DD	00H
	DB	'.?AVexception@std@@', 00H
data$r	ENDS
;	COMDAT __CT??_R0?AVbad_alloc@std@@@8??0bad_alloc@std@@QAE@ABV01@@Z12
xdata$x	SEGMENT
__CT??_R0?AVbad_alloc@std@@@8??0bad_alloc@std@@QAE@ABV01@@Z12 DD 010H
	DD	FLAT:??_R0?AVbad_alloc@std@@@8
	DD	00H
	DD	0ffffffffH
	ORG $+4
	DD	0cH
	DD	FLAT:??0bad_alloc@std@@QAE@ABV01@@Z
xdata$x	ENDS
;	COMDAT ??_R0?AVbad_alloc@std@@@8
data$r	SEGMENT
??_R0?AVbad_alloc@std@@@8 DD FLAT:??_7type_info@@6B@	; std::bad_alloc `RTTI Type Descriptor'
	DD	00H
	DB	'.?AVbad_alloc@std@@', 00H
data$r	ENDS
;	COMDAT __CT??_R0?AVbad_array_new_length@std@@@8??0bad_array_new_length@std@@QAE@ABV01@@Z12
xdata$x	SEGMENT
__CT??_R0?AVbad_array_new_length@std@@@8??0bad_array_new_length@std@@QAE@ABV01@@Z12 DD 00H
	DD	FLAT:??_R0?AVbad_array_new_length@std@@@8
	DD	00H
	DD	0ffffffffH
	ORG $+4
	DD	0cH
	DD	FLAT:??0bad_array_new_length@std@@QAE@ABV01@@Z
xdata$x	ENDS
;	COMDAT ??_R0?AVbad_array_new_length@std@@@8
data$r	SEGMENT
??_R0?AVbad_array_new_length@std@@@8 DD FLAT:??_7type_info@@6B@ ; std::bad_array_new_length `RTTI Type Descriptor'
	DD	00H
	DB	'.?AVbad_array_new_length@std@@', 00H
data$r	ENDS
;	COMDAT __CTA3?AVbad_array_new_length@std@@
xdata$x	SEGMENT
__CTA3?AVbad_array_new_length@std@@ DD 03H
	DD	FLAT:__CT??_R0?AVbad_array_new_length@std@@@8??0bad_array_new_length@std@@QAE@ABV01@@Z12
	DD	FLAT:__CT??_R0?AVbad_alloc@std@@@8??0bad_alloc@std@@QAE@ABV01@@Z12
	DD	FLAT:__CT??_R0?AVexception@std@@@8??0exception@std@@QAE@ABV01@@Z12
xdata$x	ENDS
;	COMDAT __TI3?AVbad_array_new_length@std@@
xdata$x	SEGMENT
__TI3?AVbad_array_new_length@std@@ DD 00H
	DD	FLAT:??1bad_array_new_length@std@@UAE@XZ
	DD	00H
	DD	FLAT:__CTA3?AVbad_array_new_length@std@@
xdata$x	ENDS
;	COMDAT ??_C@_0BF@KINCDENJ@bad?5array?5new?5length@
CONST	SEGMENT
??_C@_0BF@KINCDENJ@bad?5array?5new?5length@ DB 'bad array new length', 00H ; `string'
CONST	ENDS
;	COMDAT ??_7bad_array_new_length@std@@6B@
CONST	SEGMENT
??_7bad_array_new_length@std@@6B@ DD FLAT:??_R4bad_array_new_length@std@@6B@ ; std::bad_array_new_length::`vftable'
	DD	FLAT:??_Ebad_array_new_length@std@@UAEPAXI@Z
	DD	FLAT:?what@exception@std@@UBEPBDXZ
CONST	ENDS
;	COMDAT ??_7bad_alloc@std@@6B@
CONST	SEGMENT
??_7bad_alloc@std@@6B@ DD FLAT:??_R4bad_alloc@std@@6B@	; std::bad_alloc::`vftable'
	DD	FLAT:??_Ebad_alloc@std@@UAEPAXI@Z
	DD	FLAT:?what@exception@std@@UBEPBDXZ
CONST	ENDS
;	COMDAT ??_C@_0BC@EOODALEL@Unknown?5exception@
CONST	SEGMENT
??_C@_0BC@EOODALEL@Unknown?5exception@ DB 'Unknown exception', 00H ; `string'
CONST	ENDS
;	COMDAT ??_7exception@std@@6B@
CONST	SEGMENT
??_7exception@std@@6B@ DD FLAT:??_R4exception@std@@6B@	; std::exception::`vftable'
	DD	FLAT:??_Eexception@std@@UAEPAXI@Z
	DD	FLAT:?what@exception@std@@UBEPBDXZ
CONST	ENDS
;	COMDAT xdata$x
xdata$x	SEGMENT
__ehfuncinfo$??$forward@ABQAD@std@@YAABQADABQAD@Z DD 019930522H
	DD	00H
	DD	00H
	DD	2 DUP(00H)
	DD	2 DUP(00H)
	DD	00H
	DD	05H
xdata$x	ENDS
;	COMDAT xdata$x
xdata$x	SEGMENT
__ehfuncinfo$??$addressof@PAD@std@@YAPAPADAAPAD@Z DD 019930522H
	DD	00H
	DD	00H
	DD	2 DUP(00H)
	DD	2 DUP(00H)
	DD	00H
	DD	05H
xdata$x	ENDS
;	COMDAT xdata$x
xdata$x	SEGMENT
__ehfuncinfo$??$_Deallocate_plain@V?$allocator@U_Container_proxy@std@@@std@@@std@@YAXAAV?$allocator@U_Container_proxy@std@@@0@QAU_Container_proxy@0@@Z DD 019930522H
	DD	00H
	DD	00H
	DD	2 DUP(00H)
	DD	2 DUP(00H)
	DD	00H
	DD	05H
xdata$x	ENDS
;	COMDAT xdata$x
xdata$x	SEGMENT
__ehfuncinfo$??$?G_JU?$ratio@$00$0DLJKMKAA@@std@@_JU01@@chrono@std@@YA?AV?$duration@_JU?$ratio@$00$0DLJKMKAA@@std@@@01@ABV201@0@Z DD 019930522H
	DD	00H
	DD	00H
	DD	2 DUP(00H)
	DD	2 DUP(00H)
	DD	00H
	DD	05H
xdata$x	ENDS
;	COMDAT xdata$x
xdata$x	SEGMENT
__ehfuncinfo$??$forward@PAU_Container_base12@std@@@std@@YA$$QAPAU_Container_base12@0@AAPAU10@@Z DD 019930522H
	DD	00H
	DD	00H
	DD	2 DUP(00H)
	DD	2 DUP(00H)
	DD	00H
	DD	05H
xdata$x	ENDS
;	COMDAT xdata$x
xdata$x	SEGMENT
__ehfuncinfo$??$addressof@U_Container_proxy@std@@@std@@YAPAU_Container_proxy@0@AAU10@@Z DD 019930522H
	DD	00H
	DD	00H
	DD	2 DUP(00H)
	DD	2 DUP(00H)
	DD	00H
	DD	05H
xdata$x	ENDS
;	COMDAT xdata$x
xdata$x	SEGMENT
__ehfuncinfo$??$_Destroy_range@V?$allocator@U?$vec@$02M$0A@@glm@@@std@@@std@@YAXPAU?$vec@$02M$0A@@glm@@QAU12@AAV?$allocator@U?$vec@$02M$0A@@glm@@@0@@Z DD 019930522H
	DD	00H
	DD	00H
	DD	2 DUP(00H)
	DD	2 DUP(00H)
	DD	00H
	DD	05H
xdata$x	ENDS
;	COMDAT xdata$x
xdata$x	SEGMENT
__ehfuncinfo$??$_Destroy_range@V?$allocator@U?$vec@$01M$0A@@glm@@@std@@@std@@YAXPAU?$vec@$01M$0A@@glm@@QAU12@AAV?$allocator@U?$vec@$01M$0A@@glm@@@0@@Z DD 019930522H
	DD	00H
	DD	00H
	DD	2 DUP(00H)
	DD	2 DUP(00H)
	DD	00H
	DD	05H
xdata$x	ENDS
;	COMDAT xdata$x
xdata$x	SEGMENT
__ehfuncinfo$??$_Destroy_range@V?$allocator@U?$vec@$02I$0A@@glm@@@std@@@std@@YAXPAU?$vec@$02I$0A@@glm@@QAU12@AAV?$allocator@U?$vec@$02I$0A@@glm@@@0@@Z DD 019930522H
	DD	00H
	DD	00H
	DD	2 DUP(00H)
	DD	2 DUP(00H)
	DD	00H
	DD	05H
xdata$x	ENDS
;	COMDAT xdata$x
xdata$x	SEGMENT
__ehfuncinfo$??$_Deallocate@$07$0A@@std@@YAXPAXI@Z DD 019930522H
	DD	00H
	DD	00H
	DD	2 DUP(00H)
	DD	2 DUP(00H)
	DD	00H
	DD	05H
xdata$x	ENDS
;	COMDAT xdata$x
xdata$x	SEGMENT
__ehfuncinfo$??$_Construct_in_place@PADABQAD@std@@YAXAAPADABQAD@Z DD 019930522H
	DD	00H
	DD	00H
	DD	2 DUP(00H)
	DD	2 DUP(00H)
	DD	00H
	DD	05H
xdata$x	ENDS
;	COMDAT xdata$x
xdata$x	SEGMENT
__ehfuncinfo$??$_Max_value@I@std@@YAABIABI0@Z DD 019930522H
	DD	00H
	DD	00H
	DD	2 DUP(00H)
	DD	2 DUP(00H)
	DD	00H
	DD	05H
xdata$x	ENDS
;	COMDAT xdata$x
xdata$x	SEGMENT
__ehfuncinfo$??$_Destroy_in_place@PAD@std@@YAXAAPAD@Z DD 019930522H
	DD	00H
	DD	00H
	DD	2 DUP(00H)
	DD	2 DUP(00H)
	DD	00H
	DD	05H
xdata$x	ENDS
;	COMDAT xdata$x
xdata$x	SEGMENT
__ehfuncinfo$??$_Unfancy@U_Container_proxy@std@@@std@@YAPAU_Container_proxy@0@PAU10@@Z DD 019930522H
	DD	00H
	DD	00H
	DD	2 DUP(00H)
	DD	2 DUP(00H)
	DD	00H
	DD	05H
xdata$x	ENDS
;	COMDAT xdata$x
xdata$x	SEGMENT
__ehfuncinfo$??$?0D@?$allocator@U_Container_proxy@std@@@std@@QAE@ABV?$allocator@D@1@@Z DD 019930522H
	DD	00H
	DD	00H
	DD	2 DUP(00H)
	DD	2 DUP(00H)
	DD	00H
	DD	05H
xdata$x	ENDS
;	COMDAT xdata$x
xdata$x	SEGMENT
__ehfuncinfo$??$_Unfancy@D@std@@YAPADPAD@Z DD 019930522H
	DD	00H
	DD	00H
	DD	2 DUP(00H)
	DD	2 DUP(00H)
	DD	00H
	DD	05H
xdata$x	ENDS
;	COMDAT xdata$x
xdata$x	SEGMENT
__ehfuncinfo$??1?$_Container_proxy_ptr12@V?$allocator@U_Container_proxy@std@@@std@@@std@@QAE@XZ DD 019930522H
	DD	00H
	DD	00H
	DD	2 DUP(00H)
	DD	2 DUP(00H)
	DD	00H
	DD	05H
xdata$x	ENDS
;	COMDAT xdata$x
xdata$x	SEGMENT
__ehfuncinfo$??1sentry@?$basic_ostream@DU?$char_traits@D@std@@@std@@QAE@XZ DD 019930522H
	DD	00H
	DD	00H
	DD	2 DUP(00H)
	DD	2 DUP(00H)
	DD	00H
	DD	05H
xdata$x	ENDS
;	COMDAT xdata$x
xdata$x	SEGMENT
__unwindtable$??0sentry@?$basic_ostream@DU?$char_traits@D@std@@@std@@QAE@AAV12@@Z DD 0ffffffffH
	DD	FLAT:__unwindfunclet$??0sentry@?$basic_ostream@DU?$char_traits@D@std@@@std@@QAE@AAV12@@Z$0
__ehfuncinfo$??0sentry@?$basic_ostream@DU?$char_traits@D@std@@@std@@QAE@AAV12@@Z DD 019930522H
	DD	01H
	DD	FLAT:__unwindtable$??0sentry@?$basic_ostream@DU?$char_traits@D@std@@@std@@QAE@AAV12@@Z
	DD	2 DUP(00H)
	DD	2 DUP(00H)
	DD	00H
	DD	01H
xdata$x	ENDS
;	COMDAT xdata$x
xdata$x	SEGMENT
__ehfuncinfo$??1_Sentry_base@?$basic_ostream@DU?$char_traits@D@std@@@std@@QAE@XZ DD 019930522H
	DD	00H
	DD	00H
	DD	2 DUP(00H)
	DD	2 DUP(00H)
	DD	00H
	DD	05H
xdata$x	ENDS
;	COMDAT xdata$x
xdata$x	SEGMENT
__ehfuncinfo$?zero@?$duration_values@_J@chrono@std@@SA_JXZ DD 019930522H
	DD	00H
	DD	00H
	DD	2 DUP(00H)
	DD	2 DUP(00H)
	DD	00H
	DD	05H
xdata$x	ENDS
;	COMDAT xdata$x
xdata$x	SEGMENT
__ehfuncinfo$??$?0U?$vec@$02M$0A@@glm@@@?$allocator@U_Container_proxy@std@@@std@@QAE@ABV?$allocator@U?$vec@$02M$0A@@glm@@@1@@Z DD 019930522H
	DD	00H
	DD	00H
	DD	2 DUP(00H)
	DD	2 DUP(00H)
	DD	00H
	DD	05H
xdata$x	ENDS
;	COMDAT xdata$x
xdata$x	SEGMENT
__ehfuncinfo$??$?0U?$vec@$01M$0A@@glm@@@?$allocator@U_Container_proxy@std@@@std@@QAE@ABV?$allocator@U?$vec@$01M$0A@@glm@@@1@@Z DD 019930522H
	DD	00H
	DD	00H
	DD	2 DUP(00H)
	DD	2 DUP(00H)
	DD	00H
	DD	05H
xdata$x	ENDS
;	COMDAT xdata$x
xdata$x	SEGMENT
__ehfuncinfo$??$_Delete_plain_internal@V?$allocator@U_Container_proxy@std@@@std@@@std@@YAXAAV?$allocator@U_Container_proxy@std@@@0@QAU_Container_proxy@0@@Z DD 019930522H
	DD	00H
	DD	00H
	DD	2 DUP(00H)
	DD	2 DUP(00H)
	DD	00H
	DD	05H
xdata$x	ENDS
;	COMDAT xdata$x
xdata$x	SEGMENT
__ehfuncinfo$??$?0U?$vec@$02I$0A@@glm@@@?$allocator@U_Container_proxy@std@@@std@@QAE@ABV?$allocator@U?$vec@$02I$0A@@glm@@@1@@Z DD 019930522H
	DD	00H
	DD	00H
	DD	2 DUP(00H)
	DD	2 DUP(00H)
	DD	00H
	DD	05H
xdata$x	ENDS
;	COMDAT xdata$x
xdata$x	SEGMENT
__ehfuncinfo$_main DD 019930522H
	DD	08H
	DD	FLAT:__unwindtable$_main
	DD	2 DUP(00H)
	DD	2 DUP(00H)
	DD	00H
	DD	01H
__unwindtable$_main DD 0ffffffffH
	DD	FLAT:__unwindfunclet$_main$0
	DD	00H
	DD	FLAT:__unwindfunclet$_main$1
	DD	00H
	DD	FLAT:__unwindfunclet$_main$3
	DD	02H
	DD	FLAT:__unwindfunclet$_main$5
	DD	03H
	DD	FLAT:__unwindfunclet$_main$6
	DD	04H
	DD	FLAT:__unwindfunclet$_main$7
	DD	05H
	DD	FLAT:__unwindfunclet$_main$8
	DD	03H
	DD	FLAT:__unwindfunclet$_main$10
xdata$x	ENDS
;	COMDAT xdata$x
xdata$x	SEGMENT
__catchsym$??$?6U?$char_traits@D@std@@@std@@YAAAV?$basic_ostream@DU?$char_traits@D@std@@@0@AAV10@PBD@Z$3 DD 040H
	DD	00H
	DD	00H
	DD	FLAT:__catch$??$?6U?$char_traits@D@std@@@std@@YAAAV?$basic_ostream@DU?$char_traits@D@std@@@0@AAV10@PBD@Z$0
__tryblocktable$??$?6U?$char_traits@D@std@@@std@@YAAAV?$basic_ostream@DU?$char_traits@D@std@@@0@AAV10@PBD@Z DD 01H
	DD	01H
	DD	02H
	DD	01H
	DD	FLAT:__catchsym$??$?6U?$char_traits@D@std@@@std@@YAAAV?$basic_ostream@DU?$char_traits@D@std@@@0@AAV10@PBD@Z$3
__unwindtable$??$?6U?$char_traits@D@std@@@std@@YAAAV?$basic_ostream@DU?$char_traits@D@std@@@0@AAV10@PBD@Z DD 0ffffffffH
	DD	FLAT:__unwindfunclet$??$?6U?$char_traits@D@std@@@std@@YAAAV?$basic_ostream@DU?$char_traits@D@std@@@0@AAV10@PBD@Z$2
	DD	00H
	DD	00H
	DD	00H
	DD	00H
__ehfuncinfo$??$?6U?$char_traits@D@std@@@std@@YAAAV?$basic_ostream@DU?$char_traits@D@std@@@0@AAV10@PBD@Z DD 019930522H
	DD	03H
	DD	FLAT:__unwindtable$??$?6U?$char_traits@D@std@@@std@@YAAAV?$basic_ostream@DU?$char_traits@D@std@@@0@AAV10@PBD@Z
	DD	01H
	DD	FLAT:__tryblocktable$??$?6U?$char_traits@D@std@@@std@@YAAAV?$basic_ostream@DU?$char_traits@D@std@@@0@AAV10@PBD@Z
	DD	2 DUP(00H)
	DD	00H
	DD	01H
xdata$x	ENDS
;	COMDAT xdata$x
xdata$x	SEGMENT
__ehfuncinfo$??$?GUsteady_clock@chrono@std@@V?$duration@_JU?$ratio@$00$0DLJKMKAA@@std@@@12@V312@@chrono@std@@YA?AV?$duration@_JU?$ratio@$00$0DLJKMKAA@@std@@@01@ABV?$time_point@Usteady_clock@chrono@std@@V?$duration@_JU?$ratio@$00$0DLJKMKAA@@std@@@23@@01@0@Z DD 019930522H
	DD	00H
	DD	00H
	DD	2 DUP(00H)
	DD	2 DUP(00H)
	DD	00H
	DD	05H
xdata$x	ENDS
;	COMDAT xdata$x
xdata$x	SEGMENT
__ehfuncinfo$?_Get_first@?$_Compressed_pair@V?$allocator@U?$vec@$02I$0A@@glm@@@std@@V?$_Vector_val@U?$_Simple_types@U?$vec@$02I$0A@@glm@@@std@@@2@$00@std@@QAEAAV?$allocator@U?$vec@$02I$0A@@glm@@@2@XZ DD 019930522H
	DD	00H
	DD	00H
	DD	2 DUP(00H)
	DD	2 DUP(00H)
	DD	00H
	DD	05H
xdata$x	ENDS
;	COMDAT xdata$x
xdata$x	SEGMENT
__ehfuncinfo$?_Getal@?$vector@U?$vec@$02I$0A@@glm@@V?$allocator@U?$vec@$02I$0A@@glm@@@std@@@std@@AAEAAV?$allocator@U?$vec@$02I$0A@@glm@@@2@XZ DD 019930522H
	DD	00H
	DD	00H
	DD	2 DUP(00H)
	DD	2 DUP(00H)
	DD	00H
	DD	05H
xdata$x	ENDS
;	COMDAT xdata$x
xdata$x	SEGMENT
__ehfuncinfo$?_Tidy@?$vector@U?$vec@$02I$0A@@glm@@V?$allocator@U?$vec@$02I$0A@@glm@@@std@@@std@@AAEXXZ DD 019930522H
	DD	00H
	DD	00H
	DD	2 DUP(00H)
	DD	2 DUP(00H)
	DD	00H
	DD	05H
xdata$x	ENDS
;	COMDAT xdata$x
xdata$x	SEGMENT
__ehfuncinfo$??1?$vector@U?$vec@$02I$0A@@glm@@V?$allocator@U?$vec@$02I$0A@@glm@@@std@@@std@@QAE@XZ DD 019930522H
	DD	00H
	DD	00H
	DD	2 DUP(00H)
	DD	2 DUP(00H)
	DD	00H
	DD	05H
xdata$x	ENDS
;	COMDAT xdata$x
xdata$x	SEGMENT
__ehfuncinfo$?_Get_first@?$_Compressed_pair@V?$allocator@U?$vec@$01M$0A@@glm@@@std@@V?$_Vector_val@U?$_Simple_types@U?$vec@$01M$0A@@glm@@@std@@@2@$00@std@@QAEAAV?$allocator@U?$vec@$01M$0A@@glm@@@2@XZ DD 019930522H
	DD	00H
	DD	00H
	DD	2 DUP(00H)
	DD	2 DUP(00H)
	DD	00H
	DD	05H
xdata$x	ENDS
;	COMDAT xdata$x
xdata$x	SEGMENT
__ehfuncinfo$?_Getal@?$vector@U?$vec@$01M$0A@@glm@@V?$allocator@U?$vec@$01M$0A@@glm@@@std@@@std@@AAEAAV?$allocator@U?$vec@$01M$0A@@glm@@@2@XZ DD 019930522H
	DD	00H
	DD	00H
	DD	2 DUP(00H)
	DD	2 DUP(00H)
	DD	00H
	DD	05H
xdata$x	ENDS
;	COMDAT xdata$x
xdata$x	SEGMENT
__ehfuncinfo$?_Tidy@?$vector@U?$vec@$01M$0A@@glm@@V?$allocator@U?$vec@$01M$0A@@glm@@@std@@@std@@AAEXXZ DD 019930522H
	DD	00H
	DD	00H
	DD	2 DUP(00H)
	DD	2 DUP(00H)
	DD	00H
	DD	05H
xdata$x	ENDS
;	COMDAT xdata$x
xdata$x	SEGMENT
__ehfuncinfo$??1?$vector@U?$vec@$01M$0A@@glm@@V?$allocator@U?$vec@$01M$0A@@glm@@@std@@@std@@QAE@XZ DD 019930522H
	DD	00H
	DD	00H
	DD	2 DUP(00H)
	DD	2 DUP(00H)
	DD	00H
	DD	05H
xdata$x	ENDS
;	COMDAT xdata$x
xdata$x	SEGMENT
__ehfuncinfo$?_Get_first@?$_Compressed_pair@V?$allocator@U?$vec@$02M$0A@@glm@@@std@@V?$_Vector_val@U?$_Simple_types@U?$vec@$02M$0A@@glm@@@std@@@2@$00@std@@QAEAAV?$allocator@U?$vec@$02M$0A@@glm@@@2@XZ DD 019930522H
	DD	00H
	DD	00H
	DD	2 DUP(00H)
	DD	2 DUP(00H)
	DD	00H
	DD	05H
xdata$x	ENDS
;	COMDAT xdata$x
xdata$x	SEGMENT
__ehfuncinfo$?_Getal@?$vector@U?$vec@$02M$0A@@glm@@V?$allocator@U?$vec@$02M$0A@@glm@@@std@@@std@@AAEAAV?$allocator@U?$vec@$02M$0A@@glm@@@2@XZ DD 019930522H
	DD	00H
	DD	00H
	DD	2 DUP(00H)
	DD	2 DUP(00H)
	DD	00H
	DD	05H
xdata$x	ENDS
;	COMDAT xdata$x
xdata$x	SEGMENT
__ehfuncinfo$?_Tidy@?$vector@U?$vec@$02M$0A@@glm@@V?$allocator@U?$vec@$02M$0A@@glm@@@std@@@std@@AAEXXZ DD 019930522H
	DD	00H
	DD	00H
	DD	2 DUP(00H)
	DD	2 DUP(00H)
	DD	00H
	DD	05H
xdata$x	ENDS
;	COMDAT xdata$x
xdata$x	SEGMENT
__ehfuncinfo$??1?$vector@U?$vec@$02M$0A@@glm@@V?$allocator@U?$vec@$02M$0A@@glm@@@std@@@std@@QAE@XZ DD 019930522H
	DD	00H
	DD	00H
	DD	2 DUP(00H)
	DD	2 DUP(00H)
	DD	00H
	DD	05H
xdata$x	ENDS
;	COMDAT xdata$x
xdata$x	SEGMENT
__ehfuncinfo$??$?0NX@?$duration@NU?$ratio@$00$00@std@@@chrono@std@@QAE@ABN@Z DD 019930522H
	DD	00H
	DD	00H
	DD	2 DUP(00H)
	DD	2 DUP(00H)
	DD	00H
	DD	05H
xdata$x	ENDS
;	COMDAT xdata$x
xdata$x	SEGMENT
__ehfuncinfo$??$duration_cast@V?$duration@NU?$ratio@$00$00@std@@@chrono@std@@_JU?$ratio@$00$0DLJKMKAA@@3@X@chrono@std@@YA?AV?$duration@NU?$ratio@$00$00@std@@@01@ABV?$duration@_JU?$ratio@$00$0DLJKMKAA@@std@@@01@@Z DD 019930522H
	DD	00H
	DD	00H
	DD	2 DUP(00H)
	DD	2 DUP(00H)
	DD	00H
	DD	05H
xdata$x	ENDS
;	COMDAT xdata$x
xdata$x	SEGMENT
__ehfuncinfo$??$?0_JU?$ratio@$00$0DLJKMKAA@@std@@X@?$duration@NU?$ratio@$00$00@std@@@chrono@std@@QAE@ABV?$duration@_JU?$ratio@$00$0DLJKMKAA@@std@@@12@@Z DD 019930522H
	DD	00H
	DD	00H
	DD	2 DUP(00H)
	DD	2 DUP(00H)
	DD	00H
	DD	05H
xdata$x	ENDS
;	COMDAT xdata$x
xdata$x	SEGMENT
__ehfuncinfo$?count@?$duration@NU?$ratio@$00$00@std@@@chrono@std@@QBENXZ DD 019930522H
	DD	00H
	DD	00H
	DD	2 DUP(00H)
	DD	2 DUP(00H)
	DD	00H
	DD	05H
xdata$x	ENDS
;	COMDAT xdata$x
xdata$x	SEGMENT
__ehfuncinfo$??$?0_JX@?$duration@_JU?$ratio@$00$0DLJKMKAA@@std@@@chrono@std@@QAE@AB_J@Z DD 019930522H
	DD	00H
	DD	00H
	DD	2 DUP(00H)
	DD	2 DUP(00H)
	DD	00H
	DD	05H
xdata$x	ENDS
;	COMDAT xdata$x
xdata$x	SEGMENT
__ehfuncinfo$?time_since_epoch@?$time_point@Usteady_clock@chrono@std@@V?$duration@_JU?$ratio@$00$0DLJKMKAA@@std@@@23@@chrono@std@@QBE?AV?$duration@_JU?$ratio@$00$0DLJKMKAA@@std@@@23@XZ DD 019930522H
	DD	00H
	DD	00H
	DD	2 DUP(00H)
	DD	2 DUP(00H)
	DD	00H
	DD	05H
xdata$x	ENDS
;	COMDAT xdata$x
xdata$x	SEGMENT
__ehfuncinfo$??0?$time_point@Usteady_clock@chrono@std@@V?$duration@_JU?$ratio@$00$0DLJKMKAA@@std@@@23@@chrono@std@@QAE@ABV?$duration@_JU?$ratio@$00$0DLJKMKAA@@std@@@12@@Z DD 019930522H
	DD	00H
	DD	00H
	DD	2 DUP(00H)
	DD	2 DUP(00H)
	DD	00H
	DD	05H
xdata$x	ENDS
;	COMDAT xdata$x
xdata$x	SEGMENT
__ehfuncinfo$??0?$time_point@Usteady_clock@chrono@std@@V?$duration@_JU?$ratio@$00$0DLJKMKAA@@std@@@23@@chrono@std@@QAE@XZ DD 019930522H
	DD	00H
	DD	00H
	DD	2 DUP(00H)
	DD	2 DUP(00H)
	DD	00H
	DD	05H
xdata$x	ENDS
;	COMDAT xdata$x
xdata$x	SEGMENT
__ehfuncinfo$?zero@?$duration@_JU?$ratio@$00$0DLJKMKAA@@std@@@chrono@std@@SA?AV123@XZ DD 019930522H
	DD	00H
	DD	00H
	DD	2 DUP(00H)
	DD	2 DUP(00H)
	DD	00H
	DD	05H
xdata$x	ENDS
;	COMDAT xdata$x
xdata$x	SEGMENT
__ehfuncinfo$?count@?$duration@_JU?$ratio@$00$0DLJKMKAA@@std@@@chrono@std@@QBE_JXZ DD 019930522H
	DD	00H
	DD	00H
	DD	2 DUP(00H)
	DD	2 DUP(00H)
	DD	00H
	DD	05H
xdata$x	ENDS
;	COMDAT xdata$x
xdata$x	SEGMENT
__ehfuncinfo$?now@steady_clock@chrono@std@@SA?AV?$time_point@Usteady_clock@chrono@std@@V?$duration@_JU?$ratio@$00$0DLJKMKAA@@std@@@23@@23@XZ DD 019930522H
	DD	00H
	DD	00H
	DD	2 DUP(00H)
	DD	2 DUP(00H)
	DD	00H
	DD	05H
xdata$x	ENDS
;	COMDAT xdata$x
xdata$x	SEGMENT
__ehfuncinfo$?_Get_first@?$_Compressed_pair@V?$allocator@D@std@@V?$_String_val@U?$_Simple_types@D@std@@@2@$00@std@@QBEABV?$allocator@D@2@XZ DD 019930522H
	DD	00H
	DD	00H
	DD	2 DUP(00H)
	DD	2 DUP(00H)
	DD	00H
	DD	05H
xdata$x	ENDS
;	COMDAT xdata$x
xdata$x	SEGMENT
__ehfuncinfo$?_Get_first@?$_Compressed_pair@V?$allocator@D@std@@V?$_String_val@U?$_Simple_types@D@std@@@2@$00@std@@QAEAAV?$allocator@D@2@XZ DD 019930522H
	DD	00H
	DD	00H
	DD	2 DUP(00H)
	DD	2 DUP(00H)
	DD	00H
	DD	05H
xdata$x	ENDS
;	COMDAT xdata$x
xdata$x	SEGMENT
__ehfuncinfo$?_Getal@?$basic_string@DU?$char_traits@D@std@@V?$allocator@D@2@@std@@ABEABV?$allocator@D@2@XZ DD 019930522H
	DD	00H
	DD	00H
	DD	2 DUP(00H)
	DD	2 DUP(00H)
	DD	00H
	DD	05H
xdata$x	ENDS
;	COMDAT xdata$x
xdata$x	SEGMENT
__ehfuncinfo$?_Getal@?$basic_string@DU?$char_traits@D@std@@V?$allocator@D@2@@std@@AAEAAV?$allocator@D@2@XZ DD 019930522H
	DD	00H
	DD	00H
	DD	2 DUP(00H)
	DD	2 DUP(00H)
	DD	00H
	DD	05H
xdata$x	ENDS
;	COMDAT xdata$x
xdata$x	SEGMENT
__ehfuncinfo$?_Tidy_deallocate@?$basic_string@DU?$char_traits@D@std@@V?$allocator@D@2@@std@@AAEXXZ DD 019930522H
	DD	00H
	DD	00H
	DD	2 DUP(00H)
	DD	2 DUP(00H)
	DD	00H
	DD	05H
xdata$x	ENDS
;	COMDAT xdata$x
xdata$x	SEGMENT
__ehfuncinfo$?_Tidy_init@?$basic_string@DU?$char_traits@D@std@@V?$allocator@D@2@@std@@AAEXXZ DD 019930522H
	DD	00H
	DD	00H
	DD	2 DUP(00H)
	DD	2 DUP(00H)
	DD	00H
	DD	05H
xdata$x	ENDS
;	COMDAT xdata$x
xdata$x	SEGMENT
__ehfuncinfo$?_Calculate_growth@?$basic_string@DU?$char_traits@D@std@@V?$allocator@D@2@@std@@ABEII@Z DD 019930522H
	DD	00H
	DD	00H
	DD	2 DUP(00H)
	DD	2 DUP(00H)
	DD	00H
	DD	05H
xdata$x	ENDS
;	COMDAT xdata$x
xdata$x	SEGMENT
__ehfuncinfo$?_Calculate_growth@?$basic_string@DU?$char_traits@D@std@@V?$allocator@D@2@@std@@CAIIII@Z DD 019930522H
	DD	00H
	DD	00H
	DD	2 DUP(00H)
	DD	2 DUP(00H)
	DD	00H
	DD	05H
xdata$x	ENDS
;	COMDAT xdata$x
xdata$x	SEGMENT
__ehfuncinfo$?max_size@?$basic_string@DU?$char_traits@D@std@@V?$allocator@D@2@@std@@QBEIXZ DD 019930522H
	DD	00H
	DD	00H
	DD	2 DUP(00H)
	DD	2 DUP(00H)
	DD	00H
	DD	05H
xdata$x	ENDS
;	COMDAT xdata$x
xdata$x	SEGMENT
__ehfuncinfo$??1?$basic_string@DU?$char_traits@D@std@@V?$allocator@D@2@@std@@QAE@XZ DD 019930522H
	DD	00H
	DD	00H
	DD	2 DUP(00H)
	DD	2 DUP(00H)
	DD	00H
	DD	05H
xdata$x	ENDS
;	COMDAT xdata$x
xdata$x	SEGMENT
__unwindtable$??0?$basic_string@DU?$char_traits@D@std@@V?$allocator@D@2@@std@@QAE@QBD@Z DD 0ffffffffH
	DD	FLAT:__unwindfunclet$??0?$basic_string@DU?$char_traits@D@std@@V?$allocator@D@2@@std@@QAE@QBD@Z$0
	DD	00H
	DD	FLAT:__unwindfunclet$??0?$basic_string@DU?$char_traits@D@std@@V?$allocator@D@2@@std@@QAE@QBD@Z$1
__ehfuncinfo$??0?$basic_string@DU?$char_traits@D@std@@V?$allocator@D@2@@std@@QAE@QBD@Z DD 019930522H
	DD	02H
	DD	FLAT:__unwindtable$??0?$basic_string@DU?$char_traits@D@std@@V?$allocator@D@2@@std@@QAE@QBD@Z
	DD	2 DUP(00H)
	DD	2 DUP(00H)
	DD	00H
	DD	01H
xdata$x	ENDS
;	COMDAT xdata$x
xdata$x	SEGMENT
__ehfuncinfo$??1_Bxty@?$_String_val@U?$_Simple_types@D@std@@@std@@QAE@XZ DD 019930522H
	DD	00H
	DD	00H
	DD	2 DUP(00H)
	DD	2 DUP(00H)
	DD	00H
	DD	05H
xdata$x	ENDS
;	COMDAT xdata$x
xdata$x	SEGMENT
__ehfuncinfo$?max_size@?$_Default_allocator_traits@V?$allocator@D@std@@@std@@SAIABV?$allocator@D@2@@Z DD 019930522H
	DD	00H
	DD	00H
	DD	2 DUP(00H)
	DD	2 DUP(00H)
	DD	00H
	DD	05H
xdata$x	ENDS
;	COMDAT xdata$x
xdata$x	SEGMENT
__ehfuncinfo$??0?$allocator@D@std@@QAE@XZ DD 019930522H
	DD	00H
	DD	00H
	DD	2 DUP(00H)
	DD	2 DUP(00H)
	DD	00H
	DD	05H
xdata$x	ENDS
;	COMDAT xdata$x
xdata$x	SEGMENT
__ehfuncinfo$??$_Min_value@I@std@@YAABIABI0@Z DD 019930522H
	DD	00H
	DD	00H
	DD	2 DUP(00H)
	DD	2 DUP(00H)
	DD	00H
	DD	05H
xdata$x	ENDS
;	COMDAT xdata$x
xdata$x	SEGMENT
__ehfuncinfo$?eof@?$_Narrow_char_traits@DH@std@@SAHXZ DD 019930522H
	DD	00H
	DD	00H
	DD	2 DUP(00H)
	DD	2 DUP(00H)
	DD	00H
	DD	05H
xdata$x	ENDS
;	COMDAT xdata$x
xdata$x	SEGMENT
__ehfuncinfo$?eq_int_type@?$_Narrow_char_traits@DH@std@@SA_NABH0@Z DD 019930522H
	DD	00H
	DD	00H
	DD	2 DUP(00H)
	DD	2 DUP(00H)
	DD	00H
	DD	05H
xdata$x	ENDS
;	COMDAT xdata$x
xdata$x	SEGMENT
__ehfuncinfo$?assign@?$_Narrow_char_traits@DH@std@@SAXAADABD@Z DD 019930522H
	DD	00H
	DD	00H
	DD	2 DUP(00H)
	DD	2 DUP(00H)
	DD	00H
	DD	05H
xdata$x	ENDS
;	COMDAT xdata$x
xdata$x	SEGMENT
__ehfuncinfo$?move@?$_Narrow_char_traits@DH@std@@SAPADQADQBDI@Z DD 019930522H
	DD	00H
	DD	00H
	DD	2 DUP(00H)
	DD	2 DUP(00H)
	DD	00H
	DD	05H
xdata$x	ENDS
;	COMDAT xdata$x
xdata$x	SEGMENT
__ehfuncinfo$?copy@?$_Narrow_char_traits@DH@std@@SAPADQADQBDI@Z DD 019930522H
	DD	00H
	DD	00H
	DD	2 DUP(00H)
	DD	2 DUP(00H)
	DD	00H
	DD	05H
xdata$x	ENDS
;	COMDAT xdata$x
xdata$x	SEGMENT
__ehfuncinfo$?length@?$_Narrow_char_traits@DH@std@@SAIQBD@Z DD 019930522H
	DD	00H
	DD	00H
	DD	2 DUP(00H)
	DD	2 DUP(00H)
	DD	00H
	DD	05H
xdata$x	ENDS
;	COMDAT xdata$x
xdata$x	SEGMENT
__ehfuncinfo$??$_Construct_in_place@U_Container_proxy@std@@PAU_Container_base12@2@@std@@YAXAAU_Container_proxy@0@$$QAPAU_Container_base12@0@@Z DD 019930522H
	DD	00H
	DD	00H
	DD	2 DUP(00H)
	DD	2 DUP(00H)
	DD	00H
	DD	05H
xdata$x	ENDS
;	COMDAT xdata$x
xdata$x	SEGMENT
__ehfuncinfo$??$addressof@U_Container_base12@std@@@std@@YAPAU_Container_base12@0@AAU10@@Z DD 019930522H
	DD	00H
	DD	00H
	DD	2 DUP(00H)
	DD	2 DUP(00H)
	DD	00H
	DD	05H
xdata$x	ENDS
;	COMDAT xdata$x
xdata$x	SEGMENT
__ehfuncinfo$?_Release@_Basic_container_proxy_ptr12@std@@QAEXXZ DD 019930522H
	DD	00H
	DD	00H
	DD	2 DUP(00H)
	DD	2 DUP(00H)
	DD	00H
	DD	05H
xdata$x	ENDS
;	COMDAT xdata$x
xdata$x	SEGMENT
__ehfuncinfo$?_Orphan_all@_Container_base12@std@@QAEXXZ DD 019930522H
	DD	00H
	DD	00H
	DD	2 DUP(00H)
	DD	2 DUP(00H)
	DD	00H
	DD	05H
xdata$x	ENDS
;	COMDAT xdata$x
xdata$x	SEGMENT
__ehfuncinfo$??0_Container_base12@std@@QAE@XZ DD 019930522H
	DD	00H
	DD	00H
	DD	2 DUP(00H)
	DD	2 DUP(00H)
	DD	00H
	DD	05H
xdata$x	ENDS
;	COMDAT xdata$x
xdata$x	SEGMENT
__ehfuncinfo$??0_Container_proxy@std@@QAE@PAU_Container_base12@1@@Z DD 019930522H
	DD	00H
	DD	00H
	DD	2 DUP(00H)
	DD	2 DUP(00H)
	DD	00H
	DD	05H
xdata$x	ENDS
;	COMDAT xdata$x
xdata$x	SEGMENT
__ehfuncinfo$??$_Convert_size@I@std@@YAII@Z DD 019930522H
	DD	00H
	DD	00H
	DD	2 DUP(00H)
	DD	2 DUP(00H)
	DD	00H
	DD	05H
xdata$x	ENDS
;	COMDAT xdata$x
xdata$x	SEGMENT
__ehfuncinfo$?max@?$numeric_limits@H@std@@SAHXZ DD 019930522H
	DD	00H
	DD	00H
	DD	2 DUP(00H)
	DD	2 DUP(00H)
	DD	00H
	DD	05H
xdata$x	ENDS
;	COMDAT xdata$x
xdata$x	SEGMENT
__ehfuncinfo$??0bad_array_new_length@std@@QAE@XZ DD 019930522H
	DD	00H
	DD	00H
	DD	2 DUP(00H)
	DD	2 DUP(00H)
	DD	00H
	DD	05H
xdata$x	ENDS
;	COMDAT xdata$x
xdata$x	SEGMENT
__ehfuncinfo$??0bad_alloc@std@@AAE@QBD@Z DD 019930522H
	DD	00H
	DD	00H
	DD	2 DUP(00H)
	DD	2 DUP(00H)
	DD	00H
	DD	05H
xdata$x	ENDS
;	COMDAT xdata$x
xdata$x	SEGMENT
__ehfuncinfo$??1exception@std@@UAE@XZ DD 019930522H
	DD	00H
	DD	00H
	DD	2 DUP(00H)
	DD	2 DUP(00H)
	DD	00H
	DD	05H
xdata$x	ENDS
;	COMDAT xdata$x
xdata$x	SEGMENT
__ehfuncinfo$??0exception@std@@QAE@ABV01@@Z DD 019930522H
	DD	00H
	DD	00H
	DD	2 DUP(00H)
	DD	2 DUP(00H)
	DD	00H
	DD	05H
xdata$x	ENDS
;	COMDAT xdata$x
xdata$x	SEGMENT
__ehfuncinfo$??0exception@std@@QAE@QBDH@Z DD 019930522H
	DD	00H
	DD	00H
	DD	2 DUP(00H)
	DD	2 DUP(00H)
	DD	00H
	DD	05H
xdata$x	ENDS
;	COMDAT xdata$x
xdata$x	SEGMENT
__ehfuncinfo$??2@YAPAXIPAX@Z DD 019930522H
	DD	00H
	DD	00H
	DD	2 DUP(00H)
	DD	2 DUP(00H)
	DD	00H
	DD	05H
xdata$x	ENDS
CRT$XCU	SEGMENT
?lightPosition$initializer$@@3P6AXXZA DD FLAT:??__ElightPosition@@YAXXZ ; lightPosition$initializer$
CRT$XCU	ENDS
CRT$XCU	SEGMENT
?window$initializer$@@3P6AXXZA DD FLAT:??__Ewindow@@YAXXZ ; window$initializer$
CRT$XCU	ENDS
CRT$XCU	SEGMENT
?Time1$initializer$@@3P6AXXZA DD FLAT:??__ETime1@@YAXXZ	; Time1$initializer$
CRT$XCU	ENDS
CRT$XCU	SEGMENT
?Time2$initializer$@@3P6AXXZA DD FLAT:??__ETime2@@YAXXZ	; Time2$initializer$
CRT$XCU	ENDS
CRT$XCU	SEGMENT
?lastFrame$initializer$@@3P6AXXZA DD FLAT:??__ElastFrame@@YAXXZ ; lastFrame$initializer$
CRT$XCU	ENDS
CRT$XCU	SEGMENT
?now$initializer$@@3P6AXXZA DD FLAT:??__Enow@@YAXXZ	; now$initializer$
CRT$XCU	ENDS
; Function compile flags: /Odt
;	COMDAT __JustMyCode_Default
_TEXT	SEGMENT
__JustMyCode_Default PROC				; COMDAT
	push	ebp
	mov	ebp, esp
	pop	ebp
	ret	0
__JustMyCode_Default ENDP
_TEXT	ENDS
; Function compile flags: /Odtp /RTCsu /ZI
; File C:\Program Files (x86)\Microsoft Visual Studio\2019\Community\VC\Tools\MSVC\14.24.28314\include\xmemory
;	COMDAT ?deallocate@?$_Default_allocator_traits@V?$allocator@U_Container_proxy@std@@@std@@@std@@SAXAAV?$allocator@U_Container_proxy@std@@@2@QAU_Container_proxy@2@I@Z
_TEXT	SEGMENT
___formal$ = 8						; size = 4
__Ptr$ = 12						; size = 4
__Count$ = 16						; size = 4
?deallocate@?$_Default_allocator_traits@V?$allocator@U_Container_proxy@std@@@std@@@std@@SAXAAV?$allocator@U_Container_proxy@std@@@2@QAU_Container_proxy@2@I@Z PROC ; std::_Default_allocator_traits<std::allocator<std::_Container_proxy> >::deallocate, COMDAT

; 664  :     static void deallocate(_Alloc&, const pointer _Ptr, const size_type _Count) {

	push	ebp
	mov	ebp, esp
	sub	esp, 192				; 000000c0H
	push	ebx
	push	esi
	push	edi
	lea	edi, DWORD PTR [ebp-192]
	mov	ecx, 48					; 00000030H
	mov	eax, -858993460				; ccccccccH
	rep stosd
	mov	ecx, OFFSET __B1B75AB9_xmemory
	call	@__CheckForDebuggerJustMyCode@4

; 665  :         // no overflow check on the following multiply; we assume _Allocate did that check
; 666  :         _Deallocate<_New_alignof<value_type>>(_Ptr, sizeof(value_type) * _Count);

	mov	eax, DWORD PTR __Count$[ebp]
	shl	eax, 3
	push	eax
	mov	ecx, DWORD PTR __Ptr$[ebp]
	push	ecx
	call	??$_Deallocate@$07$0A@@std@@YAXPAXI@Z	; std::_Deallocate<8,0>
	add	esp, 8

; 667  :     }

	pop	edi
	pop	esi
	pop	ebx
	add	esp, 192				; 000000c0H
	cmp	ebp, esp
	call	__RTC_CheckEsp
	mov	esp, ebp
	pop	ebp
	ret	0
?deallocate@?$_Default_allocator_traits@V?$allocator@U_Container_proxy@std@@@std@@@std@@SAXAAV?$allocator@U_Container_proxy@std@@@2@QAU_Container_proxy@2@I@Z ENDP ; std::_Default_allocator_traits<std::allocator<std::_Container_proxy> >::deallocate
_TEXT	ENDS
; Function compile flags: /Odtp /RTCsu /ZI
; File C:\Program Files (x86)\Microsoft Visual Studio\2019\Community\VC\Tools\MSVC\14.24.28314\include\xmemory
;	COMDAT ??$_Allocate_manually_vector_aligned@U_Default_allocate_traits@std@@@std@@YAPAXI@Z
_TEXT	SEGMENT
__Ptr$ = -32						; size = 4
__Ptr_container$ = -20					; size = 4
__Block_size$ = -8					; size = 4
__Bytes$ = 8						; size = 4
??$_Allocate_manually_vector_aligned@U_Default_allocate_traits@std@@@std@@YAPAXI@Z PROC ; std::_Allocate_manually_vector_aligned<std::_Default_allocate_traits>, COMDAT

; 87   : _DECLSPEC_ALLOCATOR void* _Allocate_manually_vector_aligned(const size_t _Bytes) {

	push	ebp
	mov	ebp, esp
	sub	esp, 228				; 000000e4H
	push	ebx
	push	esi
	push	edi
	lea	edi, DWORD PTR [ebp-228]
	mov	ecx, 57					; 00000039H
	mov	eax, -858993460				; ccccccccH
	rep stosd
	mov	ecx, OFFSET __B1B75AB9_xmemory
	call	@__CheckForDebuggerJustMyCode@4

; 88   :     // allocate _Bytes manually aligned to at least _Big_allocation_alignment
; 89   :     const size_t _Block_size = _Non_user_size + _Bytes;

	mov	eax, DWORD PTR __Bytes$[ebp]
	add	eax, 39					; 00000027H
	mov	DWORD PTR __Block_size$[ebp], eax

; 90   :     if (_Block_size <= _Bytes) {

	mov	eax, DWORD PTR __Block_size$[ebp]
	cmp	eax, DWORD PTR __Bytes$[ebp]
	ja	SHORT $LN8@Allocate_m

; 91   :         _Throw_bad_array_new_length(); // add overflow

	call	?_Throw_bad_array_new_length@std@@YAXXZ	; std::_Throw_bad_array_new_length
$LN8@Allocate_m:

; 92   :     }
; 93   : 
; 94   :     const uintptr_t _Ptr_container = reinterpret_cast<uintptr_t>(_Traits::_Allocate(_Block_size));

	mov	eax, DWORD PTR __Block_size$[ebp]
	push	eax
	call	?_Allocate@_Default_allocate_traits@std@@SAPAXI@Z ; std::_Default_allocate_traits::_Allocate
	add	esp, 4
	mov	DWORD PTR __Ptr_container$[ebp], eax
$LN4@Allocate_m:

; 95   :     _STL_VERIFY(_Ptr_container != 0, "invalid argument"); // validate even in release since we're doing p[-1]

	cmp	DWORD PTR __Ptr_container$[ebp], 0
	je	SHORT $LN7@Allocate_m
	jmp	SHORT $LN2@Allocate_m
$LN7@Allocate_m:
	mov	esi, esp
	push	OFFSET ??_C@_0BB@FCMFBGOM@invalid?5argument@
	push	OFFSET ??_C@_02DKCKIIND@?$CFs@
	push	0
	push	95					; 0000005fH
	push	OFFSET ??_C@_0GI@JKOMEBKC@C?3?2Program?5Files?5?$CIx86?$CJ?2Microsof@
	push	2
	call	DWORD PTR __imp___CrtDbgReport
	add	esp, 24					; 00000018H
	cmp	esi, esp
	call	__RTC_CheckEsp
	cmp	eax, 1
	jne	SHORT $LN12@Allocate_m
	int	3
$LN12@Allocate_m:
	mov	esi, esp
	push	0
	push	95					; 0000005fH
	push	OFFSET ??_C@_1NA@OANNLGA@?$AAC?$AA?3?$AA?2?$AAP?$AAr?$AAo?$AAg?$AAr?$AAa?$AAm?$AA?5?$AAF?$AAi?$AAl?$AAe@
	push	OFFSET ??_C@_1EO@GFNCMDLA@?$AAs?$AAt?$AAd?$AA?3?$AA?3?$AA_?$AAA?$AAl?$AAl?$AAo?$AAc?$AAa?$AAt?$AAe?$AA_@
	push	OFFSET ??_C@_1CG@JNLFBNGN@?$AA?$CC?$AAi?$AAn?$AAv?$AAa?$AAl?$AAi?$AAd?$AA?5?$AAa?$AAr?$AAg?$AAu?$AAm?$AAe@
	call	DWORD PTR __imp___invalid_parameter
	add	esp, 20					; 00000014H
	cmp	esi, esp
	call	__RTC_CheckEsp
	xor	eax, eax
	jne	SHORT $LN7@Allocate_m
$LN2@Allocate_m:
	xor	eax, eax
	jne	SHORT $LN4@Allocate_m

; 96   :     void* const _Ptr = reinterpret_cast<void*>((_Ptr_container + _Non_user_size) & ~(_Big_allocation_alignment - 1));

	mov	eax, DWORD PTR __Ptr_container$[ebp]
	add	eax, 39					; 00000027H
	and	eax, -32				; ffffffe0H
	mov	DWORD PTR __Ptr$[ebp], eax

; 97   :     static_cast<uintptr_t*>(_Ptr)[-1] = _Ptr_container;

	mov	eax, 4
	imul	ecx, eax, -1
	mov	edx, DWORD PTR __Ptr$[ebp]
	mov	eax, DWORD PTR __Ptr_container$[ebp]
	mov	DWORD PTR [edx+ecx], eax

; 98   : 
; 99   : #ifdef _DEBUG
; 100  :     static_cast<uintptr_t*>(_Ptr)[-2] = _Big_allocation_sentinel;

	mov	eax, 4
	imul	ecx, eax, -2
	mov	edx, DWORD PTR __Ptr$[ebp]
	mov	DWORD PTR [edx+ecx], -84215046		; fafafafaH

; 101  : #endif // _DEBUG
; 102  :     return _Ptr;

	mov	eax, DWORD PTR __Ptr$[ebp]
$LN11@Allocate_m:

; 103  : }

	pop	edi
	pop	esi
	pop	ebx
	add	esp, 228				; 000000e4H
	cmp	ebp, esp
	call	__RTC_CheckEsp
	mov	esp, ebp
	pop	ebp
	ret	0
??$_Allocate_manually_vector_aligned@U_Default_allocate_traits@std@@@std@@YAPAXI@Z ENDP ; std::_Allocate_manually_vector_aligned<std::_Default_allocate_traits>
_TEXT	ENDS
; Function compile flags: /Odtp /RTCsu /ZI
; File C:\Program Files (x86)\Microsoft Visual Studio\2019\Community\VC\Tools\MSVC\14.24.28314\include\type_traits
;	COMDAT ??$forward@ABQAD@std@@YAABQADABQAD@Z
_TEXT	SEGMENT
__$EHRec$ = -12						; size = 12
__Arg$ = 8						; size = 4
??$forward@ABQAD@std@@YAABQADABQAD@Z PROC		; std::forward<char * const &>, COMDAT

; 1426 :     remove_reference_t<_Ty>& _Arg) noexcept { // forward an lvalue as either an lvalue or an rvalue

	push	ebp
	mov	ebp, esp
	push	-1
	push	__ehhandler$??$forward@ABQAD@std@@YAABQADABQAD@Z
	mov	eax, DWORD PTR fs:0
	push	eax
	sub	esp, 192				; 000000c0H
	push	ebx
	push	esi
	push	edi
	lea	edi, DWORD PTR [ebp-204]
	mov	ecx, 48					; 00000030H
	mov	eax, -858993460				; ccccccccH
	rep stosd
	mov	eax, DWORD PTR ___security_cookie
	xor	eax, ebp
	push	eax
	lea	eax, DWORD PTR __$EHRec$[ebp]
	mov	DWORD PTR fs:0, eax
	mov	ecx, OFFSET __4877352E_type_traits
	call	@__CheckForDebuggerJustMyCode@4

; 1427 :     return static_cast<_Ty&&>(_Arg);

	mov	eax, DWORD PTR __Arg$[ebp]

; 1428 : }

	mov	ecx, DWORD PTR __$EHRec$[ebp]
	mov	DWORD PTR fs:0, ecx
	pop	ecx
	pop	edi
	pop	esi
	pop	ebx
	add	esp, 204				; 000000ccH
	cmp	ebp, esp
	call	__RTC_CheckEsp
	mov	esp, ebp
	pop	ebp
	ret	0
_TEXT	ENDS
;	COMDAT text$x
text$x	SEGMENT
__ehhandler$??$forward@ABQAD@std@@YAABQADABQAD@Z:
	mov	edx, DWORD PTR [esp+8]
	lea	eax, DWORD PTR [edx+12]
	mov	ecx, DWORD PTR [edx-208]
	xor	ecx, eax
	call	@__security_check_cookie@4
	mov	eax, OFFSET __ehfuncinfo$??$forward@ABQAD@std@@YAABQADABQAD@Z
	jmp	___CxxFrameHandler3
text$x	ENDS
??$forward@ABQAD@std@@YAABQADABQAD@Z ENDP		; std::forward<char * const &>
; Function compile flags: /Odtp /RTCsu /ZI
; File C:\Program Files (x86)\Microsoft Visual Studio\2019\Community\VC\Tools\MSVC\14.24.28314\include\xstddef
;	COMDAT ??$addressof@PAD@std@@YAPAPADAAPAD@Z
_TEXT	SEGMENT
__$EHRec$ = -12						; size = 12
__Val$ = 8						; size = 4
??$addressof@PAD@std@@YAPAPADAAPAD@Z PROC		; std::addressof<char *>, COMDAT

; 274  : _NODISCARD constexpr _Ty* addressof(_Ty& _Val) noexcept {

	push	ebp
	mov	ebp, esp
	push	-1
	push	__ehhandler$??$addressof@PAD@std@@YAPAPADAAPAD@Z
	mov	eax, DWORD PTR fs:0
	push	eax
	sub	esp, 192				; 000000c0H
	push	ebx
	push	esi
	push	edi
	lea	edi, DWORD PTR [ebp-204]
	mov	ecx, 48					; 00000030H
	mov	eax, -858993460				; ccccccccH
	rep stosd
	mov	eax, DWORD PTR ___security_cookie
	xor	eax, ebp
	push	eax
	lea	eax, DWORD PTR __$EHRec$[ebp]
	mov	DWORD PTR fs:0, eax
	mov	ecx, OFFSET __2C3DAE68_xstddef
	call	@__CheckForDebuggerJustMyCode@4

; 275  :     return __builtin_addressof(_Val);

	mov	eax, DWORD PTR __Val$[ebp]

; 276  : }

	mov	ecx, DWORD PTR __$EHRec$[ebp]
	mov	DWORD PTR fs:0, ecx
	pop	ecx
	pop	edi
	pop	esi
	pop	ebx
	add	esp, 204				; 000000ccH
	cmp	ebp, esp
	call	__RTC_CheckEsp
	mov	esp, ebp
	pop	ebp
	ret	0
_TEXT	ENDS
;	COMDAT text$x
text$x	SEGMENT
__ehhandler$??$addressof@PAD@std@@YAPAPADAAPAD@Z:
	mov	edx, DWORD PTR [esp+8]
	lea	eax, DWORD PTR [edx+12]
	mov	ecx, DWORD PTR [edx-208]
	xor	ecx, eax
	call	@__security_check_cookie@4
	mov	eax, OFFSET __ehfuncinfo$??$addressof@PAD@std@@YAPAPADAAPAD@Z
	jmp	___CxxFrameHandler3
text$x	ENDS
??$addressof@PAD@std@@YAPAPADAAPAD@Z ENDP		; std::addressof<char *>
; Function compile flags: /Odtp /RTCsu /ZI
; File C:\Program Files (x86)\Microsoft Visual Studio\2019\Community\VC\Tools\MSVC\14.24.28314\include\xmemory
;	COMDAT ??$_Deallocate_plain@V?$allocator@U_Container_proxy@std@@@std@@@std@@YAXAAV?$allocator@U_Container_proxy@std@@@0@QAU_Container_proxy@0@@Z
_TEXT	SEGMENT
__$EHRec$ = -12						; size = 12
__Al$ = 8						; size = 4
__Ptr$ = 12						; size = 4
??$_Deallocate_plain@V?$allocator@U_Container_proxy@std@@@std@@@std@@YAXAAV?$allocator@U_Container_proxy@std@@@0@QAU_Container_proxy@0@@Z PROC ; std::_Deallocate_plain<std::allocator<std::_Container_proxy> >, COMDAT

; 994  : void _Deallocate_plain(_Alloc& _Al, typename _Alloc::value_type* const _Ptr) noexcept {

	push	ebp
	mov	ebp, esp
	push	-1
	push	__ehhandler$??$_Deallocate_plain@V?$allocator@U_Container_proxy@std@@@std@@@std@@YAXAAV?$allocator@U_Container_proxy@std@@@0@QAU_Container_proxy@0@@Z
	mov	eax, DWORD PTR fs:0
	push	eax
	sub	esp, 192				; 000000c0H
	push	ebx
	push	esi
	push	edi
	lea	edi, DWORD PTR [ebp-204]
	mov	ecx, 48					; 00000030H
	mov	eax, -858993460				; ccccccccH
	rep stosd
	mov	eax, DWORD PTR ___security_cookie
	xor	eax, ebp
	push	eax
	lea	eax, DWORD PTR __$EHRec$[ebp]
	mov	DWORD PTR fs:0, eax
	mov	ecx, OFFSET __B1B75AB9_xmemory
	call	@__CheckForDebuggerJustMyCode@4

; 995  :     // deallocate a plain pointer using an allocator
; 996  :     using _Alloc_traits = allocator_traits<_Alloc>;
; 997  :     if constexpr (is_same_v<_Alloc_ptr_t<_Alloc>, typename _Alloc::value_type*>) {
; 998  :         _Alloc_traits::deallocate(_Al, _Ptr, 1);

	push	1
	mov	eax, DWORD PTR __Ptr$[ebp]
	push	eax
	mov	ecx, DWORD PTR __Al$[ebp]
	push	ecx
	call	?deallocate@?$_Default_allocator_traits@V?$allocator@U_Container_proxy@std@@@std@@@std@@SAXAAV?$allocator@U_Container_proxy@std@@@2@QAU_Container_proxy@2@I@Z ; std::_Default_allocator_traits<std::allocator<std::_Container_proxy> >::deallocate
	add	esp, 12					; 0000000cH

; 999  :     } else {
; 1000 :         using _Ptr_traits = pointer_traits<_Alloc_ptr_t<_Alloc>>;
; 1001 :         _Alloc_traits::deallocate(_Al, _Ptr_traits::pointer_to(*_Ptr), 1);
; 1002 :     }
; 1003 : }

	mov	ecx, DWORD PTR __$EHRec$[ebp]
	mov	DWORD PTR fs:0, ecx
	pop	ecx
	pop	edi
	pop	esi
	pop	ebx
	add	esp, 204				; 000000ccH
	cmp	ebp, esp
	call	__RTC_CheckEsp
	mov	esp, ebp
	pop	ebp
	ret	0
_TEXT	ENDS
;	COMDAT text$x
text$x	SEGMENT
__ehhandler$??$_Deallocate_plain@V?$allocator@U_Container_proxy@std@@@std@@@std@@YAXAAV?$allocator@U_Container_proxy@std@@@0@QAU_Container_proxy@0@@Z:
	mov	edx, DWORD PTR [esp+8]
	lea	eax, DWORD PTR [edx+12]
	mov	ecx, DWORD PTR [edx-208]
	xor	ecx, eax
	call	@__security_check_cookie@4
	mov	eax, OFFSET __ehfuncinfo$??$_Deallocate_plain@V?$allocator@U_Container_proxy@std@@@std@@@std@@YAXAAV?$allocator@U_Container_proxy@std@@@0@QAU_Container_proxy@0@@Z
	jmp	___CxxFrameHandler3
text$x	ENDS
??$_Deallocate_plain@V?$allocator@U_Container_proxy@std@@@std@@@std@@YAXAAV?$allocator@U_Container_proxy@std@@@0@QAU_Container_proxy@0@@Z ENDP ; std::_Deallocate_plain<std::allocator<std::_Container_proxy> >
; Function compile flags: /Odtp /RTCsu /ZI
; File C:\Program Files (x86)\Microsoft Visual Studio\2019\Community\VC\Tools\MSVC\14.24.28314\include\chrono
;	COMDAT ??$?G_JU?$ratio@$00$0DLJKMKAA@@std@@_JU01@@chrono@std@@YA?AV?$duration@_JU?$ratio@$00$0DLJKMKAA@@std@@@01@ABV201@0@Z
_TEXT	SEGMENT
$T2 = -248						; size = 8
$T3 = -232						; size = 8
$T4 = -216						; size = 8
__$EHRec$ = -12						; size = 12
___$ReturnUdt$ = 8					; size = 4
__Left$ = 12						; size = 4
__Right$ = 16						; size = 4
??$?G_JU?$ratio@$00$0DLJKMKAA@@std@@_JU01@@chrono@std@@YA?AV?$duration@_JU?$ratio@$00$0DLJKMKAA@@std@@@01@ABV201@0@Z PROC ; std::chrono::operator-<__int64,std::ratio<1,1000000000>,__int64,std::ratio<1,1000000000> >, COMDAT

; 253  :             is_arithmetic_v<_Rep1>&& is_arithmetic_v<_Rep2>) /* strengthened */ {

	push	ebp
	mov	ebp, esp
	push	-1
	push	__ehhandler$??$?G_JU?$ratio@$00$0DLJKMKAA@@std@@_JU01@@chrono@std@@YA?AV?$duration@_JU?$ratio@$00$0DLJKMKAA@@std@@@01@ABV201@0@Z
	mov	eax, DWORD PTR fs:0
	push	eax
	sub	esp, 240				; 000000f0H
	push	ebx
	push	esi
	push	edi
	lea	edi, DWORD PTR [ebp-252]
	mov	ecx, 60					; 0000003cH
	mov	eax, -858993460				; ccccccccH
	rep stosd
	mov	eax, DWORD PTR ___security_cookie
	xor	eax, ebp
	push	eax
	lea	eax, DWORD PTR __$EHRec$[ebp]
	mov	DWORD PTR fs:0, eax
	mov	ecx, OFFSET __A91506BA_chrono
	call	@__CheckForDebuggerJustMyCode@4

; 254  :         using _CD = common_type_t<duration<_Rep1, _Period1>, duration<_Rep2, _Period2>>;
; 255  :         return _CD(_CD(_Left).count() - _CD(_Right).count());

	mov	eax, DWORD PTR __Left$[ebp]
	mov	ecx, DWORD PTR [eax]
	mov	edx, DWORD PTR [eax+4]
	mov	DWORD PTR $T3[ebp], ecx
	mov	DWORD PTR $T3[ebp+4], edx
	mov	eax, DWORD PTR __Right$[ebp]
	mov	ecx, DWORD PTR [eax]
	mov	edx, DWORD PTR [eax+4]
	mov	DWORD PTR $T2[ebp], ecx
	mov	DWORD PTR $T2[ebp+4], edx
	lea	ecx, DWORD PTR $T3[ebp]
	call	?count@?$duration@_JU?$ratio@$00$0DLJKMKAA@@std@@@chrono@std@@QBE_JXZ ; std::chrono::duration<__int64,std::ratio<1,1000000000> >::count
	mov	esi, eax
	mov	edi, edx
	lea	ecx, DWORD PTR $T2[ebp]
	call	?count@?$duration@_JU?$ratio@$00$0DLJKMKAA@@std@@@chrono@std@@QBE_JXZ ; std::chrono::duration<__int64,std::ratio<1,1000000000> >::count
	sub	esi, eax
	sbb	edi, edx
	mov	DWORD PTR $T4[ebp], esi
	mov	DWORD PTR $T4[ebp+4], edi
	lea	eax, DWORD PTR $T4[ebp]
	push	eax
	mov	ecx, DWORD PTR ___$ReturnUdt$[ebp]
	call	??$?0_JX@?$duration@_JU?$ratio@$00$0DLJKMKAA@@std@@@chrono@std@@QAE@AB_J@Z ; std::chrono::duration<__int64,std::ratio<1,1000000000> >::duration<__int64,std::ratio<1,1000000000> ><__int64,void>
	mov	eax, DWORD PTR ___$ReturnUdt$[ebp]

; 256  :     }

	mov	ecx, DWORD PTR __$EHRec$[ebp]
	mov	DWORD PTR fs:0, ecx
	pop	ecx
	pop	edi
	pop	esi
	pop	ebx
	add	esp, 252				; 000000fcH
	cmp	ebp, esp
	call	__RTC_CheckEsp
	mov	esp, ebp
	pop	ebp
	ret	0
_TEXT	ENDS
;	COMDAT text$x
text$x	SEGMENT
__ehhandler$??$?G_JU?$ratio@$00$0DLJKMKAA@@std@@_JU01@@chrono@std@@YA?AV?$duration@_JU?$ratio@$00$0DLJKMKAA@@std@@@01@ABV201@0@Z:
	mov	edx, DWORD PTR [esp+8]
	lea	eax, DWORD PTR [edx+12]
	mov	ecx, DWORD PTR [edx-256]
	xor	ecx, eax
	call	@__security_check_cookie@4
	mov	eax, OFFSET __ehfuncinfo$??$?G_JU?$ratio@$00$0DLJKMKAA@@std@@_JU01@@chrono@std@@YA?AV?$duration@_JU?$ratio@$00$0DLJKMKAA@@std@@@01@ABV201@0@Z
	jmp	___CxxFrameHandler3
text$x	ENDS
??$?G_JU?$ratio@$00$0DLJKMKAA@@std@@_JU01@@chrono@std@@YA?AV?$duration@_JU?$ratio@$00$0DLJKMKAA@@std@@@01@ABV201@0@Z ENDP ; std::chrono::operator-<__int64,std::ratio<1,1000000000>,__int64,std::ratio<1,1000000000> >
; Function compile flags: /Odtp /RTCsu /ZI
; File C:\Program Files (x86)\Microsoft Visual Studio\2019\Community\VC\Tools\MSVC\14.24.28314\include\type_traits
;	COMDAT ??$forward@PAU_Container_base12@std@@@std@@YA$$QAPAU_Container_base12@0@AAPAU10@@Z
_TEXT	SEGMENT
__$EHRec$ = -12						; size = 12
__Arg$ = 8						; size = 4
??$forward@PAU_Container_base12@std@@@std@@YA$$QAPAU_Container_base12@0@AAPAU10@@Z PROC ; std::forward<std::_Container_base12 *>, COMDAT

; 1426 :     remove_reference_t<_Ty>& _Arg) noexcept { // forward an lvalue as either an lvalue or an rvalue

	push	ebp
	mov	ebp, esp
	push	-1
	push	__ehhandler$??$forward@PAU_Container_base12@std@@@std@@YA$$QAPAU_Container_base12@0@AAPAU10@@Z
	mov	eax, DWORD PTR fs:0
	push	eax
	sub	esp, 192				; 000000c0H
	push	ebx
	push	esi
	push	edi
	lea	edi, DWORD PTR [ebp-204]
	mov	ecx, 48					; 00000030H
	mov	eax, -858993460				; ccccccccH
	rep stosd
	mov	eax, DWORD PTR ___security_cookie
	xor	eax, ebp
	push	eax
	lea	eax, DWORD PTR __$EHRec$[ebp]
	mov	DWORD PTR fs:0, eax
	mov	ecx, OFFSET __4877352E_type_traits
	call	@__CheckForDebuggerJustMyCode@4

; 1427 :     return static_cast<_Ty&&>(_Arg);

	mov	eax, DWORD PTR __Arg$[ebp]

; 1428 : }

	mov	ecx, DWORD PTR __$EHRec$[ebp]
	mov	DWORD PTR fs:0, ecx
	pop	ecx
	pop	edi
	pop	esi
	pop	ebx
	add	esp, 204				; 000000ccH
	cmp	ebp, esp
	call	__RTC_CheckEsp
	mov	esp, ebp
	pop	ebp
	ret	0
_TEXT	ENDS
;	COMDAT text$x
text$x	SEGMENT
__ehhandler$??$forward@PAU_Container_base12@std@@@std@@YA$$QAPAU_Container_base12@0@AAPAU10@@Z:
	mov	edx, DWORD PTR [esp+8]
	lea	eax, DWORD PTR [edx+12]
	mov	ecx, DWORD PTR [edx-208]
	xor	ecx, eax
	call	@__security_check_cookie@4
	mov	eax, OFFSET __ehfuncinfo$??$forward@PAU_Container_base12@std@@@std@@YA$$QAPAU_Container_base12@0@AAPAU10@@Z
	jmp	___CxxFrameHandler3
text$x	ENDS
??$forward@PAU_Container_base12@std@@@std@@YA$$QAPAU_Container_base12@0@AAPAU10@@Z ENDP ; std::forward<std::_Container_base12 *>
; Function compile flags: /Odtp /RTCsu /ZI
; File C:\Program Files (x86)\Microsoft Visual Studio\2019\Community\VC\Tools\MSVC\14.24.28314\include\xstddef
;	COMDAT ??$addressof@U_Container_proxy@std@@@std@@YAPAU_Container_proxy@0@AAU10@@Z
_TEXT	SEGMENT
__$EHRec$ = -12						; size = 12
__Val$ = 8						; size = 4
??$addressof@U_Container_proxy@std@@@std@@YAPAU_Container_proxy@0@AAU10@@Z PROC ; std::addressof<std::_Container_proxy>, COMDAT

; 274  : _NODISCARD constexpr _Ty* addressof(_Ty& _Val) noexcept {

	push	ebp
	mov	ebp, esp
	push	-1
	push	__ehhandler$??$addressof@U_Container_proxy@std@@@std@@YAPAU_Container_proxy@0@AAU10@@Z
	mov	eax, DWORD PTR fs:0
	push	eax
	sub	esp, 192				; 000000c0H
	push	ebx
	push	esi
	push	edi
	lea	edi, DWORD PTR [ebp-204]
	mov	ecx, 48					; 00000030H
	mov	eax, -858993460				; ccccccccH
	rep stosd
	mov	eax, DWORD PTR ___security_cookie
	xor	eax, ebp
	push	eax
	lea	eax, DWORD PTR __$EHRec$[ebp]
	mov	DWORD PTR fs:0, eax
	mov	ecx, OFFSET __2C3DAE68_xstddef
	call	@__CheckForDebuggerJustMyCode@4

; 275  :     return __builtin_addressof(_Val);

	mov	eax, DWORD PTR __Val$[ebp]

; 276  : }

	mov	ecx, DWORD PTR __$EHRec$[ebp]
	mov	DWORD PTR fs:0, ecx
	pop	ecx
	pop	edi
	pop	esi
	pop	ebx
	add	esp, 204				; 000000ccH
	cmp	ebp, esp
	call	__RTC_CheckEsp
	mov	esp, ebp
	pop	ebp
	ret	0
_TEXT	ENDS
;	COMDAT text$x
text$x	SEGMENT
__ehhandler$??$addressof@U_Container_proxy@std@@@std@@YAPAU_Container_proxy@0@AAU10@@Z:
	mov	edx, DWORD PTR [esp+8]
	lea	eax, DWORD PTR [edx+12]
	mov	ecx, DWORD PTR [edx-208]
	xor	ecx, eax
	call	@__security_check_cookie@4
	mov	eax, OFFSET __ehfuncinfo$??$addressof@U_Container_proxy@std@@@std@@YAPAU_Container_proxy@0@AAU10@@Z
	jmp	___CxxFrameHandler3
text$x	ENDS
??$addressof@U_Container_proxy@std@@@std@@YAPAU_Container_proxy@0@AAU10@@Z ENDP ; std::addressof<std::_Container_proxy>
; Function compile flags: /Odtp /RTCsu /ZI
; File C:\Program Files (x86)\Microsoft Visual Studio\2019\Community\VC\Tools\MSVC\14.24.28314\include\xmemory
;	COMDAT ??$_Destroy_range@V?$allocator@U?$vec@$02M$0A@@glm@@@std@@@std@@YAXPAU?$vec@$02M$0A@@glm@@QAU12@AAV?$allocator@U?$vec@$02M$0A@@glm@@@0@@Z
_TEXT	SEGMENT
__$EHRec$ = -12						; size = 12
__First$ = 8						; size = 4
__Last$ = 12						; size = 4
__Al$ = 16						; size = 4
??$_Destroy_range@V?$allocator@U?$vec@$02M$0A@@glm@@@std@@@std@@YAXPAU?$vec@$02M$0A@@glm@@QAU12@AAV?$allocator@U?$vec@$02M$0A@@glm@@@0@@Z PROC ; std::_Destroy_range<std::allocator<glm::vec<3,float,0> > >, COMDAT

; 940  : void _Destroy_range(_Alloc_ptr_t<_Alloc> _First, const _Alloc_ptr_t<_Alloc> _Last, _Alloc& _Al) noexcept {

	push	ebp
	mov	ebp, esp
	push	-1
	push	__ehhandler$??$_Destroy_range@V?$allocator@U?$vec@$02M$0A@@glm@@@std@@@std@@YAXPAU?$vec@$02M$0A@@glm@@QAU12@AAV?$allocator@U?$vec@$02M$0A@@glm@@@0@@Z
	mov	eax, DWORD PTR fs:0
	push	eax
	sub	esp, 192				; 000000c0H
	push	ebx
	push	esi
	push	edi
	lea	edi, DWORD PTR [ebp-204]
	mov	ecx, 48					; 00000030H
	mov	eax, -858993460				; ccccccccH
	rep stosd
	mov	eax, DWORD PTR ___security_cookie
	xor	eax, ebp
	push	eax
	lea	eax, DWORD PTR __$EHRec$[ebp]
	mov	DWORD PTR fs:0, eax
	mov	ecx, OFFSET __B1B75AB9_xmemory
	call	@__CheckForDebuggerJustMyCode@4

; 941  :     // note that this is an optimization for debug mode codegen; in release mode the BE removes all of this
; 942  :     using _Ty = typename _Alloc::value_type;
; 943  :     if
; 944  :         _CONSTEXPR_IF(conjunction_v<is_trivially_destructible<_Ty>, _Uses_default_destroy<_Alloc, _Ty*>>) {
; 945  :             (void) _First;
; 946  :             (void) _Last;
; 947  :             (void) _Al;
; 948  :         }
; 949  :     else {
; 950  :         for (; _First != _Last; ++_First) {
; 951  :             allocator_traits<_Alloc>::destroy(_Al, _Unfancy(_First));
; 952  :         }
; 953  :     }
; 954  : }

	mov	ecx, DWORD PTR __$EHRec$[ebp]
	mov	DWORD PTR fs:0, ecx
	pop	ecx
	pop	edi
	pop	esi
	pop	ebx
	add	esp, 204				; 000000ccH
	cmp	ebp, esp
	call	__RTC_CheckEsp
	mov	esp, ebp
	pop	ebp
	ret	0
_TEXT	ENDS
;	COMDAT text$x
text$x	SEGMENT
__ehhandler$??$_Destroy_range@V?$allocator@U?$vec@$02M$0A@@glm@@@std@@@std@@YAXPAU?$vec@$02M$0A@@glm@@QAU12@AAV?$allocator@U?$vec@$02M$0A@@glm@@@0@@Z:
	mov	edx, DWORD PTR [esp+8]
	lea	eax, DWORD PTR [edx+12]
	mov	ecx, DWORD PTR [edx-208]
	xor	ecx, eax
	call	@__security_check_cookie@4
	mov	eax, OFFSET __ehfuncinfo$??$_Destroy_range@V?$allocator@U?$vec@$02M$0A@@glm@@@std@@@std@@YAXPAU?$vec@$02M$0A@@glm@@QAU12@AAV?$allocator@U?$vec@$02M$0A@@glm@@@0@@Z
	jmp	___CxxFrameHandler3
text$x	ENDS
??$_Destroy_range@V?$allocator@U?$vec@$02M$0A@@glm@@@std@@@std@@YAXPAU?$vec@$02M$0A@@glm@@QAU12@AAV?$allocator@U?$vec@$02M$0A@@glm@@@0@@Z ENDP ; std::_Destroy_range<std::allocator<glm::vec<3,float,0> > >
; Function compile flags: /Odtp /RTCsu /ZI
; File C:\Program Files (x86)\Microsoft Visual Studio\2019\Community\VC\Tools\MSVC\14.24.28314\include\xmemory
;	COMDAT ??$_Destroy_range@V?$allocator@U?$vec@$01M$0A@@glm@@@std@@@std@@YAXPAU?$vec@$01M$0A@@glm@@QAU12@AAV?$allocator@U?$vec@$01M$0A@@glm@@@0@@Z
_TEXT	SEGMENT
__$EHRec$ = -12						; size = 12
__First$ = 8						; size = 4
__Last$ = 12						; size = 4
__Al$ = 16						; size = 4
??$_Destroy_range@V?$allocator@U?$vec@$01M$0A@@glm@@@std@@@std@@YAXPAU?$vec@$01M$0A@@glm@@QAU12@AAV?$allocator@U?$vec@$01M$0A@@glm@@@0@@Z PROC ; std::_Destroy_range<std::allocator<glm::vec<2,float,0> > >, COMDAT

; 940  : void _Destroy_range(_Alloc_ptr_t<_Alloc> _First, const _Alloc_ptr_t<_Alloc> _Last, _Alloc& _Al) noexcept {

	push	ebp
	mov	ebp, esp
	push	-1
	push	__ehhandler$??$_Destroy_range@V?$allocator@U?$vec@$01M$0A@@glm@@@std@@@std@@YAXPAU?$vec@$01M$0A@@glm@@QAU12@AAV?$allocator@U?$vec@$01M$0A@@glm@@@0@@Z
	mov	eax, DWORD PTR fs:0
	push	eax
	sub	esp, 192				; 000000c0H
	push	ebx
	push	esi
	push	edi
	lea	edi, DWORD PTR [ebp-204]
	mov	ecx, 48					; 00000030H
	mov	eax, -858993460				; ccccccccH
	rep stosd
	mov	eax, DWORD PTR ___security_cookie
	xor	eax, ebp
	push	eax
	lea	eax, DWORD PTR __$EHRec$[ebp]
	mov	DWORD PTR fs:0, eax
	mov	ecx, OFFSET __B1B75AB9_xmemory
	call	@__CheckForDebuggerJustMyCode@4

; 941  :     // note that this is an optimization for debug mode codegen; in release mode the BE removes all of this
; 942  :     using _Ty = typename _Alloc::value_type;
; 943  :     if
; 944  :         _CONSTEXPR_IF(conjunction_v<is_trivially_destructible<_Ty>, _Uses_default_destroy<_Alloc, _Ty*>>) {
; 945  :             (void) _First;
; 946  :             (void) _Last;
; 947  :             (void) _Al;
; 948  :         }
; 949  :     else {
; 950  :         for (; _First != _Last; ++_First) {
; 951  :             allocator_traits<_Alloc>::destroy(_Al, _Unfancy(_First));
; 952  :         }
; 953  :     }
; 954  : }

	mov	ecx, DWORD PTR __$EHRec$[ebp]
	mov	DWORD PTR fs:0, ecx
	pop	ecx
	pop	edi
	pop	esi
	pop	ebx
	add	esp, 204				; 000000ccH
	cmp	ebp, esp
	call	__RTC_CheckEsp
	mov	esp, ebp
	pop	ebp
	ret	0
_TEXT	ENDS
;	COMDAT text$x
text$x	SEGMENT
__ehhandler$??$_Destroy_range@V?$allocator@U?$vec@$01M$0A@@glm@@@std@@@std@@YAXPAU?$vec@$01M$0A@@glm@@QAU12@AAV?$allocator@U?$vec@$01M$0A@@glm@@@0@@Z:
	mov	edx, DWORD PTR [esp+8]
	lea	eax, DWORD PTR [edx+12]
	mov	ecx, DWORD PTR [edx-208]
	xor	ecx, eax
	call	@__security_check_cookie@4
	mov	eax, OFFSET __ehfuncinfo$??$_Destroy_range@V?$allocator@U?$vec@$01M$0A@@glm@@@std@@@std@@YAXPAU?$vec@$01M$0A@@glm@@QAU12@AAV?$allocator@U?$vec@$01M$0A@@glm@@@0@@Z
	jmp	___CxxFrameHandler3
text$x	ENDS
??$_Destroy_range@V?$allocator@U?$vec@$01M$0A@@glm@@@std@@@std@@YAXPAU?$vec@$01M$0A@@glm@@QAU12@AAV?$allocator@U?$vec@$01M$0A@@glm@@@0@@Z ENDP ; std::_Destroy_range<std::allocator<glm::vec<2,float,0> > >
; Function compile flags: /Odtp /RTCsu /ZI
; File C:\Program Files (x86)\Microsoft Visual Studio\2019\Community\VC\Tools\MSVC\14.24.28314\include\xmemory
;	COMDAT ??$_Destroy_range@V?$allocator@U?$vec@$02I$0A@@glm@@@std@@@std@@YAXPAU?$vec@$02I$0A@@glm@@QAU12@AAV?$allocator@U?$vec@$02I$0A@@glm@@@0@@Z
_TEXT	SEGMENT
__$EHRec$ = -12						; size = 12
__First$ = 8						; size = 4
__Last$ = 12						; size = 4
__Al$ = 16						; size = 4
??$_Destroy_range@V?$allocator@U?$vec@$02I$0A@@glm@@@std@@@std@@YAXPAU?$vec@$02I$0A@@glm@@QAU12@AAV?$allocator@U?$vec@$02I$0A@@glm@@@0@@Z PROC ; std::_Destroy_range<std::allocator<glm::vec<3,unsigned int,0> > >, COMDAT

; 940  : void _Destroy_range(_Alloc_ptr_t<_Alloc> _First, const _Alloc_ptr_t<_Alloc> _Last, _Alloc& _Al) noexcept {

	push	ebp
	mov	ebp, esp
	push	-1
	push	__ehhandler$??$_Destroy_range@V?$allocator@U?$vec@$02I$0A@@glm@@@std@@@std@@YAXPAU?$vec@$02I$0A@@glm@@QAU12@AAV?$allocator@U?$vec@$02I$0A@@glm@@@0@@Z
	mov	eax, DWORD PTR fs:0
	push	eax
	sub	esp, 192				; 000000c0H
	push	ebx
	push	esi
	push	edi
	lea	edi, DWORD PTR [ebp-204]
	mov	ecx, 48					; 00000030H
	mov	eax, -858993460				; ccccccccH
	rep stosd
	mov	eax, DWORD PTR ___security_cookie
	xor	eax, ebp
	push	eax
	lea	eax, DWORD PTR __$EHRec$[ebp]
	mov	DWORD PTR fs:0, eax
	mov	ecx, OFFSET __B1B75AB9_xmemory
	call	@__CheckForDebuggerJustMyCode@4

; 941  :     // note that this is an optimization for debug mode codegen; in release mode the BE removes all of this
; 942  :     using _Ty = typename _Alloc::value_type;
; 943  :     if
; 944  :         _CONSTEXPR_IF(conjunction_v<is_trivially_destructible<_Ty>, _Uses_default_destroy<_Alloc, _Ty*>>) {
; 945  :             (void) _First;
; 946  :             (void) _Last;
; 947  :             (void) _Al;
; 948  :         }
; 949  :     else {
; 950  :         for (; _First != _Last; ++_First) {
; 951  :             allocator_traits<_Alloc>::destroy(_Al, _Unfancy(_First));
; 952  :         }
; 953  :     }
; 954  : }

	mov	ecx, DWORD PTR __$EHRec$[ebp]
	mov	DWORD PTR fs:0, ecx
	pop	ecx
	pop	edi
	pop	esi
	pop	ebx
	add	esp, 204				; 000000ccH
	cmp	ebp, esp
	call	__RTC_CheckEsp
	mov	esp, ebp
	pop	ebp
	ret	0
_TEXT	ENDS
;	COMDAT text$x
text$x	SEGMENT
__ehhandler$??$_Destroy_range@V?$allocator@U?$vec@$02I$0A@@glm@@@std@@@std@@YAXPAU?$vec@$02I$0A@@glm@@QAU12@AAV?$allocator@U?$vec@$02I$0A@@glm@@@0@@Z:
	mov	edx, DWORD PTR [esp+8]
	lea	eax, DWORD PTR [edx+12]
	mov	ecx, DWORD PTR [edx-208]
	xor	ecx, eax
	call	@__security_check_cookie@4
	mov	eax, OFFSET __ehfuncinfo$??$_Destroy_range@V?$allocator@U?$vec@$02I$0A@@glm@@@std@@@std@@YAXPAU?$vec@$02I$0A@@glm@@QAU12@AAV?$allocator@U?$vec@$02I$0A@@glm@@@0@@Z
	jmp	___CxxFrameHandler3
text$x	ENDS
??$_Destroy_range@V?$allocator@U?$vec@$02I$0A@@glm@@@std@@@std@@YAXPAU?$vec@$02I$0A@@glm@@QAU12@AAV?$allocator@U?$vec@$02I$0A@@glm@@@0@@Z ENDP ; std::_Destroy_range<std::allocator<glm::vec<3,unsigned int,0> > >
; Function compile flags: /Odtp /RTCsu /ZI
; File C:\Program Files (x86)\Microsoft Visual Studio\2019\Community\VC\Tools\MSVC\14.24.28314\include\xmemory
;	COMDAT ??$_Get_size_of_n@$07@std@@YAII@Z
_TEXT	SEGMENT
__Max_possible$1 = -20					; size = 4
__Overflow_is_possible$ = -5				; size = 1
__Count$ = 8						; size = 4
??$_Get_size_of_n@$07@std@@YAII@Z PROC			; std::_Get_size_of_n<8>, COMDAT

; 28   : _NODISCARD constexpr size_t _Get_size_of_n(const size_t _Count) {

	push	ebp
	mov	ebp, esp
	sub	esp, 216				; 000000d8H
	push	ebx
	push	esi
	push	edi
	lea	edi, DWORD PTR [ebp-216]
	mov	ecx, 54					; 00000036H
	mov	eax, -858993460				; ccccccccH
	rep stosd
	mov	ecx, OFFSET __B1B75AB9_xmemory
	call	@__CheckForDebuggerJustMyCode@4

; 29   :     constexpr bool _Overflow_is_possible = _Ty_size > 1;

	mov	BYTE PTR __Overflow_is_possible$[ebp], 1

; 30   : 
; 31   :     if
; 32   :         _CONSTEXPR_IF(_Overflow_is_possible) {
; 33   :             constexpr size_t _Max_possible = static_cast<size_t>(-1) / _Ty_size;

	mov	DWORD PTR __Max_possible$1[ebp], 536870911 ; 1fffffffH

; 34   :             if (_Count > _Max_possible) {

	cmp	DWORD PTR __Count$[ebp], 536870911	; 1fffffffH
	jbe	SHORT $LN2@Get_size_o

; 35   :                 _Throw_bad_array_new_length(); // multiply overflow

	call	?_Throw_bad_array_new_length@std@@YAXXZ	; std::_Throw_bad_array_new_length
$LN2@Get_size_o:

; 36   :             }
; 37   :         }
; 38   : 
; 39   :     return _Count * _Ty_size;

	mov	eax, DWORD PTR __Count$[ebp]
	shl	eax, 3
$LN3@Get_size_o:

; 40   : }

	pop	edi
	pop	esi
	pop	ebx
	add	esp, 216				; 000000d8H
	cmp	ebp, esp
	call	__RTC_CheckEsp
	mov	esp, ebp
	pop	ebp
	ret	0
??$_Get_size_of_n@$07@std@@YAII@Z ENDP			; std::_Get_size_of_n<8>
_TEXT	ENDS
; Function compile flags: /Odtp /RTCsu /ZI
; File C:\Program Files (x86)\Microsoft Visual Studio\2019\Community\VC\Tools\MSVC\14.24.28314\include\xmemory
;	COMDAT ??$_Deallocate@$07$0A@@std@@YAXPAXI@Z
_TEXT	SEGMENT
__$EHRec$ = -12						; size = 12
__Ptr$ = 8						; size = 4
__Bytes$ = 12						; size = 4
??$_Deallocate@$07$0A@@std@@YAXPAXI@Z PROC		; std::_Deallocate<8,0>, COMDAT

; 187  : void _Deallocate(void* _Ptr, size_t _Bytes) noexcept {

	push	ebp
	mov	ebp, esp
	push	-1
	push	__ehhandler$??$_Deallocate@$07$0A@@std@@YAXPAXI@Z
	mov	eax, DWORD PTR fs:0
	push	eax
	sub	esp, 192				; 000000c0H
	push	ebx
	push	esi
	push	edi
	lea	edi, DWORD PTR [ebp-204]
	mov	ecx, 48					; 00000030H
	mov	eax, -858993460				; ccccccccH
	rep stosd
	mov	eax, DWORD PTR ___security_cookie
	xor	eax, ebp
	push	eax
	lea	eax, DWORD PTR __$EHRec$[ebp]
	mov	DWORD PTR fs:0, eax
	mov	ecx, OFFSET __B1B75AB9_xmemory
	call	@__CheckForDebuggerJustMyCode@4

; 188  :     // deallocate storage allocated by _Allocate when !_HAS_ALIGNED_NEW || _Align <= __STDCPP_DEFAULT_NEW_ALIGNMENT__
; 189  : #if defined(_M_IX86) || defined(_M_X64)
; 190  :     if (_Bytes >= _Big_allocation_threshold) { // boost the alignment of big allocations to help autovectorization

	cmp	DWORD PTR __Bytes$[ebp], 4096		; 00001000H
	jb	SHORT $LN2@Deallocate

; 191  :         _Adjust_manually_vector_aligned(_Ptr, _Bytes);

	lea	eax, DWORD PTR __Bytes$[ebp]
	push	eax
	lea	ecx, DWORD PTR __Ptr$[ebp]
	push	ecx
	call	?_Adjust_manually_vector_aligned@std@@YAXAAPAXAAI@Z ; std::_Adjust_manually_vector_aligned
	add	esp, 8
$LN2@Deallocate:

; 192  :     }
; 193  : #endif // defined(_M_IX86) || defined(_M_X64)
; 194  : 
; 195  :     ::operator delete(_Ptr, _Bytes);

	mov	eax, DWORD PTR __Bytes$[ebp]
	push	eax
	mov	ecx, DWORD PTR __Ptr$[ebp]
	push	ecx
	call	??3@YAXPAXI@Z				; operator delete
	add	esp, 8

; 196  : }

	mov	ecx, DWORD PTR __$EHRec$[ebp]
	mov	DWORD PTR fs:0, ecx
	pop	ecx
	pop	edi
	pop	esi
	pop	ebx
	add	esp, 204				; 000000ccH
	cmp	ebp, esp
	call	__RTC_CheckEsp
	mov	esp, ebp
	pop	ebp
	ret	0
_TEXT	ENDS
;	COMDAT text$x
text$x	SEGMENT
__ehhandler$??$_Deallocate@$07$0A@@std@@YAXPAXI@Z:
	mov	edx, DWORD PTR [esp+8]
	lea	eax, DWORD PTR [edx+12]
	mov	ecx, DWORD PTR [edx-208]
	xor	ecx, eax
	call	@__security_check_cookie@4
	mov	eax, OFFSET __ehfuncinfo$??$_Deallocate@$07$0A@@std@@YAXPAXI@Z
	jmp	___CxxFrameHandler3
text$x	ENDS
??$_Deallocate@$07$0A@@std@@YAXPAXI@Z ENDP		; std::_Deallocate<8,0>
; Function compile flags: /Odtp /RTCsu /ZI
; File C:\Program Files (x86)\Microsoft Visual Studio\2019\Community\VC\Tools\MSVC\14.24.28314\include\xmemory
;	COMDAT ??$_Allocate@$07U_Default_allocate_traits@std@@$0A@@std@@YAPAXI@Z
_TEXT	SEGMENT
__Bytes$ = 8						; size = 4
??$_Allocate@$07U_Default_allocate_traits@std@@$0A@@std@@YAPAXI@Z PROC ; std::_Allocate<8,std::_Default_allocate_traits,0>, COMDAT

; 171  : _DECLSPEC_ALLOCATOR void* _Allocate(const size_t _Bytes) {

	push	ebp
	mov	ebp, esp
	sub	esp, 192				; 000000c0H
	push	ebx
	push	esi
	push	edi
	lea	edi, DWORD PTR [ebp-192]
	mov	ecx, 48					; 00000030H
	mov	eax, -858993460				; ccccccccH
	rep stosd
	mov	ecx, OFFSET __B1B75AB9_xmemory
	call	@__CheckForDebuggerJustMyCode@4

; 172  :     // allocate _Bytes when !_HAS_ALIGNED_NEW || _Align <= __STDCPP_DEFAULT_NEW_ALIGNMENT__
; 173  : #if defined(_M_IX86) || defined(_M_X64)
; 174  :     if (_Bytes >= _Big_allocation_threshold) { // boost the alignment of big allocations to help autovectorization

	cmp	DWORD PTR __Bytes$[ebp], 4096		; 00001000H
	jb	SHORT $LN2@Allocate

; 175  :         return _Allocate_manually_vector_aligned<_Traits>(_Bytes);

	mov	eax, DWORD PTR __Bytes$[ebp]
	push	eax
	call	??$_Allocate_manually_vector_aligned@U_Default_allocate_traits@std@@@std@@YAPAXI@Z ; std::_Allocate_manually_vector_aligned<std::_Default_allocate_traits>
	add	esp, 4
	jmp	SHORT $LN1@Allocate
$LN2@Allocate:

; 176  :     }
; 177  : #endif // defined(_M_IX86) || defined(_M_X64)
; 178  : 
; 179  :     if (_Bytes != 0) {

	cmp	DWORD PTR __Bytes$[ebp], 0
	je	SHORT $LN3@Allocate

; 180  :         return _Traits::_Allocate(_Bytes);

	mov	eax, DWORD PTR __Bytes$[ebp]
	push	eax
	call	?_Allocate@_Default_allocate_traits@std@@SAPAXI@Z ; std::_Default_allocate_traits::_Allocate
	add	esp, 4
	jmp	SHORT $LN1@Allocate
$LN3@Allocate:

; 181  :     }
; 182  : 
; 183  :     return nullptr;

	xor	eax, eax
$LN1@Allocate:

; 184  : }

	pop	edi
	pop	esi
	pop	ebx
	add	esp, 192				; 000000c0H
	cmp	ebp, esp
	call	__RTC_CheckEsp
	mov	esp, ebp
	pop	ebp
	ret	0
??$_Allocate@$07U_Default_allocate_traits@std@@$0A@@std@@YAPAXI@Z ENDP ; std::_Allocate<8,std::_Default_allocate_traits,0>
_TEXT	ENDS
; Function compile flags: /Odtp /RTCsu /ZI
; File C:\Program Files (x86)\Microsoft Visual Studio\2019\Community\VC\Tools\MSVC\14.24.28314\include\xmemory
;	COMDAT ??$_Get_size_of_n@$00@std@@YAII@Z
_TEXT	SEGMENT
__Overflow_is_possible$ = -5				; size = 1
__Count$ = 8						; size = 4
??$_Get_size_of_n@$00@std@@YAII@Z PROC			; std::_Get_size_of_n<1>, COMDAT

; 28   : _NODISCARD constexpr size_t _Get_size_of_n(const size_t _Count) {

	push	ebp
	mov	ebp, esp
	sub	esp, 204				; 000000ccH
	push	ebx
	push	esi
	push	edi
	lea	edi, DWORD PTR [ebp-204]
	mov	ecx, 51					; 00000033H
	mov	eax, -858993460				; ccccccccH
	rep stosd
	mov	ecx, OFFSET __B1B75AB9_xmemory
	call	@__CheckForDebuggerJustMyCode@4

; 29   :     constexpr bool _Overflow_is_possible = _Ty_size > 1;

	mov	BYTE PTR __Overflow_is_possible$[ebp], 0

; 30   : 
; 31   :     if
; 32   :         _CONSTEXPR_IF(_Overflow_is_possible) {
; 33   :             constexpr size_t _Max_possible = static_cast<size_t>(-1) / _Ty_size;
; 34   :             if (_Count > _Max_possible) {
; 35   :                 _Throw_bad_array_new_length(); // multiply overflow
; 36   :             }
; 37   :         }
; 38   : 
; 39   :     return _Count * _Ty_size;

	mov	eax, DWORD PTR __Count$[ebp]

; 40   : }

	pop	edi
	pop	esi
	pop	ebx
	add	esp, 204				; 000000ccH
	cmp	ebp, esp
	call	__RTC_CheckEsp
	mov	esp, ebp
	pop	ebp
	ret	0
??$_Get_size_of_n@$00@std@@YAII@Z ENDP			; std::_Get_size_of_n<1>
_TEXT	ENDS
; Function compile flags: /Odtp /RTCsu /ZI
; File C:\Program Files (x86)\Microsoft Visual Studio\2019\Community\VC\Tools\MSVC\14.24.28314\include\xmemory
;	COMDAT ??$_Construct_in_place@PADABQAD@std@@YAXAAPADABQAD@Z
_TEXT	SEGMENT
$T2 = -212						; size = 4
__$EHRec$ = -12						; size = 12
__Obj$ = 8						; size = 4
_<_Args_0>$ = 12					; size = 4
??$_Construct_in_place@PADABQAD@std@@YAXAAPADABQAD@Z PROC ; std::_Construct_in_place<char *,char * const &>, COMDAT

; 202  : void _Construct_in_place(_Ty& _Obj, _Types&&... _Args) noexcept(is_nothrow_constructible_v<_Ty, _Types...>) {

	push	ebp
	mov	ebp, esp
	push	-1
	push	__ehhandler$??$_Construct_in_place@PADABQAD@std@@YAXAAPADABQAD@Z
	mov	eax, DWORD PTR fs:0
	push	eax
	sub	esp, 204				; 000000ccH
	push	ebx
	push	esi
	push	edi
	lea	edi, DWORD PTR [ebp-216]
	mov	ecx, 51					; 00000033H
	mov	eax, -858993460				; ccccccccH
	rep stosd
	mov	eax, DWORD PTR ___security_cookie
	xor	eax, ebp
	push	eax
	lea	eax, DWORD PTR __$EHRec$[ebp]
	mov	DWORD PTR fs:0, eax
	mov	ecx, OFFSET __B1B75AB9_xmemory
	call	@__CheckForDebuggerJustMyCode@4
	mov	eax, DWORD PTR __Obj$[ebp]
	push	eax
	call	??$addressof@PAD@std@@YAPAPADAAPAD@Z	; std::addressof<char *>
	add	esp, 4
	push	eax
	push	4
	call	??2@YAPAXIPAX@Z				; operator new
	add	esp, 8
	mov	DWORD PTR $T2[ebp], eax
	mov	ecx, DWORD PTR _<_Args_0>$[ebp]
	push	ecx
	call	??$forward@ABQAD@std@@YAABQADABQAD@Z	; std::forward<char * const &>
	add	esp, 4
	mov	edx, DWORD PTR $T2[ebp]
	mov	eax, DWORD PTR [eax]
	mov	DWORD PTR [edx], eax

; 203  :     ::new (const_cast<void*>(static_cast<const volatile void*>(_STD addressof(_Obj))))
; 204  :         _Ty(_STD forward<_Types>(_Args)...);
; 205  : }

	mov	ecx, DWORD PTR __$EHRec$[ebp]
	mov	DWORD PTR fs:0, ecx
	pop	ecx
	pop	edi
	pop	esi
	pop	ebx
	add	esp, 216				; 000000d8H
	cmp	ebp, esp
	call	__RTC_CheckEsp
	mov	esp, ebp
	pop	ebp
	ret	0
_TEXT	ENDS
;	COMDAT text$x
text$x	SEGMENT
__ehhandler$??$_Construct_in_place@PADABQAD@std@@YAXAAPADABQAD@Z:
	mov	edx, DWORD PTR [esp+8]
	lea	eax, DWORD PTR [edx+12]
	mov	ecx, DWORD PTR [edx-220]
	xor	ecx, eax
	call	@__security_check_cookie@4
	mov	eax, OFFSET __ehfuncinfo$??$_Construct_in_place@PADABQAD@std@@YAXAAPADABQAD@Z
	jmp	___CxxFrameHandler3
text$x	ENDS
??$_Construct_in_place@PADABQAD@std@@YAXAAPADABQAD@Z ENDP ; std::_Construct_in_place<char *,char * const &>
; Function compile flags: /Odtp /RTCsu /ZI
; File C:\Program Files (x86)\Microsoft Visual Studio\2019\Community\VC\Tools\MSVC\14.24.28314\include\xstring
;	COMDAT ??$_Reallocate_for@V<lambda_9366063389c5f42a00a5088cf24e69de>@@PBD@?$basic_string@DU?$char_traits@D@std@@V?$allocator@D@2@@std@@AAEAAV01@IV<lambda_9366063389c5f42a00a5088cf24e69de>@@PBD@Z
_TEXT	SEGMENT
__New_ptr$ = -60					; size = 4
__Al$ = -48						; size = 4
__New_capacity$ = -36					; size = 4
__Old_capacity$ = -24					; size = 4
_this$ = -12						; size = 4
__$ArrayPad$ = -4					; size = 4
__New_size$ = 8						; size = 4
__Fn$ = 12						; size = 1
_<_Args_0>$ = 16					; size = 4
??$_Reallocate_for@V<lambda_9366063389c5f42a00a5088cf24e69de>@@PBD@?$basic_string@DU?$char_traits@D@std@@V?$allocator@D@2@@std@@AAEAAV01@IV<lambda_9366063389c5f42a00a5088cf24e69de>@@PBD@Z PROC ; std::basic_string<char,std::char_traits<char>,std::allocator<char> >::_Reallocate_for<<lambda_9366063389c5f42a00a5088cf24e69de>,char const *>, COMDAT
; _this$ = ecx

; 4103 :     basic_string& _Reallocate_for(const size_type _New_size, _Fty _Fn, _ArgTys... _Args) {

	push	ebp
	mov	ebp, esp
	sub	esp, 256				; 00000100H
	push	ebx
	push	esi
	push	edi
	push	ecx
	lea	edi, DWORD PTR [ebp-256]
	mov	ecx, 64					; 00000040H
	mov	eax, -858993460				; ccccccccH
	rep stosd
	pop	ecx
	mov	eax, DWORD PTR ___security_cookie
	xor	eax, ebp
	mov	DWORD PTR __$ArrayPad$[ebp], eax
	mov	DWORD PTR _this$[ebp], ecx
	mov	ecx, OFFSET __C564DC25_xstring
	call	@__CheckForDebuggerJustMyCode@4

; 4104 :         // reallocate to store exactly _New_size elements, new buffer prepared by
; 4105 :         // _Fn(_New_ptr, _New_size, _Args...)
; 4106 :         if (_New_size > max_size()) {

	mov	ecx, DWORD PTR _this$[ebp]
	call	?max_size@?$basic_string@DU?$char_traits@D@std@@V?$allocator@D@2@@std@@QBEIXZ ; std::basic_string<char,std::char_traits<char>,std::allocator<char> >::max_size
	cmp	DWORD PTR __New_size$[ebp], eax
	jbe	SHORT $LN2@Reallocate

; 4107 :             _Xlen(); // result too long

	call	?_Xlen@?$basic_string@DU?$char_traits@D@std@@V?$allocator@D@2@@std@@CAXXZ ; std::basic_string<char,std::char_traits<char>,std::allocator<char> >::_Xlen
$LN2@Reallocate:

; 4108 :         }
; 4109 : 
; 4110 :         const size_type _Old_capacity = _Mypair._Myval2._Myres;

	mov	eax, DWORD PTR _this$[ebp]
	mov	ecx, DWORD PTR [eax+24]
	mov	DWORD PTR __Old_capacity$[ebp], ecx

; 4111 :         const size_type _New_capacity = _Calculate_growth(_New_size);

	mov	eax, DWORD PTR __New_size$[ebp]
	push	eax
	mov	ecx, DWORD PTR _this$[ebp]
	call	?_Calculate_growth@?$basic_string@DU?$char_traits@D@std@@V?$allocator@D@2@@std@@ABEII@Z ; std::basic_string<char,std::char_traits<char>,std::allocator<char> >::_Calculate_growth
	mov	DWORD PTR __New_capacity$[ebp], eax

; 4112 :         auto& _Al                     = _Getal();

	mov	ecx, DWORD PTR _this$[ebp]
	call	?_Getal@?$basic_string@DU?$char_traits@D@std@@V?$allocator@D@2@@std@@AAEAAV?$allocator@D@2@XZ ; std::basic_string<char,std::char_traits<char>,std::allocator<char> >::_Getal
	mov	DWORD PTR __Al$[ebp], eax

; 4113 :         const pointer _New_ptr        = _Al.allocate(_New_capacity + 1); // throws

	xor	eax, eax
	mov	ecx, DWORD PTR __New_capacity$[ebp]
	add	ecx, 1
	setb	al
	neg	eax
	or	eax, ecx
	push	eax
	mov	ecx, DWORD PTR __Al$[ebp]
	call	?allocate@?$allocator@D@std@@QAEPADI@Z	; std::allocator<char>::allocate
	mov	DWORD PTR __New_ptr$[ebp], eax

; 4114 :         _Mypair._Myval2._Orphan_all();

	mov	ecx, DWORD PTR _this$[ebp]
	call	?_Orphan_all@_Container_base12@std@@QAEXXZ ; std::_Container_base12::_Orphan_all

; 4115 :         _Mypair._Myval2._Mysize = _New_size;

	mov	eax, DWORD PTR _this$[ebp]
	mov	ecx, DWORD PTR __New_size$[ebp]
	mov	DWORD PTR [eax+20], ecx

; 4116 :         _Mypair._Myval2._Myres  = _New_capacity;

	mov	eax, DWORD PTR _this$[ebp]
	mov	ecx, DWORD PTR __New_capacity$[ebp]
	mov	DWORD PTR [eax+24], ecx

; 4117 :         _Fn(_Unfancy(_New_ptr), _New_size, _Args...);

	mov	eax, DWORD PTR _<_Args_0>$[ebp]
	push	eax
	mov	ecx, DWORD PTR __New_size$[ebp]
	push	ecx
	mov	edx, DWORD PTR __New_ptr$[ebp]
	push	edx
	call	??$_Unfancy@D@std@@YAPADPAD@Z		; std::_Unfancy<char>
	add	esp, 4
	push	eax
	lea	ecx, DWORD PTR __Fn$[ebp]
	call	??R<lambda_9366063389c5f42a00a5088cf24e69de>@@QBEXQADIQBD@Z ; <lambda_9366063389c5f42a00a5088cf24e69de>::operator()

; 4118 :         if (_BUF_SIZE <= _Old_capacity) {

	cmp	DWORD PTR __Old_capacity$[ebp], 16	; 00000010H
	jb	SHORT $LN3@Reallocate

; 4119 :             _Al.deallocate(_Mypair._Myval2._Bx._Ptr, _Old_capacity + 1);

	mov	eax, DWORD PTR __Old_capacity$[ebp]
	add	eax, 1
	push	eax
	mov	ecx, DWORD PTR _this$[ebp]
	mov	edx, DWORD PTR [ecx+4]
	push	edx
	mov	ecx, DWORD PTR __Al$[ebp]
	call	?deallocate@?$allocator@D@std@@QAEXQADI@Z ; std::allocator<char>::deallocate

; 4120 :             _Mypair._Myval2._Bx._Ptr = _New_ptr;

	mov	eax, DWORD PTR _this$[ebp]
	mov	ecx, DWORD PTR __New_ptr$[ebp]
	mov	DWORD PTR [eax+4], ecx

; 4121 :         } else {

	jmp	SHORT $LN4@Reallocate
$LN3@Reallocate:

; 4122 :             _Construct_in_place(_Mypair._Myval2._Bx._Ptr, _New_ptr);

	lea	eax, DWORD PTR __New_ptr$[ebp]
	push	eax
	mov	ecx, DWORD PTR _this$[ebp]
	add	ecx, 4
	push	ecx
	call	??$_Construct_in_place@PADABQAD@std@@YAXAAPADABQAD@Z ; std::_Construct_in_place<char *,char * const &>
	add	esp, 8
$LN4@Reallocate:

; 4123 :         }
; 4124 : 
; 4125 :         return *this;

	mov	eax, DWORD PTR _this$[ebp]
$LN5@Reallocate:

; 4126 :     }

	push	edx
	mov	ecx, ebp
	push	eax
	lea	edx, DWORD PTR $LN8@Reallocate
	call	@_RTC_CheckStackVars@8
	pop	eax
	pop	edx
	pop	edi
	pop	esi
	pop	ebx
	mov	ecx, DWORD PTR __$ArrayPad$[ebp]
	xor	ecx, ebp
	call	@__security_check_cookie@4
	add	esp, 256				; 00000100H
	cmp	ebp, esp
	call	__RTC_CheckEsp
	mov	esp, ebp
	pop	ebp
	ret	12					; 0000000cH
$LN8@Reallocate:
	DD	1
	DD	$LN7@Reallocate
$LN7@Reallocate:
	DD	-60					; ffffffc4H
	DD	4
	DD	$LN6@Reallocate
$LN6@Reallocate:
	DB	95					; 0000005fH
	DB	78					; 0000004eH
	DB	101					; 00000065H
	DB	119					; 00000077H
	DB	95					; 0000005fH
	DB	112					; 00000070H
	DB	116					; 00000074H
	DB	114					; 00000072H
	DB	0
??$_Reallocate_for@V<lambda_9366063389c5f42a00a5088cf24e69de>@@PBD@?$basic_string@DU?$char_traits@D@std@@V?$allocator@D@2@@std@@AAEAAV01@IV<lambda_9366063389c5f42a00a5088cf24e69de>@@PBD@Z ENDP ; std::basic_string<char,std::char_traits<char>,std::allocator<char> >::_Reallocate_for<<lambda_9366063389c5f42a00a5088cf24e69de>,char const *>
_TEXT	ENDS
; Function compile flags: /Odtp /RTCsu /ZI
; File C:\Program Files (x86)\Microsoft Visual Studio\2019\Community\VC\Tools\MSVC\14.24.28314\include\xstring
;	COMDAT ??R<lambda_9366063389c5f42a00a5088cf24e69de>@@QBEXQADIQBD@Z
_TEXT	SEGMENT
$T1 = -209						; size = 1
_this$ = -8						; size = 4
__New_ptr$ = 8						; size = 4
__Count$ = 12						; size = 4
__Ptr$ = 16						; size = 4
??R<lambda_9366063389c5f42a00a5088cf24e69de>@@QBEXQADIQBD@Z PROC ; <lambda_9366063389c5f42a00a5088cf24e69de>::operator(), COMDAT
; _this$ = ecx

; 2883 :             [](_Elem* const _New_ptr, const size_type _Count, const _Elem* const _Ptr) {

	push	ebp
	mov	ebp, esp
	sub	esp, 216				; 000000d8H
	push	ebx
	push	esi
	push	edi
	push	ecx
	lea	edi, DWORD PTR [ebp-216]
	mov	ecx, 54					; 00000036H
	mov	eax, -858993460				; ccccccccH
	rep stosd
	pop	ecx
	mov	DWORD PTR _this$[ebp], ecx
	mov	ecx, OFFSET __C564DC25_xstring
	call	@__CheckForDebuggerJustMyCode@4

; 2884 :                 _Traits::copy(_New_ptr, _Ptr, _Count);

	mov	eax, DWORD PTR __Count$[ebp]
	push	eax
	mov	ecx, DWORD PTR __Ptr$[ebp]
	push	ecx
	mov	edx, DWORD PTR __New_ptr$[ebp]
	push	edx
	call	?copy@?$_Narrow_char_traits@DH@std@@SAPADQADQBDI@Z ; std::_Narrow_char_traits<char,int>::copy
	add	esp, 12					; 0000000cH

; 2885 :                 _Traits::assign(_New_ptr[_Count], _Elem());

	mov	BYTE PTR $T1[ebp], 0
	lea	eax, DWORD PTR $T1[ebp]
	push	eax
	mov	ecx, DWORD PTR __New_ptr$[ebp]
	add	ecx, DWORD PTR __Count$[ebp]
	push	ecx
	call	?assign@?$_Narrow_char_traits@DH@std@@SAXAADABD@Z ; std::_Narrow_char_traits<char,int>::assign
	add	esp, 8

; 2886 :             },

	pop	edi
	pop	esi
	pop	ebx
	add	esp, 216				; 000000d8H
	cmp	ebp, esp
	call	__RTC_CheckEsp
	mov	esp, ebp
	pop	ebp
	ret	12					; 0000000cH
??R<lambda_9366063389c5f42a00a5088cf24e69de>@@QBEXQADIQBD@Z ENDP ; <lambda_9366063389c5f42a00a5088cf24e69de>::operator()
_TEXT	ENDS
; Function compile flags: /Odtp /RTCsu /ZI
; File C:\Program Files (x86)\Microsoft Visual Studio\2019\Community\VC\Tools\MSVC\14.24.28314\include\utility
;	COMDAT ??$_Max_value@I@std@@YAABIABI0@Z
_TEXT	SEGMENT
tv65 = -220						; size = 4
$T2 = -212						; size = 4
__$EHRec$ = -12						; size = 12
__Left$ = 8						; size = 4
__Right$ = 12						; size = 4
??$_Max_value@I@std@@YAABIABI0@Z PROC			; std::_Max_value<unsigned int>, COMDAT

; 36   :     const _Ty& _Left, const _Ty& _Right) noexcept(noexcept(_Left < _Right)) {

	push	ebp
	mov	ebp, esp
	push	-1
	push	__ehhandler$??$_Max_value@I@std@@YAABIABI0@Z
	mov	eax, DWORD PTR fs:0
	push	eax
	sub	esp, 208				; 000000d0H
	push	ebx
	push	esi
	push	edi
	lea	edi, DWORD PTR [ebp-220]
	mov	ecx, 52					; 00000034H
	mov	eax, -858993460				; ccccccccH
	rep stosd
	mov	eax, DWORD PTR ___security_cookie
	xor	eax, ebp
	push	eax
	lea	eax, DWORD PTR __$EHRec$[ebp]
	mov	DWORD PTR fs:0, eax
	mov	ecx, OFFSET __DB22397A_utility
	call	@__CheckForDebuggerJustMyCode@4

; 37   :     return _Left < _Right ? _Right : _Left;

	mov	eax, DWORD PTR __Left$[ebp]
	mov	ecx, DWORD PTR __Right$[ebp]
	mov	edx, DWORD PTR [eax]
	cmp	edx, DWORD PTR [ecx]
	jae	SHORT $LN3@Max_value
	mov	eax, DWORD PTR __Right$[ebp]
	mov	DWORD PTR tv65[ebp], eax
	jmp	SHORT $LN4@Max_value
$LN3@Max_value:
	mov	ecx, DWORD PTR __Left$[ebp]
	mov	DWORD PTR tv65[ebp], ecx
$LN4@Max_value:
	mov	edx, DWORD PTR tv65[ebp]
	mov	DWORD PTR $T2[ebp], edx
	mov	eax, DWORD PTR $T2[ebp]

; 38   : }

	mov	ecx, DWORD PTR __$EHRec$[ebp]
	mov	DWORD PTR fs:0, ecx
	pop	ecx
	pop	edi
	pop	esi
	pop	ebx
	add	esp, 220				; 000000dcH
	cmp	ebp, esp
	call	__RTC_CheckEsp
	mov	esp, ebp
	pop	ebp
	ret	0
_TEXT	ENDS
;	COMDAT text$x
text$x	SEGMENT
__ehhandler$??$_Max_value@I@std@@YAABIABI0@Z:
	mov	edx, DWORD PTR [esp+8]
	lea	eax, DWORD PTR [edx+12]
	mov	ecx, DWORD PTR [edx-224]
	xor	ecx, eax
	call	@__security_check_cookie@4
	mov	eax, OFFSET __ehfuncinfo$??$_Max_value@I@std@@YAABIABI0@Z
	jmp	___CxxFrameHandler3
text$x	ENDS
??$_Max_value@I@std@@YAABIABI0@Z ENDP			; std::_Max_value<unsigned int>
; Function compile flags: /Odtp /RTCsu /ZI
; File C:\Program Files (x86)\Microsoft Visual Studio\2019\Community\VC\Tools\MSVC\14.24.28314\include\xmemory
;	COMDAT ??$_Destroy_in_place@PAD@std@@YAXAAPAD@Z
_TEXT	SEGMENT
__$EHRec$ = -12						; size = 12
__Obj$ = 8						; size = 4
??$_Destroy_in_place@PAD@std@@YAXAAPAD@Z PROC		; std::_Destroy_in_place<char *>, COMDAT

; 241  : void _Destroy_in_place(_Ty& _Obj) noexcept {

	push	ebp
	mov	ebp, esp
	push	-1
	push	__ehhandler$??$_Destroy_in_place@PAD@std@@YAXAAPAD@Z
	mov	eax, DWORD PTR fs:0
	push	eax
	sub	esp, 192				; 000000c0H
	push	ebx
	push	esi
	push	edi
	lea	edi, DWORD PTR [ebp-204]
	mov	ecx, 48					; 00000030H
	mov	eax, -858993460				; ccccccccH
	rep stosd
	mov	eax, DWORD PTR ___security_cookie
	xor	eax, ebp
	push	eax
	lea	eax, DWORD PTR __$EHRec$[ebp]
	mov	DWORD PTR fs:0, eax
	mov	ecx, OFFSET __B1B75AB9_xmemory
	call	@__CheckForDebuggerJustMyCode@4

; 242  :     _Obj.~_Ty();
; 243  : }

	mov	ecx, DWORD PTR __$EHRec$[ebp]
	mov	DWORD PTR fs:0, ecx
	pop	ecx
	pop	edi
	pop	esi
	pop	ebx
	add	esp, 204				; 000000ccH
	cmp	ebp, esp
	call	__RTC_CheckEsp
	mov	esp, ebp
	pop	ebp
	ret	0
_TEXT	ENDS
;	COMDAT text$x
text$x	SEGMENT
__ehhandler$??$_Destroy_in_place@PAD@std@@YAXAAPAD@Z:
	mov	edx, DWORD PTR [esp+8]
	lea	eax, DWORD PTR [edx+12]
	mov	ecx, DWORD PTR [edx-208]
	xor	ecx, eax
	call	@__security_check_cookie@4
	mov	eax, OFFSET __ehfuncinfo$??$_Destroy_in_place@PAD@std@@YAXAAPAD@Z
	jmp	___CxxFrameHandler3
text$x	ENDS
??$_Destroy_in_place@PAD@std@@YAXAAPAD@Z ENDP		; std::_Destroy_in_place<char *>
; Function compile flags: /Odtp /RTCsu /ZI
; File C:\Program Files (x86)\Microsoft Visual Studio\2019\Community\VC\Tools\MSVC\14.24.28314\include\xstddef
;	COMDAT ??$_Unfancy@U_Container_proxy@std@@@std@@YAPAU_Container_proxy@0@PAU10@@Z
_TEXT	SEGMENT
__$EHRec$ = -12						; size = 12
__Ptr$ = 8						; size = 4
??$_Unfancy@U_Container_proxy@std@@@std@@YAPAU_Container_proxy@0@PAU10@@Z PROC ; std::_Unfancy<std::_Container_proxy>, COMDAT

; 288  : _NODISCARD constexpr _Ty* _Unfancy(_Ty* _Ptr) noexcept { // do nothing for plain pointers

	push	ebp
	mov	ebp, esp
	push	-1
	push	__ehhandler$??$_Unfancy@U_Container_proxy@std@@@std@@YAPAU_Container_proxy@0@PAU10@@Z
	mov	eax, DWORD PTR fs:0
	push	eax
	sub	esp, 192				; 000000c0H
	push	ebx
	push	esi
	push	edi
	lea	edi, DWORD PTR [ebp-204]
	mov	ecx, 48					; 00000030H
	mov	eax, -858993460				; ccccccccH
	rep stosd
	mov	eax, DWORD PTR ___security_cookie
	xor	eax, ebp
	push	eax
	lea	eax, DWORD PTR __$EHRec$[ebp]
	mov	DWORD PTR fs:0, eax
	mov	ecx, OFFSET __2C3DAE68_xstddef
	call	@__CheckForDebuggerJustMyCode@4

; 289  :     return _Ptr;

	mov	eax, DWORD PTR __Ptr$[ebp]

; 290  : }

	mov	ecx, DWORD PTR __$EHRec$[ebp]
	mov	DWORD PTR fs:0, ecx
	pop	ecx
	pop	edi
	pop	esi
	pop	ebx
	add	esp, 204				; 000000ccH
	cmp	ebp, esp
	call	__RTC_CheckEsp
	mov	esp, ebp
	pop	ebp
	ret	0
_TEXT	ENDS
;	COMDAT text$x
text$x	SEGMENT
__ehhandler$??$_Unfancy@U_Container_proxy@std@@@std@@YAPAU_Container_proxy@0@PAU10@@Z:
	mov	edx, DWORD PTR [esp+8]
	lea	eax, DWORD PTR [edx+12]
	mov	ecx, DWORD PTR [edx-208]
	xor	ecx, eax
	call	@__security_check_cookie@4
	mov	eax, OFFSET __ehfuncinfo$??$_Unfancy@U_Container_proxy@std@@@std@@YAPAU_Container_proxy@0@PAU10@@Z
	jmp	___CxxFrameHandler3
text$x	ENDS
??$_Unfancy@U_Container_proxy@std@@@std@@YAPAU_Container_proxy@0@PAU10@@Z ENDP ; std::_Unfancy<std::_Container_proxy>
; Function compile flags: /Odtp /RTCsu /ZI
; File C:\Program Files (x86)\Microsoft Visual Studio\2019\Community\VC\Tools\MSVC\14.24.28314\include\xmemory
;	COMDAT ??$?0$$V@?$_Compressed_pair@V?$allocator@D@std@@V?$_String_val@U?$_Simple_types@D@std@@@2@$00@std@@QAE@U_Zero_then_variadic_args_t@1@@Z
_TEXT	SEGMENT
_this$ = -8						; size = 4
___formal$ = 8						; size = 1
??$?0$$V@?$_Compressed_pair@V?$allocator@D@std@@V?$_String_val@U?$_Simple_types@D@std@@@2@$00@std@@QAE@U_Zero_then_variadic_args_t@1@@Z PROC ; std::_Compressed_pair<std::allocator<char>,std::_String_val<std::_Simple_types<char> >,1>::_Compressed_pair<std::allocator<char>,std::_String_val<std::_Simple_types<char> >,1><>, COMDAT
; _this$ = ecx

; 1328 :         : _Ty1(), _Myval2(_STD forward<_Other2>(_Val2)...) {}

	push	ebp
	mov	ebp, esp
	sub	esp, 204				; 000000ccH
	push	ebx
	push	esi
	push	edi
	push	ecx
	lea	edi, DWORD PTR [ebp-204]
	mov	ecx, 51					; 00000033H
	mov	eax, -858993460				; ccccccccH
	rep stosd
	pop	ecx
	mov	DWORD PTR _this$[ebp], ecx
	mov	ecx, OFFSET __B1B75AB9_xmemory
	call	@__CheckForDebuggerJustMyCode@4
	mov	ecx, DWORD PTR _this$[ebp]
	call	??0?$allocator@D@std@@QAE@XZ		; std::allocator<char>::allocator<char>
	mov	ecx, DWORD PTR _this$[ebp]
	call	??0?$_String_val@U?$_Simple_types@D@std@@@std@@QAE@XZ ; std::_String_val<std::_Simple_types<char> >::_String_val<std::_Simple_types<char> >
	mov	eax, DWORD PTR _this$[ebp]
	pop	edi
	pop	esi
	pop	ebx
	add	esp, 204				; 000000ccH
	cmp	ebp, esp
	call	__RTC_CheckEsp
	mov	esp, ebp
	pop	ebp
	ret	4
??$?0$$V@?$_Compressed_pair@V?$allocator@D@std@@V?$_String_val@U?$_Simple_types@D@std@@@2@$00@std@@QAE@U_Zero_then_variadic_args_t@1@@Z ENDP ; std::_Compressed_pair<std::allocator<char>,std::_String_val<std::_Simple_types<char> >,1>::_Compressed_pair<std::allocator<char>,std::_String_val<std::_Simple_types<char> >,1><>
_TEXT	ENDS
; Function compile flags: /Odtp /RTCsu /ZI
; File C:\Program Files (x86)\Microsoft Visual Studio\2019\Community\VC\Tools\MSVC\14.24.28314\include\xmemory
;	COMDAT ??$?0D@?$allocator@U_Container_proxy@std@@@std@@QAE@ABV?$allocator@D@1@@Z
_TEXT	SEGMENT
_this$ = -20						; size = 4
__$EHRec$ = -12						; size = 12
___formal$ = 8						; size = 4
??$?0D@?$allocator@U_Container_proxy@std@@@std@@QAE@ABV?$allocator@D@1@@Z PROC ; std::allocator<std::_Container_proxy>::allocator<std::_Container_proxy><char>, COMDAT
; _this$ = ecx

; 776  :     constexpr allocator(const allocator<_Other>&) noexcept {}

	push	ebp
	mov	ebp, esp
	push	-1
	push	__ehhandler$??$?0D@?$allocator@U_Container_proxy@std@@@std@@QAE@ABV?$allocator@D@1@@Z
	mov	eax, DWORD PTR fs:0
	push	eax
	sub	esp, 204				; 000000ccH
	push	ebx
	push	esi
	push	edi
	push	ecx
	lea	edi, DWORD PTR [ebp-216]
	mov	ecx, 51					; 00000033H
	mov	eax, -858993460				; ccccccccH
	rep stosd
	pop	ecx
	mov	eax, DWORD PTR ___security_cookie
	xor	eax, ebp
	push	eax
	lea	eax, DWORD PTR __$EHRec$[ebp]
	mov	DWORD PTR fs:0, eax
	mov	DWORD PTR _this$[ebp], ecx
	mov	ecx, OFFSET __B1B75AB9_xmemory
	call	@__CheckForDebuggerJustMyCode@4
	mov	eax, DWORD PTR _this$[ebp]
	mov	ecx, DWORD PTR __$EHRec$[ebp]
	mov	DWORD PTR fs:0, ecx
	pop	ecx
	pop	edi
	pop	esi
	pop	ebx
	add	esp, 216				; 000000d8H
	cmp	ebp, esp
	call	__RTC_CheckEsp
	mov	esp, ebp
	pop	ebp
	ret	4
_TEXT	ENDS
;	COMDAT text$x
text$x	SEGMENT
__ehhandler$??$?0D@?$allocator@U_Container_proxy@std@@@std@@QAE@ABV?$allocator@D@1@@Z:
	mov	edx, DWORD PTR [esp+8]
	lea	eax, DWORD PTR [edx+12]
	mov	ecx, DWORD PTR [edx-220]
	xor	ecx, eax
	call	@__security_check_cookie@4
	mov	eax, OFFSET __ehfuncinfo$??$?0D@?$allocator@U_Container_proxy@std@@@std@@QAE@ABV?$allocator@D@1@@Z
	jmp	___CxxFrameHandler3
text$x	ENDS
??$?0D@?$allocator@U_Container_proxy@std@@@std@@QAE@ABV?$allocator@D@1@@Z ENDP ; std::allocator<std::_Container_proxy>::allocator<std::_Container_proxy><char>
; Function compile flags: /Odtp /RTCsu /ZI
; File C:\Program Files (x86)\Microsoft Visual Studio\2019\Community\VC\Tools\MSVC\14.24.28314\include\xstddef
;	COMDAT ??$_Unfancy@D@std@@YAPADPAD@Z
_TEXT	SEGMENT
__$EHRec$ = -12						; size = 12
__Ptr$ = 8						; size = 4
??$_Unfancy@D@std@@YAPADPAD@Z PROC			; std::_Unfancy<char>, COMDAT

; 288  : _NODISCARD constexpr _Ty* _Unfancy(_Ty* _Ptr) noexcept { // do nothing for plain pointers

	push	ebp
	mov	ebp, esp
	push	-1
	push	__ehhandler$??$_Unfancy@D@std@@YAPADPAD@Z
	mov	eax, DWORD PTR fs:0
	push	eax
	sub	esp, 192				; 000000c0H
	push	ebx
	push	esi
	push	edi
	lea	edi, DWORD PTR [ebp-204]
	mov	ecx, 48					; 00000030H
	mov	eax, -858993460				; ccccccccH
	rep stosd
	mov	eax, DWORD PTR ___security_cookie
	xor	eax, ebp
	push	eax
	lea	eax, DWORD PTR __$EHRec$[ebp]
	mov	DWORD PTR fs:0, eax
	mov	ecx, OFFSET __2C3DAE68_xstddef
	call	@__CheckForDebuggerJustMyCode@4

; 289  :     return _Ptr;

	mov	eax, DWORD PTR __Ptr$[ebp]

; 290  : }

	mov	ecx, DWORD PTR __$EHRec$[ebp]
	mov	DWORD PTR fs:0, ecx
	pop	ecx
	pop	edi
	pop	esi
	pop	ebx
	add	esp, 204				; 000000ccH
	cmp	ebp, esp
	call	__RTC_CheckEsp
	mov	esp, ebp
	pop	ebp
	ret	0
_TEXT	ENDS
;	COMDAT text$x
text$x	SEGMENT
__ehhandler$??$_Unfancy@D@std@@YAPADPAD@Z:
	mov	edx, DWORD PTR [esp+8]
	lea	eax, DWORD PTR [edx+12]
	mov	ecx, DWORD PTR [edx-208]
	xor	ecx, eax
	call	@__security_check_cookie@4
	mov	eax, OFFSET __ehfuncinfo$??$_Unfancy@D@std@@YAPADPAD@Z
	jmp	___CxxFrameHandler3
text$x	ENDS
??$_Unfancy@D@std@@YAPADPAD@Z ENDP			; std::_Unfancy<char>
; Function compile flags: /Odtp /RTCsu /ZI
; File C:\Program Files (x86)\Microsoft Visual Studio\2019\Community\VC\Tools\MSVC\14.24.28314\include\xmemory
;	COMDAT ??1?$_Container_proxy_ptr12@V?$allocator@U_Container_proxy@std@@@std@@@std@@QAE@XZ
_TEXT	SEGMENT
_this$ = -20						; size = 4
__$EHRec$ = -12						; size = 12
??1?$_Container_proxy_ptr12@V?$allocator@U_Container_proxy@std@@@std@@@std@@QAE@XZ PROC ; std::_Container_proxy_ptr12<std::allocator<std::_Container_proxy> >::~_Container_proxy_ptr12<std::allocator<std::_Container_proxy> >, COMDAT
; _this$ = ecx

; 1295 :     ~_Container_proxy_ptr12() {

	push	ebp
	mov	ebp, esp
	push	-1
	push	__ehhandler$??1?$_Container_proxy_ptr12@V?$allocator@U_Container_proxy@std@@@std@@@std@@QAE@XZ
	mov	eax, DWORD PTR fs:0
	push	eax
	sub	esp, 204				; 000000ccH
	push	ebx
	push	esi
	push	edi
	push	ecx
	lea	edi, DWORD PTR [ebp-216]
	mov	ecx, 51					; 00000033H
	mov	eax, -858993460				; ccccccccH
	rep stosd
	pop	ecx
	mov	eax, DWORD PTR ___security_cookie
	xor	eax, ebp
	push	eax
	lea	eax, DWORD PTR __$EHRec$[ebp]
	mov	DWORD PTR fs:0, eax
	mov	DWORD PTR _this$[ebp], ecx
	mov	ecx, OFFSET __B1B75AB9_xmemory
	call	@__CheckForDebuggerJustMyCode@4

; 1296 :         if (_Ptr) {

	mov	eax, DWORD PTR _this$[ebp]
	cmp	DWORD PTR [eax], 0
	je	SHORT $LN3@Container_

; 1297 :             _Delete_plain_internal(_Al, _Ptr);

	mov	eax, DWORD PTR _this$[ebp]
	mov	ecx, DWORD PTR [eax]
	push	ecx
	mov	edx, DWORD PTR _this$[ebp]
	mov	eax, DWORD PTR [edx+4]
	push	eax
	call	??$_Delete_plain_internal@V?$allocator@U_Container_proxy@std@@@std@@@std@@YAXAAV?$allocator@U_Container_proxy@std@@@0@QAU_Container_proxy@0@@Z ; std::_Delete_plain_internal<std::allocator<std::_Container_proxy> >
	add	esp, 8
$LN3@Container_:

; 1298 :         }
; 1299 :     }

	mov	ecx, DWORD PTR __$EHRec$[ebp]
	mov	DWORD PTR fs:0, ecx
	pop	ecx
	pop	edi
	pop	esi
	pop	ebx
	add	esp, 216				; 000000d8H
	cmp	ebp, esp
	call	__RTC_CheckEsp
	mov	esp, ebp
	pop	ebp
	ret	0
_TEXT	ENDS
;	COMDAT text$x
text$x	SEGMENT
__ehhandler$??1?$_Container_proxy_ptr12@V?$allocator@U_Container_proxy@std@@@std@@@std@@QAE@XZ:
	mov	edx, DWORD PTR [esp+8]
	lea	eax, DWORD PTR [edx+12]
	mov	ecx, DWORD PTR [edx-220]
	xor	ecx, eax
	call	@__security_check_cookie@4
	mov	eax, OFFSET __ehfuncinfo$??1?$_Container_proxy_ptr12@V?$allocator@U_Container_proxy@std@@@std@@@std@@QAE@XZ
	jmp	___CxxFrameHandler3
text$x	ENDS
??1?$_Container_proxy_ptr12@V?$allocator@U_Container_proxy@std@@@std@@@std@@QAE@XZ ENDP ; std::_Container_proxy_ptr12<std::allocator<std::_Container_proxy> >::~_Container_proxy_ptr12<std::allocator<std::_Container_proxy> >
; Function compile flags: /Odtp /RTCsu /ZI
; File C:\Program Files (x86)\Microsoft Visual Studio\2019\Community\VC\Tools\MSVC\14.24.28314\include\xmemory
;	COMDAT ??0?$_Container_proxy_ptr12@V?$allocator@U_Container_proxy@std@@@std@@@std@@QAE@AAV?$allocator@U_Container_proxy@std@@@1@AAU_Container_base12@1@@Z
_TEXT	SEGMENT
$T1 = -212						; size = 4
_this$ = -8						; size = 4
__Al_$ = 8						; size = 4
__Mycont$ = 12						; size = 4
??0?$_Container_proxy_ptr12@V?$allocator@U_Container_proxy@std@@@std@@@std@@QAE@AAV?$allocator@U_Container_proxy@std@@@1@AAU_Container_base12@1@@Z PROC ; std::_Container_proxy_ptr12<std::allocator<std::_Container_proxy> >::_Container_proxy_ptr12<std::allocator<std::_Container_proxy> >, COMDAT
; _this$ = ecx

; 1281 :     _Container_proxy_ptr12(_Alloc& _Al_, _Container_base12& _Mycont)

	push	ebp
	mov	ebp, esp
	sub	esp, 216				; 000000d8H
	push	ebx
	push	esi
	push	edi
	push	ecx
	lea	edi, DWORD PTR [ebp-216]
	mov	ecx, 54					; 00000036H
	mov	eax, -858993460				; ccccccccH
	rep stosd
	pop	ecx
	mov	DWORD PTR _this$[ebp], ecx
	mov	ecx, OFFSET __B1B75AB9_xmemory
	call	@__CheckForDebuggerJustMyCode@4

; 1282 :         : _Al(_Al_) { // create a new _Container_proxy pointing at _Mycont

	mov	eax, DWORD PTR _this$[ebp]
	mov	ecx, DWORD PTR __Al_$[ebp]
	mov	DWORD PTR [eax+4], ecx

; 1283 :         _Ptr = _Unfancy(_Al_.allocate(1));

	push	1
	mov	ecx, DWORD PTR __Al_$[ebp]
	call	?allocate@?$allocator@U_Container_proxy@std@@@std@@QAEPAU_Container_proxy@2@I@Z ; std::allocator<std::_Container_proxy>::allocate
	push	eax
	call	??$_Unfancy@U_Container_proxy@std@@@std@@YAPAU_Container_proxy@0@PAU10@@Z ; std::_Unfancy<std::_Container_proxy>
	add	esp, 4
	mov	ecx, DWORD PTR _this$[ebp]
	mov	DWORD PTR [ecx], eax

; 1284 :         _Construct_in_place(*_Ptr, _STD addressof(_Mycont));

	mov	eax, DWORD PTR __Mycont$[ebp]
	push	eax
	call	??$addressof@U_Container_base12@std@@@std@@YAPAU_Container_base12@0@AAU10@@Z ; std::addressof<std::_Container_base12>
	add	esp, 4
	mov	DWORD PTR $T1[ebp], eax
	lea	ecx, DWORD PTR $T1[ebp]
	push	ecx
	mov	edx, DWORD PTR _this$[ebp]
	mov	eax, DWORD PTR [edx]
	push	eax
	call	??$_Construct_in_place@U_Container_proxy@std@@PAU_Container_base12@2@@std@@YAXAAU_Container_proxy@0@$$QAPAU_Container_base12@0@@Z ; std::_Construct_in_place<std::_Container_proxy,std::_Container_base12 *>
	add	esp, 8

; 1285 :         _Mycont._Myproxy = _Ptr;

	mov	eax, DWORD PTR __Mycont$[ebp]
	mov	ecx, DWORD PTR _this$[ebp]
	mov	edx, DWORD PTR [ecx]
	mov	DWORD PTR [eax], edx

; 1286 :     }

	mov	eax, DWORD PTR _this$[ebp]
	pop	edi
	pop	esi
	pop	ebx
	add	esp, 216				; 000000d8H
	cmp	ebp, esp
	call	__RTC_CheckEsp
	mov	esp, ebp
	pop	ebp
	ret	8
??0?$_Container_proxy_ptr12@V?$allocator@U_Container_proxy@std@@@std@@@std@@QAE@AAV?$allocator@U_Container_proxy@std@@@1@AAU_Container_base12@1@@Z ENDP ; std::_Container_proxy_ptr12<std::allocator<std::_Container_proxy> >::_Container_proxy_ptr12<std::allocator<std::_Container_proxy> >
_TEXT	ENDS
; Function compile flags: /Odtp /RTCsu /ZI
; File C:\Program Files (x86)\Microsoft Visual Studio\2019\Community\VC\Tools\MSVC\14.24.28314\include\ostream
;	COMDAT ??Bsentry@?$basic_ostream@DU?$char_traits@D@std@@@std@@QBE_NXZ
_TEXT	SEGMENT
_this$ = -8						; size = 4
??Bsentry@?$basic_ostream@DU?$char_traits@D@std@@@std@@QBE_NXZ PROC ; std::basic_ostream<char,std::char_traits<char> >::sentry::operator bool, COMDAT
; _this$ = ecx

; 121  :         explicit __CLR_OR_THIS_CALL operator bool() const {

	push	ebp
	mov	ebp, esp
	sub	esp, 204				; 000000ccH
	push	ebx
	push	esi
	push	edi
	push	ecx
	lea	edi, DWORD PTR [ebp-204]
	mov	ecx, 51					; 00000033H
	mov	eax, -858993460				; ccccccccH
	rep stosd
	pop	ecx
	mov	DWORD PTR _this$[ebp], ecx
	mov	ecx, OFFSET __094A72D0_ostream
	call	@__CheckForDebuggerJustMyCode@4

; 122  :             return _Ok;

	mov	eax, DWORD PTR _this$[ebp]
	mov	al, BYTE PTR [eax+4]

; 123  :         }

	pop	edi
	pop	esi
	pop	ebx
	add	esp, 204				; 000000ccH
	cmp	ebp, esp
	call	__RTC_CheckEsp
	mov	esp, ebp
	pop	ebp
	ret	0
??Bsentry@?$basic_ostream@DU?$char_traits@D@std@@@std@@QBE_NXZ ENDP ; std::basic_ostream<char,std::char_traits<char> >::sentry::operator bool
_TEXT	ENDS
; Function compile flags: /Odtp /RTCsu /ZI
; File C:\Program Files (x86)\Microsoft Visual Studio\2019\Community\VC\Tools\MSVC\14.24.28314\include\ostream
;	COMDAT ??1sentry@?$basic_ostream@DU?$char_traits@D@std@@@std@@QAE@XZ
_TEXT	SEGMENT
_this$ = -20						; size = 4
__$EHRec$ = -12						; size = 12
??1sentry@?$basic_ostream@DU?$char_traits@D@std@@@std@@QAE@XZ PROC ; std::basic_ostream<char,std::char_traits<char> >::sentry::~sentry, COMDAT
; _this$ = ecx

; 110  :         __CLR_OR_THIS_CALL ~sentry() noexcept {

	push	ebp
	mov	ebp, esp
	push	-1
	push	__ehhandler$??1sentry@?$basic_ostream@DU?$char_traits@D@std@@@std@@QAE@XZ
	mov	eax, DWORD PTR fs:0
	push	eax
	sub	esp, 204				; 000000ccH
	push	ebx
	push	esi
	push	edi
	push	ecx
	lea	edi, DWORD PTR [ebp-216]
	mov	ecx, 51					; 00000033H
	mov	eax, -858993460				; ccccccccH
	rep stosd
	pop	ecx
	mov	eax, DWORD PTR ___security_cookie
	xor	eax, ebp
	push	eax
	lea	eax, DWORD PTR __$EHRec$[ebp]
	mov	DWORD PTR fs:0, eax
	mov	DWORD PTR _this$[ebp], ecx
	mov	ecx, OFFSET __094A72D0_ostream
	call	@__CheckForDebuggerJustMyCode@4

; 111  : #if _HAS_EXCEPTIONS
; 112  :             if (!_STD uncaught_exception()) { // TRANSITION, OS#15518458

	call	?uncaught_exception@std@@YA_NXZ		; std::uncaught_exception
	movzx	eax, al
	test	eax, eax
	jne	SHORT $LN1@sentry

; 113  :                 this->_Myostr._Osfx();

	mov	esi, esp
	mov	eax, DWORD PTR _this$[ebp]
	mov	ecx, DWORD PTR [eax]
	call	DWORD PTR __imp_?_Osfx@?$basic_ostream@DU?$char_traits@D@std@@@std@@QAEXXZ
	cmp	esi, esp
	call	__RTC_CheckEsp
$LN1@sentry:

; 114  :             }
; 115  : #else // _HAS_EXCEPTIONS
; 116  :             this->_Myostr._Osfx();
; 117  : #endif // _HAS_EXCEPTIONS
; 118  :         }

	mov	ecx, DWORD PTR _this$[ebp]
	call	??1_Sentry_base@?$basic_ostream@DU?$char_traits@D@std@@@std@@QAE@XZ ; std::basic_ostream<char,std::char_traits<char> >::_Sentry_base::~_Sentry_base
	mov	ecx, DWORD PTR __$EHRec$[ebp]
	mov	DWORD PTR fs:0, ecx
	pop	ecx
	pop	edi
	pop	esi
	pop	ebx
	add	esp, 216				; 000000d8H
	cmp	ebp, esp
	call	__RTC_CheckEsp
	mov	esp, ebp
	pop	ebp
	ret	0
_TEXT	ENDS
;	COMDAT text$x
text$x	SEGMENT
__ehhandler$??1sentry@?$basic_ostream@DU?$char_traits@D@std@@@std@@QAE@XZ:
	mov	edx, DWORD PTR [esp+8]
	lea	eax, DWORD PTR [edx+12]
	mov	ecx, DWORD PTR [edx-220]
	xor	ecx, eax
	call	@__security_check_cookie@4
	mov	eax, OFFSET __ehfuncinfo$??1sentry@?$basic_ostream@DU?$char_traits@D@std@@@std@@QAE@XZ
	jmp	___CxxFrameHandler3
text$x	ENDS
??1sentry@?$basic_ostream@DU?$char_traits@D@std@@@std@@QAE@XZ ENDP ; std::basic_ostream<char,std::char_traits<char> >::sentry::~sentry
; Function compile flags: /Odtp /RTCsu /ZI
; File C:\Program Files (x86)\Microsoft Visual Studio\2019\Community\VC\Tools\MSVC\14.24.28314\include\ostream
;	COMDAT ??0sentry@?$basic_ostream@DU?$char_traits@D@std@@@std@@QAE@AAV12@@Z
_TEXT	SEGMENT
__Tied$ = -32						; size = 4
_this$ = -20						; size = 4
__$EHRec$ = -12						; size = 12
__Ostr$ = 8						; size = 4
??0sentry@?$basic_ostream@DU?$char_traits@D@std@@@std@@QAE@AAV12@@Z PROC ; std::basic_ostream<char,std::char_traits<char> >::sentry::sentry, COMDAT
; _this$ = ecx

; 92   :         explicit __CLR_OR_THIS_CALL sentry(basic_ostream& _Ostr) : _Sentry_base(_Ostr) {

	push	ebp
	mov	ebp, esp
	push	-1
	push	__ehhandler$??0sentry@?$basic_ostream@DU?$char_traits@D@std@@@std@@QAE@AAV12@@Z
	mov	eax, DWORD PTR fs:0
	push	eax
	sub	esp, 216				; 000000d8H
	push	ebx
	push	esi
	push	edi
	push	ecx
	lea	edi, DWORD PTR [ebp-228]
	mov	ecx, 54					; 00000036H
	mov	eax, -858993460				; ccccccccH
	rep stosd
	pop	ecx
	mov	eax, DWORD PTR ___security_cookie
	xor	eax, ebp
	push	eax
	lea	eax, DWORD PTR __$EHRec$[ebp]
	mov	DWORD PTR fs:0, eax
	mov	DWORD PTR _this$[ebp], ecx
	mov	ecx, OFFSET __094A72D0_ostream
	call	@__CheckForDebuggerJustMyCode@4
	mov	eax, DWORD PTR __Ostr$[ebp]
	push	eax
	mov	ecx, DWORD PTR _this$[ebp]
	call	??0_Sentry_base@?$basic_ostream@DU?$char_traits@D@std@@@std@@QAE@AAV12@@Z ; std::basic_ostream<char,std::char_traits<char> >::_Sentry_base::_Sentry_base
	mov	DWORD PTR __$EHRec$[ebp+8], 0

; 93   :             if (!_Ostr.good()) {

	mov	eax, DWORD PTR __Ostr$[ebp]
	mov	ecx, DWORD PTR [eax]
	mov	edx, DWORD PTR __Ostr$[ebp]
	add	edx, DWORD PTR [ecx+4]
	mov	esi, esp
	mov	ecx, edx
	call	DWORD PTR __imp_?good@ios_base@std@@QBE_NXZ
	cmp	esi, esp
	call	__RTC_CheckEsp
	movzx	eax, al
	test	eax, eax
	jne	SHORT $LN2@sentry

; 94   :                 _Ok = false;

	mov	eax, DWORD PTR _this$[ebp]
	mov	BYTE PTR [eax+4], 0

; 95   :                 return;

	jmp	SHORT $LN1@sentry
$LN2@sentry:

; 96   :             }
; 97   : 
; 98   :             const auto _Tied = _Ostr.tie();

	mov	eax, DWORD PTR __Ostr$[ebp]
	mov	ecx, DWORD PTR [eax]
	mov	edx, DWORD PTR __Ostr$[ebp]
	add	edx, DWORD PTR [ecx+4]
	mov	esi, esp
	mov	ecx, edx
	call	DWORD PTR __imp_?tie@?$basic_ios@DU?$char_traits@D@std@@@std@@QBEPAV?$basic_ostream@DU?$char_traits@D@std@@@2@XZ
	cmp	esi, esp
	call	__RTC_CheckEsp
	mov	DWORD PTR __Tied$[ebp], eax

; 99   :             if (!_Tied || _Tied == &_Ostr) {

	cmp	DWORD PTR __Tied$[ebp], 0
	je	SHORT $LN4@sentry
	mov	eax, DWORD PTR __Tied$[ebp]
	cmp	eax, DWORD PTR __Ostr$[ebp]
	jne	SHORT $LN3@sentry
$LN4@sentry:

; 100  :                 _Ok = true;

	mov	eax, DWORD PTR _this$[ebp]
	mov	BYTE PTR [eax+4], 1

; 101  :                 return;

	jmp	SHORT $LN1@sentry
$LN3@sentry:

; 102  :             }
; 103  : 
; 104  : 
; 105  :             _Tied->flush();

	mov	esi, esp
	mov	ecx, DWORD PTR __Tied$[ebp]
	call	DWORD PTR __imp_?flush@?$basic_ostream@DU?$char_traits@D@std@@@std@@QAEAAV12@XZ
	cmp	esi, esp
	call	__RTC_CheckEsp

; 106  :             _Ok = _Ostr.good(); // store test only after flushing tie

	mov	eax, DWORD PTR __Ostr$[ebp]
	mov	ecx, DWORD PTR [eax]
	mov	edx, DWORD PTR __Ostr$[ebp]
	add	edx, DWORD PTR [ecx+4]
	mov	esi, esp
	mov	ecx, edx
	call	DWORD PTR __imp_?good@ios_base@std@@QBE_NXZ
	cmp	esi, esp
	call	__RTC_CheckEsp
	mov	ecx, DWORD PTR _this$[ebp]
	mov	BYTE PTR [ecx+4], al
$LN1@sentry:

; 107  :         }

	mov	DWORD PTR __$EHRec$[ebp+8], -1
	mov	eax, DWORD PTR _this$[ebp]
	mov	ecx, DWORD PTR __$EHRec$[ebp]
	mov	DWORD PTR fs:0, ecx
	pop	ecx
	pop	edi
	pop	esi
	pop	ebx
	add	esp, 228				; 000000e4H
	cmp	ebp, esp
	call	__RTC_CheckEsp
	mov	esp, ebp
	pop	ebp
	ret	4
_TEXT	ENDS
;	COMDAT text$x
text$x	SEGMENT
__unwindfunclet$??0sentry@?$basic_ostream@DU?$char_traits@D@std@@@std@@QAE@AAV12@@Z$0:
	mov	ecx, DWORD PTR _this$[ebp]
	jmp	??1_Sentry_base@?$basic_ostream@DU?$char_traits@D@std@@@std@@QAE@XZ ; std::basic_ostream<char,std::char_traits<char> >::_Sentry_base::~_Sentry_base
__ehhandler$??0sentry@?$basic_ostream@DU?$char_traits@D@std@@@std@@QAE@AAV12@@Z:
	mov	edx, DWORD PTR [esp+8]
	lea	eax, DWORD PTR [edx+12]
	mov	ecx, DWORD PTR [edx-232]
	xor	ecx, eax
	call	@__security_check_cookie@4
	mov	eax, OFFSET __ehfuncinfo$??0sentry@?$basic_ostream@DU?$char_traits@D@std@@@std@@QAE@AAV12@@Z
	jmp	___CxxFrameHandler3
text$x	ENDS
??0sentry@?$basic_ostream@DU?$char_traits@D@std@@@std@@QAE@AAV12@@Z ENDP ; std::basic_ostream<char,std::char_traits<char> >::sentry::sentry
; Function compile flags: /Odtp /RTCsu /ZI
; File C:\Program Files (x86)\Microsoft Visual Studio\2019\Community\VC\Tools\MSVC\14.24.28314\include\ostream
;	COMDAT ??1_Sentry_base@?$basic_ostream@DU?$char_traits@D@std@@@std@@QAE@XZ
_TEXT	SEGMENT
tv72 = -232						; size = 4
__Rdbuf$ = -32						; size = 4
_this$ = -20						; size = 4
__$EHRec$ = -12						; size = 12
??1_Sentry_base@?$basic_ostream@DU?$char_traits@D@std@@@std@@QAE@XZ PROC ; std::basic_ostream<char,std::char_traits<char> >::_Sentry_base::~_Sentry_base, COMDAT
; _this$ = ecx

; 78   :         __CLR_OR_THIS_CALL ~_Sentry_base() noexcept { // destroy after unlocking

	push	ebp
	mov	ebp, esp
	push	-1
	push	__ehhandler$??1_Sentry_base@?$basic_ostream@DU?$char_traits@D@std@@@std@@QAE@XZ
	mov	eax, DWORD PTR fs:0
	push	eax
	sub	esp, 220				; 000000dcH
	push	ebx
	push	esi
	push	edi
	push	ecx
	lea	edi, DWORD PTR [ebp-232]
	mov	ecx, 55					; 00000037H
	mov	eax, -858993460				; ccccccccH
	rep stosd
	pop	ecx
	mov	eax, DWORD PTR ___security_cookie
	xor	eax, ebp
	push	eax
	lea	eax, DWORD PTR __$EHRec$[ebp]
	mov	DWORD PTR fs:0, eax
	mov	DWORD PTR _this$[ebp], ecx
	mov	ecx, OFFSET __094A72D0_ostream
	call	@__CheckForDebuggerJustMyCode@4

; 79   :             const auto _Rdbuf = _Myostr.rdbuf();

	mov	eax, DWORD PTR _this$[ebp]
	mov	ecx, DWORD PTR [eax]
	mov	DWORD PTR tv72[ebp], ecx
	mov	edx, DWORD PTR tv72[ebp]
	mov	eax, DWORD PTR [edx]
	mov	ecx, DWORD PTR tv72[ebp]
	add	ecx, DWORD PTR [eax+4]
	mov	esi, esp
	call	DWORD PTR __imp_?rdbuf@?$basic_ios@DU?$char_traits@D@std@@@std@@QBEPAV?$basic_streambuf@DU?$char_traits@D@std@@@2@XZ
	cmp	esi, esp
	call	__RTC_CheckEsp
	mov	DWORD PTR __Rdbuf$[ebp], eax

; 80   :             if (_Rdbuf) {

	cmp	DWORD PTR __Rdbuf$[ebp], 0
	je	SHORT $LN3@Sentry_bas

; 81   :                 _Rdbuf->_Unlock();

	mov	eax, DWORD PTR __Rdbuf$[ebp]
	mov	edx, DWORD PTR [eax]
	mov	esi, esp
	mov	ecx, DWORD PTR __Rdbuf$[ebp]
	mov	eax, DWORD PTR [edx+8]
	call	eax
	cmp	esi, esp
	call	__RTC_CheckEsp
$LN3@Sentry_bas:

; 82   :             }
; 83   :         }

	mov	ecx, DWORD PTR __$EHRec$[ebp]
	mov	DWORD PTR fs:0, ecx
	pop	ecx
	pop	edi
	pop	esi
	pop	ebx
	add	esp, 232				; 000000e8H
	cmp	ebp, esp
	call	__RTC_CheckEsp
	mov	esp, ebp
	pop	ebp
	ret	0
_TEXT	ENDS
;	COMDAT text$x
text$x	SEGMENT
__ehhandler$??1_Sentry_base@?$basic_ostream@DU?$char_traits@D@std@@@std@@QAE@XZ:
	mov	edx, DWORD PTR [esp+8]
	lea	eax, DWORD PTR [edx+12]
	mov	ecx, DWORD PTR [edx-236]
	xor	ecx, eax
	call	@__security_check_cookie@4
	mov	eax, OFFSET __ehfuncinfo$??1_Sentry_base@?$basic_ostream@DU?$char_traits@D@std@@@std@@QAE@XZ
	jmp	___CxxFrameHandler3
text$x	ENDS
??1_Sentry_base@?$basic_ostream@DU?$char_traits@D@std@@@std@@QAE@XZ ENDP ; std::basic_ostream<char,std::char_traits<char> >::_Sentry_base::~_Sentry_base
; Function compile flags: /Odtp /RTCsu /ZI
; File C:\Program Files (x86)\Microsoft Visual Studio\2019\Community\VC\Tools\MSVC\14.24.28314\include\ostream
;	COMDAT ??0_Sentry_base@?$basic_ostream@DU?$char_traits@D@std@@@std@@QAE@AAV12@@Z
_TEXT	SEGMENT
tv73 = -220						; size = 4
__Rdbuf$ = -20						; size = 4
_this$ = -8						; size = 4
__Ostr$ = 8						; size = 4
??0_Sentry_base@?$basic_ostream@DU?$char_traits@D@std@@@std@@QAE@AAV12@@Z PROC ; std::basic_ostream<char,std::char_traits<char> >::_Sentry_base::_Sentry_base, COMDAT
; _this$ = ecx

; 71   :         __CLR_OR_THIS_CALL _Sentry_base(basic_ostream& _Ostr) : _Myostr(_Ostr) { // lock the stream buffer, if there

	push	ebp
	mov	ebp, esp
	sub	esp, 220				; 000000dcH
	push	ebx
	push	esi
	push	edi
	push	ecx
	lea	edi, DWORD PTR [ebp-220]
	mov	ecx, 55					; 00000037H
	mov	eax, -858993460				; ccccccccH
	rep stosd
	pop	ecx
	mov	DWORD PTR _this$[ebp], ecx
	mov	ecx, OFFSET __094A72D0_ostream
	call	@__CheckForDebuggerJustMyCode@4
	mov	eax, DWORD PTR _this$[ebp]
	mov	ecx, DWORD PTR __Ostr$[ebp]
	mov	DWORD PTR [eax], ecx

; 72   :             const auto _Rdbuf = _Myostr.rdbuf();

	mov	eax, DWORD PTR _this$[ebp]
	mov	ecx, DWORD PTR [eax]
	mov	DWORD PTR tv73[ebp], ecx
	mov	edx, DWORD PTR tv73[ebp]
	mov	eax, DWORD PTR [edx]
	mov	ecx, DWORD PTR tv73[ebp]
	add	ecx, DWORD PTR [eax+4]
	mov	esi, esp
	call	DWORD PTR __imp_?rdbuf@?$basic_ios@DU?$char_traits@D@std@@@std@@QBEPAV?$basic_streambuf@DU?$char_traits@D@std@@@2@XZ
	cmp	esi, esp
	call	__RTC_CheckEsp
	mov	DWORD PTR __Rdbuf$[ebp], eax

; 73   :             if (_Rdbuf) {

	cmp	DWORD PTR __Rdbuf$[ebp], 0
	je	SHORT $LN1@Sentry_bas

; 74   :                 _Rdbuf->_Lock();

	mov	eax, DWORD PTR __Rdbuf$[ebp]
	mov	edx, DWORD PTR [eax]
	mov	esi, esp
	mov	ecx, DWORD PTR __Rdbuf$[ebp]
	mov	eax, DWORD PTR [edx+4]
	call	eax
	cmp	esi, esp
	call	__RTC_CheckEsp
$LN1@Sentry_bas:

; 75   :             }
; 76   :         }

	mov	eax, DWORD PTR _this$[ebp]
	pop	edi
	pop	esi
	pop	ebx
	add	esp, 220				; 000000dcH
	cmp	ebp, esp
	call	__RTC_CheckEsp
	mov	esp, ebp
	pop	ebp
	ret	4
??0_Sentry_base@?$basic_ostream@DU?$char_traits@D@std@@@std@@QAE@AAV12@@Z ENDP ; std::basic_ostream<char,std::char_traits<char> >::_Sentry_base::_Sentry_base
_TEXT	ENDS
; Function compile flags: /Odtp /RTCsu /ZI
; File C:\Program Files (x86)\Microsoft Visual Studio\2019\Community\VC\Tools\MSVC\14.24.28314\include\chrono
;	COMDAT ?zero@?$duration_values@_J@chrono@std@@SA_JXZ
_TEXT	SEGMENT
__$EHRec$ = -12						; size = 12
?zero@?$duration_values@_J@chrono@std@@SA_JXZ PROC	; std::chrono::duration_values<__int64>::zero, COMDAT

; 37   :         _NODISCARD static constexpr _Rep zero() noexcept {

	push	ebp
	mov	ebp, esp
	push	-1
	push	__ehhandler$?zero@?$duration_values@_J@chrono@std@@SA_JXZ
	mov	eax, DWORD PTR fs:0
	push	eax
	sub	esp, 192				; 000000c0H
	push	ebx
	push	esi
	push	edi
	lea	edi, DWORD PTR [ebp-204]
	mov	ecx, 48					; 00000030H
	mov	eax, -858993460				; ccccccccH
	rep stosd
	mov	eax, DWORD PTR ___security_cookie
	xor	eax, ebp
	push	eax
	lea	eax, DWORD PTR __$EHRec$[ebp]
	mov	DWORD PTR fs:0, eax
	mov	ecx, OFFSET __A91506BA_chrono
	call	@__CheckForDebuggerJustMyCode@4

; 38   :             // get zero value
; 39   :             return _Rep(0);

	xor	eax, eax
	xor	edx, edx

; 40   :         }

	mov	ecx, DWORD PTR __$EHRec$[ebp]
	mov	DWORD PTR fs:0, ecx
	pop	ecx
	pop	edi
	pop	esi
	pop	ebx
	add	esp, 204				; 000000ccH
	cmp	ebp, esp
	call	__RTC_CheckEsp
	mov	esp, ebp
	pop	ebp
	ret	0
_TEXT	ENDS
;	COMDAT text$x
text$x	SEGMENT
__ehhandler$?zero@?$duration_values@_J@chrono@std@@SA_JXZ:
	mov	edx, DWORD PTR [esp+8]
	lea	eax, DWORD PTR [edx+12]
	mov	ecx, DWORD PTR [edx-208]
	xor	ecx, eax
	call	@__security_check_cookie@4
	mov	eax, OFFSET __ehfuncinfo$?zero@?$duration_values@_J@chrono@std@@SA_JXZ
	jmp	___CxxFrameHandler3
text$x	ENDS
?zero@?$duration_values@_J@chrono@std@@SA_JXZ ENDP	; std::chrono::duration_values<__int64>::zero
; Function compile flags: /Odtp /RTCsu /ZI
; File C:\Program Files (x86)\Microsoft Visual Studio\2019\Community\VC\Tools\MSVC\14.24.28314\include\xmemory
;	COMDAT ??$?0U?$vec@$02M$0A@@glm@@@?$allocator@U_Container_proxy@std@@@std@@QAE@ABV?$allocator@U?$vec@$02M$0A@@glm@@@1@@Z
_TEXT	SEGMENT
_this$ = -20						; size = 4
__$EHRec$ = -12						; size = 12
___formal$ = 8						; size = 4
??$?0U?$vec@$02M$0A@@glm@@@?$allocator@U_Container_proxy@std@@@std@@QAE@ABV?$allocator@U?$vec@$02M$0A@@glm@@@1@@Z PROC ; std::allocator<std::_Container_proxy>::allocator<std::_Container_proxy><glm::vec<3,float,0> >, COMDAT
; _this$ = ecx

; 776  :     constexpr allocator(const allocator<_Other>&) noexcept {}

	push	ebp
	mov	ebp, esp
	push	-1
	push	__ehhandler$??$?0U?$vec@$02M$0A@@glm@@@?$allocator@U_Container_proxy@std@@@std@@QAE@ABV?$allocator@U?$vec@$02M$0A@@glm@@@1@@Z
	mov	eax, DWORD PTR fs:0
	push	eax
	sub	esp, 204				; 000000ccH
	push	ebx
	push	esi
	push	edi
	push	ecx
	lea	edi, DWORD PTR [ebp-216]
	mov	ecx, 51					; 00000033H
	mov	eax, -858993460				; ccccccccH
	rep stosd
	pop	ecx
	mov	eax, DWORD PTR ___security_cookie
	xor	eax, ebp
	push	eax
	lea	eax, DWORD PTR __$EHRec$[ebp]
	mov	DWORD PTR fs:0, eax
	mov	DWORD PTR _this$[ebp], ecx
	mov	ecx, OFFSET __B1B75AB9_xmemory
	call	@__CheckForDebuggerJustMyCode@4
	mov	eax, DWORD PTR _this$[ebp]
	mov	ecx, DWORD PTR __$EHRec$[ebp]
	mov	DWORD PTR fs:0, ecx
	pop	ecx
	pop	edi
	pop	esi
	pop	ebx
	add	esp, 216				; 000000d8H
	cmp	ebp, esp
	call	__RTC_CheckEsp
	mov	esp, ebp
	pop	ebp
	ret	4
_TEXT	ENDS
;	COMDAT text$x
text$x	SEGMENT
__ehhandler$??$?0U?$vec@$02M$0A@@glm@@@?$allocator@U_Container_proxy@std@@@std@@QAE@ABV?$allocator@U?$vec@$02M$0A@@glm@@@1@@Z:
	mov	edx, DWORD PTR [esp+8]
	lea	eax, DWORD PTR [edx+12]
	mov	ecx, DWORD PTR [edx-220]
	xor	ecx, eax
	call	@__security_check_cookie@4
	mov	eax, OFFSET __ehfuncinfo$??$?0U?$vec@$02M$0A@@glm@@@?$allocator@U_Container_proxy@std@@@std@@QAE@ABV?$allocator@U?$vec@$02M$0A@@glm@@@1@@Z
	jmp	___CxxFrameHandler3
text$x	ENDS
??$?0U?$vec@$02M$0A@@glm@@@?$allocator@U_Container_proxy@std@@@std@@QAE@ABV?$allocator@U?$vec@$02M$0A@@glm@@@1@@Z ENDP ; std::allocator<std::_Container_proxy>::allocator<std::_Container_proxy><glm::vec<3,float,0> >
; Function compile flags: /Odtp /RTCsu /ZI
; File C:\Program Files (x86)\Microsoft Visual Studio\2019\Community\VC\Tools\MSVC\14.24.28314\include\xmemory
;	COMDAT ??$?0U?$vec@$01M$0A@@glm@@@?$allocator@U_Container_proxy@std@@@std@@QAE@ABV?$allocator@U?$vec@$01M$0A@@glm@@@1@@Z
_TEXT	SEGMENT
_this$ = -20						; size = 4
__$EHRec$ = -12						; size = 12
___formal$ = 8						; size = 4
??$?0U?$vec@$01M$0A@@glm@@@?$allocator@U_Container_proxy@std@@@std@@QAE@ABV?$allocator@U?$vec@$01M$0A@@glm@@@1@@Z PROC ; std::allocator<std::_Container_proxy>::allocator<std::_Container_proxy><glm::vec<2,float,0> >, COMDAT
; _this$ = ecx

; 776  :     constexpr allocator(const allocator<_Other>&) noexcept {}

	push	ebp
	mov	ebp, esp
	push	-1
	push	__ehhandler$??$?0U?$vec@$01M$0A@@glm@@@?$allocator@U_Container_proxy@std@@@std@@QAE@ABV?$allocator@U?$vec@$01M$0A@@glm@@@1@@Z
	mov	eax, DWORD PTR fs:0
	push	eax
	sub	esp, 204				; 000000ccH
	push	ebx
	push	esi
	push	edi
	push	ecx
	lea	edi, DWORD PTR [ebp-216]
	mov	ecx, 51					; 00000033H
	mov	eax, -858993460				; ccccccccH
	rep stosd
	pop	ecx
	mov	eax, DWORD PTR ___security_cookie
	xor	eax, ebp
	push	eax
	lea	eax, DWORD PTR __$EHRec$[ebp]
	mov	DWORD PTR fs:0, eax
	mov	DWORD PTR _this$[ebp], ecx
	mov	ecx, OFFSET __B1B75AB9_xmemory
	call	@__CheckForDebuggerJustMyCode@4
	mov	eax, DWORD PTR _this$[ebp]
	mov	ecx, DWORD PTR __$EHRec$[ebp]
	mov	DWORD PTR fs:0, ecx
	pop	ecx
	pop	edi
	pop	esi
	pop	ebx
	add	esp, 216				; 000000d8H
	cmp	ebp, esp
	call	__RTC_CheckEsp
	mov	esp, ebp
	pop	ebp
	ret	4
_TEXT	ENDS
;	COMDAT text$x
text$x	SEGMENT
__ehhandler$??$?0U?$vec@$01M$0A@@glm@@@?$allocator@U_Container_proxy@std@@@std@@QAE@ABV?$allocator@U?$vec@$01M$0A@@glm@@@1@@Z:
	mov	edx, DWORD PTR [esp+8]
	lea	eax, DWORD PTR [edx+12]
	mov	ecx, DWORD PTR [edx-220]
	xor	ecx, eax
	call	@__security_check_cookie@4
	mov	eax, OFFSET __ehfuncinfo$??$?0U?$vec@$01M$0A@@glm@@@?$allocator@U_Container_proxy@std@@@std@@QAE@ABV?$allocator@U?$vec@$01M$0A@@glm@@@1@@Z
	jmp	___CxxFrameHandler3
text$x	ENDS
??$?0U?$vec@$01M$0A@@glm@@@?$allocator@U_Container_proxy@std@@@std@@QAE@ABV?$allocator@U?$vec@$01M$0A@@glm@@@1@@Z ENDP ; std::allocator<std::_Container_proxy>::allocator<std::_Container_proxy><glm::vec<2,float,0> >
; Function compile flags: /Odtp /RTCsu /ZI
; File C:\Program Files (x86)\Microsoft Visual Studio\2019\Community\VC\Tools\MSVC\14.24.28314\include\xmemory
;	COMDAT ??$_Delete_plain_internal@V?$allocator@U_Container_proxy@std@@@std@@@std@@YAXAAV?$allocator@U_Container_proxy@std@@@0@QAU_Container_proxy@0@@Z
_TEXT	SEGMENT
__$EHRec$ = -12						; size = 12
__Al$ = 8						; size = 4
__Ptr$ = 12						; size = 4
??$_Delete_plain_internal@V?$allocator@U_Container_proxy@std@@@std@@@std@@YAXAAV?$allocator@U_Container_proxy@std@@@0@QAU_Container_proxy@0@@Z PROC ; std::_Delete_plain_internal<std::allocator<std::_Container_proxy> >, COMDAT

; 1022 : void _Delete_plain_internal(_Alloc& _Al, typename _Alloc::value_type* const _Ptr) noexcept {

	push	ebp
	mov	ebp, esp
	push	-1
	push	__ehhandler$??$_Delete_plain_internal@V?$allocator@U_Container_proxy@std@@@std@@@std@@YAXAAV?$allocator@U_Container_proxy@std@@@0@QAU_Container_proxy@0@@Z
	mov	eax, DWORD PTR fs:0
	push	eax
	sub	esp, 192				; 000000c0H
	push	ebx
	push	esi
	push	edi
	lea	edi, DWORD PTR [ebp-204]
	mov	ecx, 48					; 00000030H
	mov	eax, -858993460				; ccccccccH
	rep stosd
	mov	eax, DWORD PTR ___security_cookie
	xor	eax, ebp
	push	eax
	lea	eax, DWORD PTR __$EHRec$[ebp]
	mov	DWORD PTR fs:0, eax
	mov	ecx, OFFSET __B1B75AB9_xmemory
	call	@__CheckForDebuggerJustMyCode@4

; 1023 :     // destroy *_Ptr in place, then deallocate _Ptr using _Al; used for internal container types the user didn't name
; 1024 :     using _Ty = typename _Alloc::value_type;
; 1025 :     _Ptr->~_Ty();
; 1026 :     _Deallocate_plain(_Al, _Ptr);

	mov	eax, DWORD PTR __Ptr$[ebp]
	push	eax
	mov	ecx, DWORD PTR __Al$[ebp]
	push	ecx
	call	??$_Deallocate_plain@V?$allocator@U_Container_proxy@std@@@std@@@std@@YAXAAV?$allocator@U_Container_proxy@std@@@0@QAU_Container_proxy@0@@Z ; std::_Deallocate_plain<std::allocator<std::_Container_proxy> >
	add	esp, 8

; 1027 : }

	mov	ecx, DWORD PTR __$EHRec$[ebp]
	mov	DWORD PTR fs:0, ecx
	pop	ecx
	pop	edi
	pop	esi
	pop	ebx
	add	esp, 204				; 000000ccH
	cmp	ebp, esp
	call	__RTC_CheckEsp
	mov	esp, ebp
	pop	ebp
	ret	0
_TEXT	ENDS
;	COMDAT text$x
text$x	SEGMENT
__ehhandler$??$_Delete_plain_internal@V?$allocator@U_Container_proxy@std@@@std@@@std@@YAXAAV?$allocator@U_Container_proxy@std@@@0@QAU_Container_proxy@0@@Z:
	mov	edx, DWORD PTR [esp+8]
	lea	eax, DWORD PTR [edx+12]
	mov	ecx, DWORD PTR [edx-208]
	xor	ecx, eax
	call	@__security_check_cookie@4
	mov	eax, OFFSET __ehfuncinfo$??$_Delete_plain_internal@V?$allocator@U_Container_proxy@std@@@std@@@std@@YAXAAV?$allocator@U_Container_proxy@std@@@0@QAU_Container_proxy@0@@Z
	jmp	___CxxFrameHandler3
text$x	ENDS
??$_Delete_plain_internal@V?$allocator@U_Container_proxy@std@@@std@@@std@@YAXAAV?$allocator@U_Container_proxy@std@@@0@QAU_Container_proxy@0@@Z ENDP ; std::_Delete_plain_internal<std::allocator<std::_Container_proxy> >
; Function compile flags: /Odtp /RTCsu /ZI
; File C:\Program Files (x86)\Microsoft Visual Studio\2019\Community\VC\Tools\MSVC\14.24.28314\include\utility
;	COMDAT ??$exchange@PAU_Container_proxy@std@@$$T@std@@YAPAU_Container_proxy@0@AAPAU10@$$QA$$T@Z
_TEXT	SEGMENT
__Old_val$ = -8						; size = 4
__Val$ = 8						; size = 4
__New_val$ = 12						; size = 4
??$exchange@PAU_Container_proxy@std@@$$T@std@@YAPAU_Container_proxy@0@AAPAU10@$$QA$$T@Z PROC ; std::exchange<std::_Container_proxy *,std::nullptr_t>, COMDAT

; 569  : _Ty exchange(_Ty& _Val, _Other&& _New_val) { // assign _New_val to _Val, return previous _Val

	push	ebp
	mov	ebp, esp
	sub	esp, 204				; 000000ccH
	push	ebx
	push	esi
	push	edi
	lea	edi, DWORD PTR [ebp-204]
	mov	ecx, 51					; 00000033H
	mov	eax, -858993460				; ccccccccH
	rep stosd
	mov	ecx, OFFSET __DB22397A_utility
	call	@__CheckForDebuggerJustMyCode@4

; 570  :     _Ty _Old_val = static_cast<_Ty&&>(_Val);

	mov	eax, DWORD PTR __Val$[ebp]
	mov	ecx, DWORD PTR [eax]
	mov	DWORD PTR __Old_val$[ebp], ecx

; 571  :     _Val         = static_cast<_Other&&>(_New_val);

	mov	eax, DWORD PTR __Val$[ebp]
	mov	ecx, DWORD PTR __New_val$[ebp]
	mov	edx, DWORD PTR [ecx]
	mov	DWORD PTR [eax], edx

; 572  :     return _Old_val;

	mov	eax, DWORD PTR __Old_val$[ebp]

; 573  : }

	pop	edi
	pop	esi
	pop	ebx
	add	esp, 204				; 000000ccH
	cmp	ebp, esp
	call	__RTC_CheckEsp
	mov	esp, ebp
	pop	ebp
	ret	0
??$exchange@PAU_Container_proxy@std@@$$T@std@@YAPAU_Container_proxy@0@AAPAU10@$$QA$$T@Z ENDP ; std::exchange<std::_Container_proxy *,std::nullptr_t>
_TEXT	ENDS
; Function compile flags: /Odtp /RTCsu /ZI
; File C:\Program Files (x86)\Microsoft Visual Studio\2019\Community\VC\Tools\MSVC\14.24.28314\include\xmemory
;	COMDAT ??$?0U?$vec@$02I$0A@@glm@@@?$allocator@U_Container_proxy@std@@@std@@QAE@ABV?$allocator@U?$vec@$02I$0A@@glm@@@1@@Z
_TEXT	SEGMENT
_this$ = -20						; size = 4
__$EHRec$ = -12						; size = 12
___formal$ = 8						; size = 4
??$?0U?$vec@$02I$0A@@glm@@@?$allocator@U_Container_proxy@std@@@std@@QAE@ABV?$allocator@U?$vec@$02I$0A@@glm@@@1@@Z PROC ; std::allocator<std::_Container_proxy>::allocator<std::_Container_proxy><glm::vec<3,unsigned int,0> >, COMDAT
; _this$ = ecx

; 776  :     constexpr allocator(const allocator<_Other>&) noexcept {}

	push	ebp
	mov	ebp, esp
	push	-1
	push	__ehhandler$??$?0U?$vec@$02I$0A@@glm@@@?$allocator@U_Container_proxy@std@@@std@@QAE@ABV?$allocator@U?$vec@$02I$0A@@glm@@@1@@Z
	mov	eax, DWORD PTR fs:0
	push	eax
	sub	esp, 204				; 000000ccH
	push	ebx
	push	esi
	push	edi
	push	ecx
	lea	edi, DWORD PTR [ebp-216]
	mov	ecx, 51					; 00000033H
	mov	eax, -858993460				; ccccccccH
	rep stosd
	pop	ecx
	mov	eax, DWORD PTR ___security_cookie
	xor	eax, ebp
	push	eax
	lea	eax, DWORD PTR __$EHRec$[ebp]
	mov	DWORD PTR fs:0, eax
	mov	DWORD PTR _this$[ebp], ecx
	mov	ecx, OFFSET __B1B75AB9_xmemory
	call	@__CheckForDebuggerJustMyCode@4
	mov	eax, DWORD PTR _this$[ebp]
	mov	ecx, DWORD PTR __$EHRec$[ebp]
	mov	DWORD PTR fs:0, ecx
	pop	ecx
	pop	edi
	pop	esi
	pop	ebx
	add	esp, 216				; 000000d8H
	cmp	ebp, esp
	call	__RTC_CheckEsp
	mov	esp, ebp
	pop	ebp
	ret	4
_TEXT	ENDS
;	COMDAT text$x
text$x	SEGMENT
__ehhandler$??$?0U?$vec@$02I$0A@@glm@@@?$allocator@U_Container_proxy@std@@@std@@QAE@ABV?$allocator@U?$vec@$02I$0A@@glm@@@1@@Z:
	mov	edx, DWORD PTR [esp+8]
	lea	eax, DWORD PTR [edx+12]
	mov	ecx, DWORD PTR [edx-220]
	xor	ecx, eax
	call	@__security_check_cookie@4
	mov	eax, OFFSET __ehfuncinfo$??$?0U?$vec@$02I$0A@@glm@@@?$allocator@U_Container_proxy@std@@@std@@QAE@ABV?$allocator@U?$vec@$02I$0A@@glm@@@1@@Z
	jmp	___CxxFrameHandler3
text$x	ENDS
??$?0U?$vec@$02I$0A@@glm@@@?$allocator@U_Container_proxy@std@@@std@@QAE@ABV?$allocator@U?$vec@$02I$0A@@glm@@@1@@Z ENDP ; std::allocator<std::_Container_proxy>::allocator<std::_Container_proxy><glm::vec<3,unsigned int,0> >
; Function compile flags: /Odtp /RTCsu /ZI
; File C:\Program Files (x86)\Microsoft Visual Studio\2019\Community\VC\Tools\MSVC\14.24.28314\include\xmemory
;	COMDAT ?allocate@?$allocator@U_Container_proxy@std@@@std@@QAEPAU_Container_proxy@2@I@Z
_TEXT	SEGMENT
_this$ = -8						; size = 4
__Count$ = 8						; size = 4
?allocate@?$allocator@U_Container_proxy@std@@@std@@QAEPAU_Container_proxy@2@I@Z PROC ; std::allocator<std::_Container_proxy>::allocate, COMDAT
; _this$ = ecx

; 783  :     _NODISCARD _DECLSPEC_ALLOCATOR _Ty* allocate(_CRT_GUARDOVERFLOW const size_t _Count) {

	push	ebp
	mov	ebp, esp
	sub	esp, 204				; 000000ccH
	push	ebx
	push	esi
	push	edi
	push	ecx
	lea	edi, DWORD PTR [ebp-204]
	mov	ecx, 51					; 00000033H
	mov	eax, -858993460				; ccccccccH
	rep stosd
	pop	ecx
	mov	DWORD PTR _this$[ebp], ecx
	mov	ecx, OFFSET __B1B75AB9_xmemory
	call	@__CheckForDebuggerJustMyCode@4

; 784  :         return static_cast<_Ty*>(_Allocate<_New_alignof<_Ty>>(_Get_size_of_n<sizeof(_Ty)>(_Count)));

	mov	eax, DWORD PTR __Count$[ebp]
	push	eax
	call	??$_Get_size_of_n@$07@std@@YAII@Z	; std::_Get_size_of_n<8>
	add	esp, 4
	push	eax
	call	??$_Allocate@$07U_Default_allocate_traits@std@@$0A@@std@@YAPAXI@Z ; std::_Allocate<8,std::_Default_allocate_traits,0>
	add	esp, 4

; 785  :     }

	pop	edi
	pop	esi
	pop	ebx
	add	esp, 204				; 000000ccH
	cmp	ebp, esp
	call	__RTC_CheckEsp
	mov	esp, ebp
	pop	ebp
	ret	4
?allocate@?$allocator@U_Container_proxy@std@@@std@@QAEPAU_Container_proxy@2@I@Z ENDP ; std::allocator<std::_Container_proxy>::allocate
_TEXT	ENDS
; Function compile flags: /Odtp /RTCsu /ZI
; File D:\Platformer\CPPGame-a38d0db726ab2ff89afdd02c18394bd0c58340c9\CPPGame-a38d0db726ab2ff89afdd02c18394bd0c58340c9\PlatformerGame\src\GameEngine\HeaderFiles\Vendor\glm\detail\type_vec3.inl
;	COMDAT ??$?0HMH@?$vec@$02M$0A@@glm@@QAE@HMH@Z
_TEXT	SEGMENT
_this$ = -8						; size = 4
__x$ = 8						; size = 4
__y$ = 12						; size = 4
__z$ = 16						; size = 4
??$?0HMH@?$vec@$02M$0A@@glm@@QAE@HMH@Z PROC		; glm::vec<3,float,0>::vec<3,float,0><int,float,int>, COMDAT
; _this$ = ecx

; 57   : 	{}

	push	ebp
	mov	ebp, esp
	sub	esp, 204				; 000000ccH
	push	ebx
	push	esi
	push	edi
	push	ecx
	lea	edi, DWORD PTR [ebp-204]
	mov	ecx, 51					; 00000033H
	mov	eax, -858993460				; ccccccccH
	rep stosd
	pop	ecx
	mov	DWORD PTR _this$[ebp], ecx
	mov	ecx, OFFSET __05392703_type_vec3@inl
	call	@__CheckForDebuggerJustMyCode@4

; 54   : 		: x(static_cast<T>(_x))

	cvtsi2ss xmm0, DWORD PTR __x$[ebp]
	mov	eax, DWORD PTR _this$[ebp]
	movss	DWORD PTR [eax], xmm0

; 55   : 		, y(static_cast<T>(_y))

	mov	eax, DWORD PTR _this$[ebp]
	movss	xmm0, DWORD PTR __y$[ebp]
	movss	DWORD PTR [eax+4], xmm0

; 56   : 		, z(static_cast<T>(_z))

	cvtsi2ss xmm0, DWORD PTR __z$[ebp]
	mov	eax, DWORD PTR _this$[ebp]
	movss	DWORD PTR [eax+8], xmm0

; 57   : 	{}

	mov	eax, DWORD PTR _this$[ebp]
	pop	edi
	pop	esi
	pop	ebx
	add	esp, 204				; 000000ccH
	cmp	ebp, esp
	call	__RTC_CheckEsp
	mov	esp, ebp
	pop	ebp
	ret	12					; 0000000cH
??$?0HMH@?$vec@$02M$0A@@glm@@QAE@HMH@Z ENDP		; glm::vec<3,float,0>::vec<3,float,0><int,float,int>
_TEXT	ENDS
; Function compile flags: /Odtp /RTCsu /ZI
; File D:\Platformer\CPPGame-a38d0db726ab2ff89afdd02c18394bd0c58340c9\CPPGame-a38d0db726ab2ff89afdd02c18394bd0c58340c9\PlatformerGame\src\GameEngine\HeaderFiles\Vendor\glm\detail\type_vec3.inl
;	COMDAT ??$?0M$0A@@?$vec@$02I$0A@@glm@@QAE@ABU?$vec@$02M$0A@@1@@Z
_TEXT	SEGMENT
_this$ = -8						; size = 4
_v$ = 8							; size = 4
??$?0M$0A@@?$vec@$02I$0A@@glm@@QAE@ABU?$vec@$02M$0A@@1@@Z PROC ; glm::vec<3,unsigned int,0>::vec<3,unsigned int,0><float,0>, COMDAT
; _this$ = ecx

; 155  : 	{}

	push	ebp
	mov	ebp, esp
	sub	esp, 204				; 000000ccH
	push	ebx
	push	esi
	push	edi
	push	ecx
	lea	edi, DWORD PTR [ebp-204]
	mov	ecx, 51					; 00000033H
	mov	eax, -858993460				; ccccccccH
	rep stosd
	pop	ecx
	mov	DWORD PTR _this$[ebp], ecx
	mov	ecx, OFFSET __05392703_type_vec3@inl
	call	@__CheckForDebuggerJustMyCode@4

; 152  : 		: x(static_cast<T>(v.x))

	mov	eax, DWORD PTR _v$[ebp]
	movss	xmm0, DWORD PTR [eax]
	call	__ftoui3
	mov	ecx, DWORD PTR _this$[ebp]
	mov	DWORD PTR [ecx], eax

; 153  : 		, y(static_cast<T>(v.y))

	mov	eax, DWORD PTR _v$[ebp]
	movss	xmm0, DWORD PTR [eax+4]
	call	__ftoui3
	mov	ecx, DWORD PTR _this$[ebp]
	mov	DWORD PTR [ecx+4], eax

; 154  : 		, z(static_cast<T>(v.z))

	mov	eax, DWORD PTR _v$[ebp]
	movss	xmm0, DWORD PTR [eax+8]
	call	__ftoui3
	mov	ecx, DWORD PTR _this$[ebp]
	mov	DWORD PTR [ecx+8], eax

; 155  : 	{}

	mov	eax, DWORD PTR _this$[ebp]
	pop	edi
	pop	esi
	pop	ebx
	add	esp, 204				; 000000ccH
	cmp	ebp, esp
	call	__RTC_CheckEsp
	mov	esp, ebp
	pop	ebp
	ret	4
??$?0M$0A@@?$vec@$02I$0A@@glm@@QAE@ABU?$vec@$02M$0A@@1@@Z ENDP ; glm::vec<3,unsigned int,0>::vec<3,unsigned int,0><float,0>
_TEXT	ENDS
; Function compile flags: /Odtp /RTCsu /ZI
; File D:\Platformer\CPPGame-a38d0db726ab2ff89afdd02c18394bd0c58340c9\CPPGame-a38d0db726ab2ff89afdd02c18394bd0c58340c9\PlatformerGame\src\GameEngine\Start.cpp
;	COMDAT _main
_TEXT	SEGMENT
tv382 = -1392						; size = 4
tv394 = -1388						; size = 4
tv393 = -1384						; size = 4
tv378 = -1380						; size = 4
tv374 = -1380						; size = 4
tv366 = -1380						; size = 4
tv88 = -1380						; size = 4
tv65 = -1380						; size = 4
$T2 = -1372						; size = 4
$T3 = -1360						; size = 12
$T4 = -1340						; size = 12
$T5 = -1320						; size = 4
$T6 = -1308						; size = 12
$T7 = -1288						; size = 12
$T8 = -1268						; size = 12
$T9 = -1248						; size = 4
$T10 = -1236						; size = 4
$T11 = -1224						; size = 4
$T12 = -1212						; size = 4
$T13 = -1200						; size = 4
$T14 = -1188						; size = 4
$T15 = -1176						; size = 4
$T16 = -1164						; size = 4
$T17 = -1152						; size = 12
_projection$18 = -748					; size = 64
_lightColor$19 = -676					; size = 12
_lightposition$20 = -656				; size = 12
_target$21 = -636					; size = 64
_rotx$ = -564						; size = 4
_light$ = -552						; size = 24
_en$ = -520						; size = 96
_model$ = -416						; size = 24
_hasLocation$ = -384					; size = 4
_LightCOlORLocation$ = -372				; size = 4
_LightPosLocation$ = -360				; size = 4
_samplerLocation$ = -348				; size = 4
_rtsLocation$ = -336					; size = 4
_pLocation$ = -324					; size = 4
_f$ = -312						; size = 80
_tex$ = -224						; size = 48
_a$ = -168						; size = 4
_cam$ = -156						; size = 100
_programName$ = -48					; size = 28
__$ArrayPad$ = -16					; size = 4
__$EHRec$ = -12						; size = 12
_argc$ = 8						; size = 4
_argv$ = 12						; size = 4
_main	PROC						; COMDAT

; 157  : {

	push	ebp
	mov	ebp, esp
	push	-1
	push	__ehhandler$_main
	mov	eax, DWORD PTR fs:0
	push	eax
	sub	esp, 1380				; 00000564H
	push	ebx
	push	esi
	push	edi
	lea	edi, DWORD PTR [ebp-1392]
	mov	ecx, 345				; 00000159H
	mov	eax, -858993460				; ccccccccH
	rep stosd
	mov	eax, DWORD PTR ___security_cookie
	xor	eax, ebp
	mov	DWORD PTR __$ArrayPad$[ebp], eax
	push	eax
	lea	eax, DWORD PTR __$EHRec$[ebp]
	mov	DWORD PTR fs:0, eax
	mov	ecx, OFFSET __CBA375CA_Start@cpp
	call	@__CheckForDebuggerJustMyCode@4

; 158  : 	
; 159  : 	
; 160  : 	std::string programName = "Shader";

	push	OFFSET ??_C@_06NHAKHCIK@Shader@
	lea	ecx, DWORD PTR _programName$[ebp]
	call	??0?$basic_string@DU?$char_traits@D@std@@V?$allocator@D@2@@std@@QAE@QBD@Z ; std::basic_string<char,std::char_traits<char>,std::allocator<char> >::basic_string<char,std::char_traits<char>,std::allocator<char> >
	mov	DWORD PTR __$EHRec$[ebp+8], 0

; 161  : 	Camera cam(width,height,70,glm::vec3(0));

	push	ecx
	xorps	xmm0, xmm0
	movss	DWORD PTR [esp], xmm0
	lea	ecx, DWORD PTR $T17[ebp]
	call	??0?$vec@$02M$0A@@glm@@QAE@M@Z		; glm::vec<3,float,0>::vec<3,float,0>
	sub	esp, 12					; 0000000cH
	mov	ecx, esp
	mov	edx, DWORD PTR [eax]
	mov	DWORD PTR [ecx], edx
	mov	edx, DWORD PTR [eax+4]
	mov	DWORD PTR [ecx+4], edx
	mov	eax, DWORD PTR [eax+8]
	mov	DWORD PTR [ecx+8], eax
	push	ecx
	movss	xmm0, DWORD PTR __real@428c0000
	movss	DWORD PTR [esp], xmm0
	push	ecx
	movss	xmm0, DWORD PTR __real@43f00000
	movss	DWORD PTR [esp], xmm0
	push	ecx
	movss	xmm0, DWORD PTR __real@44200000
	movss	DWORD PTR [esp], xmm0
	lea	ecx, DWORD PTR _cam$[ebp]
	call	??0Camera@@QAE@MMMU?$vec@$02M$0A@@glm@@@Z ; Camera::Camera

; 162  : 	
; 163  : 	ShaderProgram* a=new ShaderProgram(programName);//allocates the ShaderProgram to the heap for use later

	push	20					; 00000014H
	call	??2@YAPAXI@Z				; operator new
	add	esp, 4
	mov	DWORD PTR $T15[ebp], eax
	mov	BYTE PTR __$EHRec$[ebp+8], 1
	cmp	DWORD PTR $T15[ebp], 0
	je	SHORT $LN6@main
	lea	eax, DWORD PTR _programName$[ebp]
	push	eax
	mov	ecx, DWORD PTR $T15[ebp]
	call	??0ShaderProgram@@QAE@AAV?$basic_string@DU?$char_traits@D@std@@V?$allocator@D@2@@std@@@Z ; ShaderProgram::ShaderProgram
	mov	DWORD PTR tv88[ebp], eax
	jmp	SHORT $LN7@main
$LN6@main:
	mov	DWORD PTR tv88[ebp], 0
$LN7@main:
	mov	ecx, DWORD PTR tv88[ebp]
	mov	DWORD PTR $T16[ebp], ecx
	mov	BYTE PTR __$EHRec$[ebp+8], 0
	mov	edx, DWORD PTR $T16[ebp]
	mov	DWORD PTR _a$[ebp], edx

; 164  : 
; 165  : 	//Texture tex("texDragon");	Texture white("white");
; 166  : 	//objLoader f("dragon");
; 167  : 
; 168  : 
; 169  : 	Texture tex("texDragon");

	push	48					; 00000030H
	lea	ecx, DWORD PTR _tex$[ebp]
	call	?__autoclassinit2@Texture@@QAEXI@Z
	sub	esp, 28					; 0000001cH
	mov	ecx, esp
	mov	DWORD PTR $T14[ebp], esp
	push	OFFSET ??_C@_09MGGOFKHG@texDragon@
	call	??0?$basic_string@DU?$char_traits@D@std@@V?$allocator@D@2@@std@@QAE@QBD@Z ; std::basic_string<char,std::char_traits<char>,std::allocator<char> >::basic_string<char,std::char_traits<char>,std::allocator<char> >
	lea	ecx, DWORD PTR _tex$[ebp]
	call	??0Texture@@QAE@V?$basic_string@DU?$char_traits@D@std@@V?$allocator@D@2@@std@@@Z ; Texture::Texture
	mov	DWORD PTR tv374[ebp], eax
	mov	BYTE PTR __$EHRec$[ebp+8], 2

; 170  : 	objLoader f("dragon");

	push	80					; 00000050H
	lea	ecx, DWORD PTR _f$[ebp]
	call	?__autoclassinit2@objLoader@@QAEXI@Z
	sub	esp, 28					; 0000001cH
	mov	ecx, esp
	mov	DWORD PTR $T13[ebp], esp
	push	OFFSET ??_C@_06OBNGLPMO@dragon@
	call	??0?$basic_string@DU?$char_traits@D@std@@V?$allocator@D@2@@std@@QAE@QBD@Z ; std::basic_string<char,std::char_traits<char>,std::allocator<char> >::basic_string<char,std::char_traits<char>,std::allocator<char> >
	lea	ecx, DWORD PTR _f$[ebp]
	call	??0objLoader@@QAE@V?$basic_string@DU?$char_traits@D@std@@V?$allocator@D@2@@std@@@Z ; objLoader::objLoader
	mov	DWORD PTR tv378[ebp], eax
	mov	BYTE PTR __$EHRec$[ebp+8], 3

; 171  : 
; 172  : 	//gets all the shader locations ids so that we can load values into the GPU's uniforms 
; 173  : 	const int pLocation =a->makeLocation("projection");

	push	OFFSET ??_C@_0L@PPHAJBEH@projection@
	mov	ecx, DWORD PTR _a$[ebp]
	call	?makeLocation@ShaderProgram@@QAEHQBD@Z	; ShaderProgram::makeLocation
	mov	DWORD PTR _pLocation$[ebp], eax

; 174  : 	const int rtsLocation= a->makeLocation("rts");

	push	OFFSET ??_C@_03EIGHKCEN@rts@
	mov	ecx, DWORD PTR _a$[ebp]
	call	?makeLocation@ShaderProgram@@QAEHQBD@Z	; ShaderProgram::makeLocation
	mov	DWORD PTR _rtsLocation$[ebp], eax

; 175  : 	const int samplerLocation =a->makeLocation("sampler");

	push	OFFSET ??_C@_07PKJOFHPL@sampler@
	mov	ecx, DWORD PTR _a$[ebp]
	call	?makeLocation@ShaderProgram@@QAEHQBD@Z	; ShaderProgram::makeLocation
	mov	DWORD PTR _samplerLocation$[ebp], eax

; 176  : 	const int LightPosLocation = a->makeLocation("LightPosition");

	push	OFFSET ??_C@_0O@POHKLELN@LightPosition@
	mov	ecx, DWORD PTR _a$[ebp]
	call	?makeLocation@ShaderProgram@@QAEHQBD@Z	; ShaderProgram::makeLocation
	mov	DWORD PTR _LightPosLocation$[ebp], eax

; 177  :     const int LightCOlORLocation = a->makeLocation("lightColor");

	push	OFFSET ??_C@_0L@HNLDIBIB@lightColor@
	mov	ecx, DWORD PTR _a$[ebp]
	call	?makeLocation@ShaderProgram@@QAEHQBD@Z	; ShaderProgram::makeLocation
	mov	DWORD PTR _LightCOlORLocation$[ebp], eax

; 178  : 	const int hasLocation = a->makeLocation("haslight");

	push	OFFSET ??_C@_08HPPOJBLD@haslight@
	mov	ecx, DWORD PTR _a$[ebp]
	call	?makeLocation@ShaderProgram@@QAEHQBD@Z	; ShaderProgram::makeLocation
	mov	DWORD PTR _hasLocation$[ebp], eax

; 179  : 
; 180  : 	Model model(f.getverts(),f.getUVS(),f.getNormals(),f.getInds());//put in the data and the size of the arrays

	sub	esp, 16					; 00000010H
	mov	eax, esp
	mov	DWORD PTR $T12[ebp], esp
	push	eax
	lea	ecx, DWORD PTR _f$[ebp]
	call	?getInds@objLoader@@QAE?AV?$vector@U?$vec@$02I$0A@@glm@@V?$allocator@U?$vec@$02I$0A@@glm@@@std@@@std@@XZ ; objLoader::getInds
	mov	DWORD PTR tv65[ebp], eax
	mov	BYTE PTR __$EHRec$[ebp+8], 4
	sub	esp, 16					; 00000010H
	mov	ecx, esp
	mov	DWORD PTR $T11[ebp], esp
	push	ecx
	lea	ecx, DWORD PTR _f$[ebp]
	call	?getNormals@objLoader@@QAE?AV?$vector@U?$vec@$02M$0A@@glm@@V?$allocator@U?$vec@$02M$0A@@glm@@@std@@@std@@XZ ; objLoader::getNormals
	mov	DWORD PTR tv393[ebp], eax
	mov	BYTE PTR __$EHRec$[ebp+8], 5
	sub	esp, 16					; 00000010H
	mov	edx, esp
	mov	DWORD PTR $T10[ebp], esp
	push	edx
	lea	ecx, DWORD PTR _f$[ebp]
	call	?getUVS@objLoader@@QAE?AV?$vector@U?$vec@$01M$0A@@glm@@V?$allocator@U?$vec@$01M$0A@@glm@@@std@@@std@@XZ ; objLoader::getUVS
	mov	DWORD PTR tv394[ebp], eax
	mov	BYTE PTR __$EHRec$[ebp+8], 6
	sub	esp, 16					; 00000010H
	mov	eax, esp
	mov	DWORD PTR $T9[ebp], esp
	push	eax
	lea	ecx, DWORD PTR _f$[ebp]
	call	?getverts@objLoader@@QAE?AV?$vector@U?$vec@$02M$0A@@glm@@V?$allocator@U?$vec@$02M$0A@@glm@@@std@@@std@@XZ ; objLoader::getverts
	mov	BYTE PTR __$EHRec$[ebp+8], 3
	lea	ecx, DWORD PTR _model$[ebp]
	call	??0Model@@QAE@V?$vector@U?$vec@$02M$0A@@glm@@V?$allocator@U?$vec@$02M$0A@@glm@@@std@@@std@@V?$vector@U?$vec@$01M$0A@@glm@@V?$allocator@U?$vec@$01M$0A@@glm@@@std@@@2@0V?$vector@U?$vec@$02I$0A@@glm@@V?$allocator@U?$vec@$02I$0A@@glm@@@std@@@2@@Z ; Model::Model
	mov	DWORD PTR tv382[ebp], eax
	mov	BYTE PTR __$EHRec$[ebp+8], 7

; 181  :   
; 182  : 	//Texture tex("stallTexture");
; 183  :    Entity en(&model, glm::vec3(0,0,-2), glm::vec3(0),1);

	push	96					; 00000060H
	lea	ecx, DWORD PTR _en$[ebp]
	call	?__autoclassinit2@Entity@@QAEXI@Z
	push	ecx
	movss	xmm0, DWORD PTR __real@3f800000
	movss	DWORD PTR [esp], xmm0
	push	ecx
	xorps	xmm0, xmm0
	movss	DWORD PTR [esp], xmm0
	lea	ecx, DWORD PTR $T8[ebp]
	call	??0?$vec@$02M$0A@@glm@@QAE@M@Z		; glm::vec<3,float,0>::vec<3,float,0>
	sub	esp, 12					; 0000000cH
	mov	ecx, esp
	mov	edx, DWORD PTR [eax]
	mov	DWORD PTR [ecx], edx
	mov	edx, DWORD PTR [eax+4]
	mov	DWORD PTR [ecx+4], edx
	mov	eax, DWORD PTR [eax+8]
	mov	DWORD PTR [ecx+8], eax
	push	-2					; fffffffeH
	push	0
	push	0
	lea	ecx, DWORD PTR $T7[ebp]
	call	??$?0HHH@?$vec@$02M$0A@@glm@@QAE@HHH@Z	; glm::vec<3,float,0>::vec<3,float,0><int,int,int>
	sub	esp, 12					; 0000000cH
	mov	ecx, esp
	mov	edx, DWORD PTR [eax]
	mov	DWORD PTR [ecx], edx
	mov	edx, DWORD PTR [eax+4]
	mov	DWORD PTR [ecx+4], edx
	mov	eax, DWORD PTR [eax+8]
	mov	DWORD PTR [ecx+8], eax
	lea	ecx, DWORD PTR _model$[ebp]
	push	ecx
	lea	ecx, DWORD PTR _en$[ebp]
	call	??0Entity@@QAE@PAVModel@@U?$vec@$02M$0A@@glm@@1M@Z ; Entity::Entity

; 184  : 
; 185  :    Light light(glm::vec3(0,0,-20),glm::vec3(1,1,1));

	push	1
	push	1
	push	1
	lea	ecx, DWORD PTR $T6[ebp]
	call	??$?0HHH@?$vec@$02M$0A@@glm@@QAE@HHH@Z	; glm::vec<3,float,0>::vec<3,float,0><int,int,int>
	sub	esp, 12					; 0000000cH
	mov	ecx, esp
	mov	edx, DWORD PTR [eax]
	mov	DWORD PTR [ecx], edx
	mov	edx, DWORD PTR [eax+4]
	mov	DWORD PTR [ecx+4], edx
	mov	eax, DWORD PTR [eax+8]
	mov	DWORD PTR [ecx+8], eax
	sub	esp, 12					; 0000000cH
	mov	esi, esp
	mov	DWORD PTR $T5[ebp], esp
	push	-20					; ffffffecH
	push	0
	push	0
	lea	ecx, DWORD PTR $T4[ebp]
	call	??$?0HHH@?$vec@$02M$0A@@glm@@QAE@HHH@Z	; glm::vec<3,float,0>::vec<3,float,0><int,int,int>
	push	eax
	mov	ecx, esi
	call	??$?0M$0A@@?$vec@$02I$0A@@glm@@QAE@ABU?$vec@$02M$0A@@1@@Z ; glm::vec<3,unsigned int,0>::vec<3,unsigned int,0><float,0>
	lea	ecx, DWORD PTR _light$[ebp]
	call	??0Light@@QAE@U?$vec@$02I$0A@@glm@@U?$vec@$02M$0A@@2@@Z ; Light::Light

; 186  :   
; 187  : 	a->Bind();//tells the GPU to use the specified shader program for rendering 

	mov	ecx, DWORD PTR _a$[ebp]
	call	?Bind@ShaderProgram@@QAEXXZ		; ShaderProgram::Bind

; 188  : 
; 189  : 	//cam.setPosition(glm::vec2(100, 0));
; 190  : 	
; 191  : 		/* Loop until the user closes the window */
; 192  : 	
; 193  : 
; 194  : 	//CamPosition = glm::vec3(0, 0, -20);
; 195  : 	intFPS();

	call	?intFPS@@YAXXZ				; intFPS

; 196  : 	float rotx= 0;

	xorps	xmm0, xmm0
	movss	DWORD PTR _rotx$[ebp], xmm0
$LN2@main:

; 197  : 
; 198  : //______________c__________________________________________________________________________________________
; 199  : //                      GAME---LOOP                                                                      |
; 200  : 
; 201  : 		while (!window.SHouldExit() && !(window.checkState(GLFW_KEY_ESCAPE)>0))

	mov	ecx, OFFSET ?window@@3VWindow@@A	; window
	call	?SHouldExit@Window@@QAEEXZ		; Window::SHouldExit
	movzx	eax, al
	test	eax, eax
	jne	$LN3@main
	push	256					; 00000100H
	call	?checkState@Window@@SAEH@Z		; Window::checkState
	add	esp, 4
	movzx	eax, al
	test	eax, eax
	jg	$LN3@main

; 202  : 		{
; 203  : 			
; 204  : 			
; 205  : 			fps();

	call	?fps@@YAXXZ				; fps

; 206  : 			
; 207  : 			if (canRender) {

	movzx	eax, BYTE PTR ?canRender@@3EA		; canRender
	test	eax, eax
	je	$LN4@main

; 208  : 				a->loadBool(hasLocation, true);

	push	1
	mov	eax, DWORD PTR _hasLocation$[ebp]
	push	eax
	mov	ecx, DWORD PTR _a$[ebp]
	call	?loadBool@ShaderProgram@@QAEXH_N@Z	; ShaderProgram::loadBool

; 209  : 				Input();

	call	?Input@@YAXXZ				; Input

; 210  : 			
; 211  : 				light.setPosition(lightPosition);

	sub	esp, 12					; 0000000cH
	mov	eax, esp
	mov	ecx, DWORD PTR ?lightPosition@@3U?$vec@$02M$0A@@glm@@A
	mov	DWORD PTR [eax], ecx
	mov	edx, DWORD PTR ?lightPosition@@3U?$vec@$02M$0A@@glm@@A+4
	mov	DWORD PTR [eax+4], edx
	mov	ecx, DWORD PTR ?lightPosition@@3U?$vec@$02M$0A@@glm@@A+8
	mov	DWORD PTR [eax+8], ecx
	lea	ecx, DWORD PTR _light$[ebp]
	call	?setPosition@Light@@QAEXU?$vec@$02M$0A@@glm@@@Z ; Light::setPosition

; 212  : 				cam.setPosition(CamPosition);

	sub	esp, 12					; 0000000cH
	mov	eax, esp
	mov	ecx, DWORD PTR ?CamPosition@@3U?$vec@$02M$0A@@glm@@A
	mov	DWORD PTR [eax], ecx
	mov	edx, DWORD PTR ?CamPosition@@3U?$vec@$02M$0A@@glm@@A+4
	mov	DWORD PTR [eax+4], edx
	mov	ecx, DWORD PTR ?CamPosition@@3U?$vec@$02M$0A@@glm@@A+8
	mov	DWORD PTR [eax+8], ecx
	lea	ecx, DWORD PTR _cam$[ebp]
	call	?setPosition@Camera@@QAEXU?$vec@$02M$0A@@glm@@@Z ; Camera::setPosition

; 213  : 
; 214  : 				tex.Bind(1);//this binds the texture data to the specified slot in texture2d

	push	1
	lea	ecx, DWORD PTR _tex$[ebp]
	call	?Bind@Texture@@QAEXI@Z			; Texture::Bind

; 215  : 
; 216  : 
; 217  : 				glm::mat4 target = en.getTRS();

	lea	eax, DWORD PTR _target$21[ebp]
	push	eax
	lea	ecx, DWORD PTR _en$[ebp]
	call	?getTRS@Entity@@QAE?AU?$mat@$03$03M$0A@@glm@@XZ ; Entity::getTRS

; 218  : 
; 219  : 				en.setPosition(Position);

	sub	esp, 12					; 0000000cH
	mov	eax, esp
	mov	ecx, DWORD PTR ?Position@@3U?$vec@$02M$0A@@glm@@A
	mov	DWORD PTR [eax], ecx
	mov	edx, DWORD PTR ?Position@@3U?$vec@$02M$0A@@glm@@A+4
	mov	DWORD PTR [eax+4], edx
	mov	ecx, DWORD PTR ?Position@@3U?$vec@$02M$0A@@glm@@A+8
	mov	DWORD PTR [eax+8], ecx
	lea	ecx, DWORD PTR _en$[ebp]
	call	?setPosition@Entity@@QAEXU?$vec@$02M$0A@@glm@@@Z ; Entity::setPosition

; 220  : 				en.setRotation(glm::vec3(0,rotx+=1,0));

	movss	xmm0, DWORD PTR _rotx$[ebp]
	addss	xmm0, DWORD PTR __real@3f800000
	movss	DWORD PTR _rotx$[ebp], xmm0
	push	0
	push	ecx
	movss	xmm0, DWORD PTR _rotx$[ebp]
	movss	DWORD PTR [esp], xmm0
	push	0
	lea	ecx, DWORD PTR $T3[ebp]
	call	??$?0HMH@?$vec@$02M$0A@@glm@@QAE@HMH@Z	; glm::vec<3,float,0>::vec<3,float,0><int,float,int>
	sub	esp, 12					; 0000000cH
	mov	ecx, esp
	mov	edx, DWORD PTR [eax]
	mov	DWORD PTR [ecx], edx
	mov	edx, DWORD PTR [eax+4]
	mov	DWORD PTR [ecx+4], edx
	mov	eax, DWORD PTR [eax+8]
	mov	DWORD PTR [ecx+8], eax
	lea	ecx, DWORD PTR _en$[ebp]
	call	?setRotation@Entity@@QAEXU?$vec@$02M$0A@@glm@@@Z ; Entity::setRotation

; 221  : 				
; 222  : 
; 223  : 				glm::vec3 lightposition=light.getPosition();

	lea	eax, DWORD PTR _lightposition$20[ebp]
	push	eax
	lea	ecx, DWORD PTR _light$[ebp]
	call	?getPosition@Light@@QAE?AU?$vec@$02M$0A@@glm@@XZ ; Light::getPosition

; 224  : 				glm::vec3 lightColor=light.getColor();

	lea	eax, DWORD PTR _lightColor$19[ebp]
	push	eax
	lea	ecx, DWORD PTR _light$[ebp]
	call	?getColor@Light@@QAE?AU?$vec@$02M$0A@@glm@@XZ ; Light::getColor

; 225  : 
; 226  : 				glm::mat4 projection = cam.getProjection();//this is the projection matrix 

	lea	eax, DWORD PTR _projection$18[ebp]
	push	eax
	lea	ecx, DWORD PTR _cam$[ebp]
	call	?getProjection@Camera@@QAE?AU?$mat@$03$03M$0A@@glm@@XZ ; Camera::getProjection

; 227  : 				a->loadMat4(pLocation, projection);//this loads in the projection matrix to the GPU for the world 

	sub	esp, 64					; 00000040H
	mov	ecx, 16					; 00000010H
	lea	esi, DWORD PTR _projection$18[ebp]
	mov	edi, esp
	rep movsd
	mov	eax, DWORD PTR _pLocation$[ebp]
	push	eax
	mov	ecx, DWORD PTR _a$[ebp]
	call	?loadMat4@ShaderProgram@@QAEXHU?$mat@$03$03M$0A@@glm@@@Z ; ShaderProgram::loadMat4

; 228  : 				a->loadvec3(LightPosLocation,lightposition.x,lightposition.y,lightposition.z);

	push	ecx
	movss	xmm0, DWORD PTR _lightposition$20[ebp+8]
	movss	DWORD PTR [esp], xmm0
	push	ecx
	movss	xmm0, DWORD PTR _lightposition$20[ebp+4]
	movss	DWORD PTR [esp], xmm0
	push	ecx
	movss	xmm0, DWORD PTR _lightposition$20[ebp]
	movss	DWORD PTR [esp], xmm0
	mov	eax, DWORD PTR _LightPosLocation$[ebp]
	push	eax
	mov	ecx, DWORD PTR _a$[ebp]
	call	?loadvec3@ShaderProgram@@QAEXHMMM@Z	; ShaderProgram::loadvec3

; 229  : 				a->loadvec3(LightCOlORLocation, lightColor.x, lightColor.y, lightColor.z);

	push	ecx
	movss	xmm0, DWORD PTR _lightColor$19[ebp+8]
	movss	DWORD PTR [esp], xmm0
	push	ecx
	movss	xmm0, DWORD PTR _lightColor$19[ebp+4]
	movss	DWORD PTR [esp], xmm0
	push	ecx
	movss	xmm0, DWORD PTR _lightColor$19[ebp]
	movss	DWORD PTR [esp], xmm0
	mov	eax, DWORD PTR _LightCOlORLocation$[ebp]
	push	eax
	mov	ecx, DWORD PTR _a$[ebp]
	call	?loadvec3@ShaderProgram@@QAEXHMMM@Z	; ShaderProgram::loadvec3

; 230  : 				a->loadMat4(rtsLocation, target);//this loads in the rotation translation and scale(RTS) matix to the GPU 

	sub	esp, 64					; 00000040H
	mov	ecx, 16					; 00000010H
	lea	esi, DWORD PTR _target$21[ebp]
	mov	edi, esp
	rep movsd
	mov	eax, DWORD PTR _rtsLocation$[ebp]
	push	eax
	mov	ecx, DWORD PTR _a$[ebp]
	call	?loadMat4@ShaderProgram@@QAEXHU?$mat@$03$03M$0A@@glm@@@Z ; ShaderProgram::loadMat4

; 231  : 				a->loadInt(samplerLocation, 1);//this loads in the id for the texture2d sampler to pick the correct texture

	push	1
	mov	eax, DWORD PTR _samplerLocation$[ebp]
	push	eax
	mov	ecx, DWORD PTR _a$[ebp]
	call	?loadInt@ShaderProgram@@QAEXHH@Z	; ShaderProgram::loadInt

; 232  : 				//m.printTest();
; 233  : 
; 234  : 				en.Draw();//actually draws the model to the screen

	lea	ecx, DWORD PTR _en$[ebp]
	call	?Draw@Entity@@QAEXXZ			; Entity::Draw

; 235  : 				
; 236  : 				
; 237  : 				window.Render();

	mov	ecx, OFFSET ?window@@3VWindow@@A	; window
	call	?Render@Window@@QAEXXZ			; Window::Render

; 238  : 				window.clear();

	mov	ecx, OFFSET ?window@@3VWindow@@A	; window
	call	?clear@Window@@QAEXXZ			; Window::clear
$LN4@main:

; 239  : 			}
; 240  : 			/* Poll for and process events */
; 241  : 			
; 242  : 		}

	jmp	$LN2@main
$LN3@main:

; 243  : //_______________________________________________________________________________________________________|
; 244  : 		printf("Closing---------------------------------------------------------");

	push	OFFSET ??_C@_0EB@CJPEBOIB@Closing?9?9?9?9?9?9?9?9?9?9?9?9?9?9?9?9?9?9?9?9?9?9?9?9@
	call	_printf
	add	esp, 4

; 245  :         //glFlush();
; 246  : 		delete a;//deletes the shaderprogram from the heap 

	mov	eax, DWORD PTR _a$[ebp]
	mov	DWORD PTR $T2[ebp], eax
	push	20					; 00000014H
	mov	ecx, DWORD PTR $T2[ebp]
	push	ecx
	call	??3@YAXPAXI@Z				; operator delete
	add	esp, 8
	cmp	DWORD PTR $T2[ebp], 0
	jne	SHORT $LN8@main
	mov	DWORD PTR tv366[ebp], 0
	jmp	SHORT $LN9@main
$LN8@main:
	mov	DWORD PTR _a$[ebp], 33059		; 00008123H
	mov	edx, DWORD PTR _a$[ebp]
	mov	DWORD PTR tv366[ebp], edx
$LN9@main:

; 247  : 
; 248  : 		window.Destroy();

	mov	ecx, OFFSET ?window@@3VWindow@@A	; window
	call	?Destroy@Window@@QAEXXZ			; Window::Destroy

; 249  : 	
; 250  : 		std::exit;
; 251  : 
; 252  : 	
; 253  : 	
; 254  : 	}

	mov	BYTE PTR __$EHRec$[ebp+8], 3
	lea	ecx, DWORD PTR _model$[ebp]
	call	??1Model@@QAE@XZ			; Model::~Model
	mov	BYTE PTR __$EHRec$[ebp+8], 2
	lea	ecx, DWORD PTR _f$[ebp]
	call	??1objLoader@@QAE@XZ
	mov	BYTE PTR __$EHRec$[ebp+8], 0
	lea	ecx, DWORD PTR _tex$[ebp]
	call	??1Texture@@QAE@XZ			; Texture::~Texture
	mov	DWORD PTR __$EHRec$[ebp+8], -1
	lea	ecx, DWORD PTR _programName$[ebp]
	call	??1?$basic_string@DU?$char_traits@D@std@@V?$allocator@D@2@@std@@QAE@XZ ; std::basic_string<char,std::char_traits<char>,std::allocator<char> >::~basic_string<char,std::char_traits<char>,std::allocator<char> >
	xor	eax, eax
	push	edx
	mov	ecx, ebp
	push	eax
	lea	edx, DWORD PTR $LN34@main
	call	@_RTC_CheckStackVars@8
	pop	eax
	pop	edx
	mov	ecx, DWORD PTR __$EHRec$[ebp]
	mov	DWORD PTR fs:0, ecx
	pop	ecx
	pop	edi
	pop	esi
	pop	ebx
	mov	ecx, DWORD PTR __$ArrayPad$[ebp]
	xor	ecx, ebp
	call	@__security_check_cookie@4
	add	esp, 1392				; 00000570H
	cmp	ebp, esp
	call	__RTC_CheckEsp
	mov	esp, ebp
	pop	ebp
	ret	0
$LN34@main:
	DD	11					; 0000000bH
	DD	$LN33@main
$LN33@main:
	DD	-48					; ffffffd0H
	DD	28					; 0000001cH
	DD	$LN21@main
	DD	-156					; ffffff64H
	DD	100					; 00000064H
	DD	$LN22@main
	DD	-224					; ffffff20H
	DD	48					; 00000030H
	DD	$LN23@main
	DD	-312					; fffffec8H
	DD	80					; 00000050H
	DD	$LN24@main
	DD	-416					; fffffe60H
	DD	24					; 00000018H
	DD	$LN25@main
	DD	-520					; fffffdf8H
	DD	96					; 00000060H
	DD	$LN26@main
	DD	-552					; fffffdd8H
	DD	24					; 00000018H
	DD	$LN27@main
	DD	-636					; fffffd84H
	DD	64					; 00000040H
	DD	$LN28@main
	DD	-656					; fffffd70H
	DD	12					; 0000000cH
	DD	$LN29@main
	DD	-676					; fffffd5cH
	DD	12					; 0000000cH
	DD	$LN30@main
	DD	-748					; fffffd14H
	DD	64					; 00000040H
	DD	$LN31@main
$LN31@main:
	DB	112					; 00000070H
	DB	114					; 00000072H
	DB	111					; 0000006fH
	DB	106					; 0000006aH
	DB	101					; 00000065H
	DB	99					; 00000063H
	DB	116					; 00000074H
	DB	105					; 00000069H
	DB	111					; 0000006fH
	DB	110					; 0000006eH
	DB	0
$LN30@main:
	DB	108					; 0000006cH
	DB	105					; 00000069H
	DB	103					; 00000067H
	DB	104					; 00000068H
	DB	116					; 00000074H
	DB	67					; 00000043H
	DB	111					; 0000006fH
	DB	108					; 0000006cH
	DB	111					; 0000006fH
	DB	114					; 00000072H
	DB	0
$LN29@main:
	DB	108					; 0000006cH
	DB	105					; 00000069H
	DB	103					; 00000067H
	DB	104					; 00000068H
	DB	116					; 00000074H
	DB	112					; 00000070H
	DB	111					; 0000006fH
	DB	115					; 00000073H
	DB	105					; 00000069H
	DB	116					; 00000074H
	DB	105					; 00000069H
	DB	111					; 0000006fH
	DB	110					; 0000006eH
	DB	0
$LN28@main:
	DB	116					; 00000074H
	DB	97					; 00000061H
	DB	114					; 00000072H
	DB	103					; 00000067H
	DB	101					; 00000065H
	DB	116					; 00000074H
	DB	0
$LN27@main:
	DB	108					; 0000006cH
	DB	105					; 00000069H
	DB	103					; 00000067H
	DB	104					; 00000068H
	DB	116					; 00000074H
	DB	0
$LN26@main:
	DB	101					; 00000065H
	DB	110					; 0000006eH
	DB	0
$LN25@main:
	DB	109					; 0000006dH
	DB	111					; 0000006fH
	DB	100					; 00000064H
	DB	101					; 00000065H
	DB	108					; 0000006cH
	DB	0
$LN24@main:
	DB	102					; 00000066H
	DB	0
$LN23@main:
	DB	116					; 00000074H
	DB	101					; 00000065H
	DB	120					; 00000078H
	DB	0
$LN22@main:
	DB	99					; 00000063H
	DB	97					; 00000061H
	DB	109					; 0000006dH
	DB	0
$LN21@main:
	DB	112					; 00000070H
	DB	114					; 00000072H
	DB	111					; 0000006fH
	DB	103					; 00000067H
	DB	114					; 00000072H
	DB	97					; 00000061H
	DB	109					; 0000006dH
	DB	78					; 0000004eH
	DB	97					; 00000061H
	DB	109					; 0000006dH
	DB	101					; 00000065H
	DB	0
_TEXT	ENDS
;	COMDAT text$x
text$x	SEGMENT
__unwindfunclet$_main$0:
	lea	ecx, DWORD PTR _programName$[ebp]
	jmp	??1?$basic_string@DU?$char_traits@D@std@@V?$allocator@D@2@@std@@QAE@XZ ; std::basic_string<char,std::char_traits<char>,std::allocator<char> >::~basic_string<char,std::char_traits<char>,std::allocator<char> >
__unwindfunclet$_main$1:
	push	20					; 00000014H
	mov	eax, DWORD PTR $T15[ebp]
	push	eax
	call	??3@YAXPAXI@Z				; operator delete
	add	esp, 8
	ret	0
__unwindfunclet$_main$3:
	lea	ecx, DWORD PTR _tex$[ebp]
	jmp	??1Texture@@QAE@XZ			; Texture::~Texture
__unwindfunclet$_main$5:
	lea	ecx, DWORD PTR _f$[ebp]
	jmp	??1objLoader@@QAE@XZ
__unwindfunclet$_main$6:
	mov	ecx, DWORD PTR $T12[ebp]
	jmp	??1?$vector@U?$vec@$02I$0A@@glm@@V?$allocator@U?$vec@$02I$0A@@glm@@@std@@@std@@QAE@XZ ; std::vector<glm::vec<3,unsigned int,0>,std::allocator<glm::vec<3,unsigned int,0> > >::~vector<glm::vec<3,unsigned int,0>,std::allocator<glm::vec<3,unsigned int,0> > >
__unwindfunclet$_main$7:
	mov	ecx, DWORD PTR $T11[ebp]
	jmp	??1?$vector@U?$vec@$02M$0A@@glm@@V?$allocator@U?$vec@$02M$0A@@glm@@@std@@@std@@QAE@XZ ; std::vector<glm::vec<3,float,0>,std::allocator<glm::vec<3,float,0> > >::~vector<glm::vec<3,float,0>,std::allocator<glm::vec<3,float,0> > >
__unwindfunclet$_main$8:
	mov	ecx, DWORD PTR $T10[ebp]
	jmp	??1?$vector@U?$vec@$01M$0A@@glm@@V?$allocator@U?$vec@$01M$0A@@glm@@@std@@@std@@QAE@XZ ; std::vector<glm::vec<2,float,0>,std::allocator<glm::vec<2,float,0> > >::~vector<glm::vec<2,float,0>,std::allocator<glm::vec<2,float,0> > >
__unwindfunclet$_main$10:
	lea	ecx, DWORD PTR _model$[ebp]
	jmp	??1Model@@QAE@XZ			; Model::~Model
__ehhandler$_main:
	mov	edx, DWORD PTR [esp+8]
	lea	eax, DWORD PTR [edx+12]
	mov	ecx, DWORD PTR [edx-1396]
	xor	ecx, eax
	call	@__security_check_cookie@4
	mov	ecx, DWORD PTR [edx-4]
	xor	ecx, eax
	call	@__security_check_cookie@4
	mov	eax, OFFSET __ehfuncinfo$_main
	jmp	___CxxFrameHandler3
text$x	ENDS
_main	ENDP
; Function compile flags: /Odtp /RTCsu /ZI
; File D:\Platformer\CPPGame-a38d0db726ab2ff89afdd02c18394bd0c58340c9\CPPGame-a38d0db726ab2ff89afdd02c18394bd0c58340c9\PlatformerGame\src\GameEngine\Start.cpp
;	COMDAT ?intFPS@@YAXXZ
_TEXT	SEGMENT
$T1 = -204						; size = 8
?intFPS@@YAXXZ PROC					; intFPS, COMDAT

; 136  : void intFPS() {

	push	ebp
	mov	ebp, esp
	sub	esp, 208				; 000000d0H
	push	ebx
	push	esi
	push	edi
	lea	edi, DWORD PTR [ebp-208]
	mov	ecx, 52					; 00000034H
	mov	eax, -858993460				; ccccccccH
	rep stosd
	mov	ecx, OFFSET __CBA375CA_Start@cpp
	call	@__CheckForDebuggerJustMyCode@4

; 137  : 	
; 138  : 	Time1 = std::chrono::high_resolution_clock::now();

	lea	eax, DWORD PTR $T1[ebp]
	push	eax
	call	?now@steady_clock@chrono@std@@SA?AV?$time_point@Usteady_clock@chrono@std@@V?$duration@_JU?$ratio@$00$0DLJKMKAA@@std@@@23@@23@XZ ; std::chrono::steady_clock::now
	add	esp, 4
	mov	ecx, DWORD PTR [eax]
	mov	edx, DWORD PTR [eax+4]
	mov	DWORD PTR ?Time1@@3V?$time_point@Usteady_clock@chrono@std@@V?$duration@_JU?$ratio@$00$0DLJKMKAA@@std@@@23@@chrono@std@@A, ecx
	mov	DWORD PTR ?Time1@@3V?$time_point@Usteady_clock@chrono@std@@V?$duration@_JU?$ratio@$00$0DLJKMKAA@@std@@@23@@chrono@std@@A+4, edx

; 139  : 	frames = 0;

	mov	DWORD PTR ?frames@@3HA, 0		; frames

; 140  : 	timepassed = 0;

	xorps	xmm0, xmm0
	movsd	QWORD PTR ?timepassed@@3NA, xmm0

; 141  : 	unproccesed = 0;

	xorps	xmm0, xmm0
	movsd	QWORD PTR ?unproccesed@@3NA, xmm0

; 142  : 	frameTime = 0;

	xorps	xmm0, xmm0
	movsd	QWORD PTR ?frameTime@@3NA, xmm0

; 143  : 
; 144  : 
; 145  : 
; 146  : }

	pop	edi
	pop	esi
	pop	ebx
	add	esp, 208				; 000000d0H
	cmp	ebp, esp
	call	__RTC_CheckEsp
	mov	esp, ebp
	pop	ebp
	ret	0
?intFPS@@YAXXZ ENDP					; intFPS
_TEXT	ENDS
; Function compile flags: /Odtp /RTCsu /ZI
; File C:\Program Files (x86)\Microsoft Visual Studio\2019\Community\VC\Tools\MSVC\14.24.28314\include\ostream
;	COMDAT ??$endl@DU?$char_traits@D@std@@@std@@YAAAV?$basic_ostream@DU?$char_traits@D@std@@@0@AAV10@@Z
_TEXT	SEGMENT
__Ostr$ = 8						; size = 4
??$endl@DU?$char_traits@D@std@@@std@@YAAAV?$basic_ostream@DU?$char_traits@D@std@@@0@AAV10@@Z PROC ; std::endl<char,std::char_traits<char> >, COMDAT

; 943  :     basic_ostream<_Elem, _Traits>& _Ostr) { // insert newline and flush stream

	push	ebp
	mov	ebp, esp
	sub	esp, 192				; 000000c0H
	push	ebx
	push	esi
	push	edi
	lea	edi, DWORD PTR [ebp-192]
	mov	ecx, 48					; 00000030H
	mov	eax, -858993460				; ccccccccH
	rep stosd
	mov	ecx, OFFSET __094A72D0_ostream
	call	@__CheckForDebuggerJustMyCode@4

; 944  :     _Ostr.put(_Ostr.widen('\n'));

	mov	esi, esp
	push	10					; 0000000aH
	mov	eax, DWORD PTR __Ostr$[ebp]
	mov	ecx, DWORD PTR [eax]
	mov	edx, DWORD PTR __Ostr$[ebp]
	add	edx, DWORD PTR [ecx+4]
	mov	ecx, edx
	call	DWORD PTR __imp_?widen@?$basic_ios@DU?$char_traits@D@std@@@std@@QBEDD@Z
	cmp	esi, esp
	call	__RTC_CheckEsp
	mov	esi, esp
	movzx	eax, al
	push	eax
	mov	ecx, DWORD PTR __Ostr$[ebp]
	call	DWORD PTR __imp_?put@?$basic_ostream@DU?$char_traits@D@std@@@std@@QAEAAV12@D@Z
	cmp	esi, esp
	call	__RTC_CheckEsp

; 945  :     _Ostr.flush();

	mov	esi, esp
	mov	ecx, DWORD PTR __Ostr$[ebp]
	call	DWORD PTR __imp_?flush@?$basic_ostream@DU?$char_traits@D@std@@@std@@QAEAAV12@XZ
	cmp	esi, esp
	call	__RTC_CheckEsp

; 946  :     return _Ostr;

	mov	eax, DWORD PTR __Ostr$[ebp]

; 947  : }

	pop	edi
	pop	esi
	pop	ebx
	add	esp, 192				; 000000c0H
	cmp	ebp, esp
	call	__RTC_CheckEsp
	mov	esp, ebp
	pop	ebp
	ret	0
??$endl@DU?$char_traits@D@std@@@std@@YAAAV?$basic_ostream@DU?$char_traits@D@std@@@0@AAV10@@Z ENDP ; std::endl<char,std::char_traits<char> >
_TEXT	ENDS
; Function compile flags: /Odtp /RTCsu /ZI
; File C:\Program Files (x86)\Microsoft Visual Studio\2019\Community\VC\Tools\MSVC\14.24.28314\include\ostream
;	COMDAT ??$?6U?$char_traits@D@std@@@std@@YAAAV?$basic_ostream@DU?$char_traits@D@std@@@0@AAV10@PBD@Z
_TEXT	SEGMENT
tv135 = -356						; size = 8
tv343 = -348						; size = 8
tv291 = -344						; size = 4
tv288 = -344						; size = 8
tv286 = -344						; size = 4
tv329 = -340						; size = 8
tv290 = -340						; size = 4
tv285 = -340						; size = 4
tv287 = -336						; size = 4
tv137 = -336						; size = 4
tv289 = -333						; size = 1
tv284 = -333						; size = 1
$T2 = -328						; size = 4
$T3 = -316						; size = 4
$T4 = -304						; size = 4
$T5 = -292						; size = 4
$T6 = -280						; size = 4
__Ok$ = -76						; size = 8
__Pad$ = -60						; size = 8
__Count$ = -44						; size = 8
__State$ = -28						; size = 4
__$ArrayPad$ = -20					; size = 4
__$EHRec$ = -16						; size = 16
__Ostr$ = 8						; size = 4
__Val$ = 12						; size = 4
??$?6U?$char_traits@D@std@@@std@@YAAAV?$basic_ostream@DU?$char_traits@D@std@@@0@AAV10@PBD@Z PROC ; std::operator<<<std::char_traits<char> >, COMDAT

; 731  :     const char* _Val) { // insert NTBS into char stream

	push	ebp
	mov	ebp, esp
	push	-1
	push	__ehhandler$??$?6U?$char_traits@D@std@@@std@@YAAAV?$basic_ostream@DU?$char_traits@D@std@@@0@AAV10@PBD@Z
	mov	eax, DWORD PTR fs:0
	push	eax
	push	ecx
	sub	esp, 340				; 00000154H
	push	ebx
	push	esi
	push	edi
	lea	edi, DWORD PTR [ebp-356]
	mov	ecx, 85					; 00000055H
	mov	eax, -858993460				; ccccccccH
	rep stosd
	mov	eax, DWORD PTR ___security_cookie
	xor	eax, ebp
	mov	DWORD PTR __$ArrayPad$[ebp], eax
	push	eax
	lea	eax, DWORD PTR __$EHRec$[ebp+4]
	mov	DWORD PTR fs:0, eax
	mov	DWORD PTR __$EHRec$[ebp], esp
	mov	ecx, OFFSET __094A72D0_ostream
	call	@__CheckForDebuggerJustMyCode@4

; 732  :     using _Elem = char;
; 733  :     using _Myos = basic_ostream<_Elem, _Traits>;
; 734  : 
; 735  :     ios_base::iostate _State = ios_base::goodbit;

	mov	DWORD PTR __State$[ebp], 0

; 736  :     streamsize _Count        = static_cast<streamsize>(_Traits::length(_Val));

	mov	eax, DWORD PTR __Val$[ebp]
	push	eax
	call	?length@?$_Narrow_char_traits@DH@std@@SAIQBD@Z ; std::_Narrow_char_traits<char,int>::length
	add	esp, 4
	xor	ecx, ecx
	mov	DWORD PTR __Count$[ebp], eax
	mov	DWORD PTR __Count$[ebp+4], ecx

; 737  :     streamsize _Pad          = _Ostr.width() <= 0 || _Ostr.width() <= _Count ? 0 : _Ostr.width() - _Count;

	mov	eax, DWORD PTR __Ostr$[ebp]
	mov	ecx, DWORD PTR [eax]
	mov	edx, DWORD PTR __Ostr$[ebp]
	add	edx, DWORD PTR [ecx+4]
	mov	esi, esp
	mov	ecx, edx
	call	DWORD PTR __imp_?width@ios_base@std@@QBE_JXZ
	cmp	esi, esp
	call	__RTC_CheckEsp
	mov	DWORD PTR tv329[ebp], eax
	mov	DWORD PTR tv329[ebp+4], edx
	cmp	DWORD PTR tv329[ebp+4], 0
	jl	SHORT $LN17@operator
	jg	SHORT $LN24@operator
	cmp	DWORD PTR tv329[ebp], 0
	jbe	SHORT $LN17@operator
$LN24@operator:
	mov	eax, DWORD PTR __Ostr$[ebp]
	mov	ecx, DWORD PTR [eax]
	mov	edx, DWORD PTR __Ostr$[ebp]
	add	edx, DWORD PTR [ecx+4]
	mov	esi, esp
	mov	ecx, edx
	call	DWORD PTR __imp_?width@ios_base@std@@QBE_JXZ
	cmp	esi, esp
	call	__RTC_CheckEsp
	mov	DWORD PTR tv343[ebp], eax
	mov	DWORD PTR tv343[ebp+4], edx
	mov	eax, DWORD PTR tv343[ebp+4]
	cmp	eax, DWORD PTR __Count$[ebp+4]
	jl	SHORT $LN17@operator
	jg	SHORT $LN25@operator
	mov	ecx, DWORD PTR tv343[ebp]
	cmp	ecx, DWORD PTR __Count$[ebp]
	jbe	SHORT $LN17@operator
$LN25@operator:
	mov	edx, DWORD PTR __Ostr$[ebp]
	mov	eax, DWORD PTR [edx]
	mov	ecx, DWORD PTR __Ostr$[ebp]
	add	ecx, DWORD PTR [eax+4]
	mov	esi, esp
	call	DWORD PTR __imp_?width@ios_base@std@@QBE_JXZ
	cmp	esi, esp
	call	__RTC_CheckEsp
	sub	eax, DWORD PTR __Count$[ebp]
	sbb	edx, DWORD PTR __Count$[ebp+4]
	mov	DWORD PTR tv135[ebp], eax
	mov	DWORD PTR tv135[ebp+4], edx
	jmp	SHORT $LN18@operator
$LN17@operator:
	xorps	xmm0, xmm0
	movlpd	QWORD PTR tv135[ebp], xmm0
$LN18@operator:
	mov	ecx, DWORD PTR tv135[ebp]
	mov	DWORD PTR __Pad$[ebp], ecx
	mov	edx, DWORD PTR tv135[ebp+4]
	mov	DWORD PTR __Pad$[ebp+4], edx

; 738  :     const typename _Myos::sentry _Ok(_Ostr);

	mov	eax, DWORD PTR __Ostr$[ebp]
	push	eax
	lea	ecx, DWORD PTR __Ok$[ebp]
	call	??0sentry@?$basic_ostream@DU?$char_traits@D@std@@@std@@QAE@AAV12@@Z ; std::basic_ostream<char,std::char_traits<char> >::sentry::sentry
	mov	DWORD PTR __$EHRec$[ebp+12], 0

; 739  : 
; 740  :     if (!_Ok) {

	lea	ecx, DWORD PTR __Ok$[ebp]
	call	??Bsentry@?$basic_ostream@DU?$char_traits@D@std@@@std@@QBE_NXZ ; std::basic_ostream<char,std::char_traits<char> >::sentry::operator bool
	movzx	eax, al
	test	eax, eax
	jne	SHORT $LN8@operator

; 741  :         _State |= ios_base::badbit;

	mov	eax, DWORD PTR __State$[ebp]
	or	eax, 4
	mov	DWORD PTR __State$[ebp], eax

; 742  :     } else { // state okay, insert

	jmp	$LN9@operator
$LN8@operator:

; 743  :         _TRY_IO_BEGIN

	mov	BYTE PTR __$EHRec$[ebp+12], 1

; 744  :         if ((_Ostr.flags() & ios_base::adjustfield) != ios_base::left) {

	mov	eax, DWORD PTR __Ostr$[ebp]
	mov	ecx, DWORD PTR [eax]
	mov	edx, DWORD PTR __Ostr$[ebp]
	add	edx, DWORD PTR [ecx+4]
	mov	esi, esp
	mov	ecx, edx
	call	DWORD PTR __imp_?flags@ios_base@std@@QBEHXZ
	cmp	esi, esp
	call	__RTC_CheckEsp
	mov	DWORD PTR tv137[ebp], eax
	mov	eax, DWORD PTR tv137[ebp]
	and	eax, 448				; 000001c0H
	cmp	eax, 64					; 00000040H
	je	$LN11@operator

; 745  :             for (; 0 < _Pad; --_Pad) { // pad on left

	jmp	SHORT $LN4@operator
$LN2@operator:
	mov	eax, DWORD PTR __Pad$[ebp]
	sub	eax, 1
	mov	ecx, DWORD PTR __Pad$[ebp+4]
	sbb	ecx, 0
	mov	DWORD PTR __Pad$[ebp], eax
	mov	DWORD PTR __Pad$[ebp+4], ecx
$LN4@operator:
	cmp	DWORD PTR __Pad$[ebp+4], 0
	jl	$LN11@operator
	jg	SHORT $LN26@operator
	cmp	DWORD PTR __Pad$[ebp], 0
	jbe	$LN11@operator
$LN26@operator:

; 746  :                 if (_Traits::eq_int_type(_Traits::eof(), _Ostr.rdbuf()->sputc(_Ostr.fill()))) {

	mov	eax, DWORD PTR __Ostr$[ebp]
	mov	ecx, DWORD PTR [eax]
	mov	edx, DWORD PTR __Ostr$[ebp]
	add	edx, DWORD PTR [ecx+4]
	mov	esi, esp
	mov	ecx, edx
	call	DWORD PTR __imp_?fill@?$basic_ios@DU?$char_traits@D@std@@@std@@QBEDXZ
	cmp	esi, esp
	call	__RTC_CheckEsp
	mov	BYTE PTR tv284[ebp], al
	mov	eax, DWORD PTR __Ostr$[ebp]
	mov	ecx, DWORD PTR [eax]
	mov	edx, DWORD PTR __Ostr$[ebp]
	add	edx, DWORD PTR [ecx+4]
	mov	esi, esp
	mov	ecx, edx
	call	DWORD PTR __imp_?rdbuf@?$basic_ios@DU?$char_traits@D@std@@@std@@QBEPAV?$basic_streambuf@DU?$char_traits@D@std@@@2@XZ
	cmp	esi, esp
	call	__RTC_CheckEsp
	mov	DWORD PTR tv285[ebp], eax
	mov	esi, esp
	movzx	eax, BYTE PTR tv284[ebp]
	push	eax
	mov	ecx, DWORD PTR tv285[ebp]
	call	DWORD PTR __imp_?sputc@?$basic_streambuf@DU?$char_traits@D@std@@@std@@QAEHD@Z
	cmp	esi, esp
	call	__RTC_CheckEsp
	mov	DWORD PTR tv286[ebp], eax
	mov	ecx, DWORD PTR tv286[ebp]
	mov	DWORD PTR $T6[ebp], ecx
	call	?eof@?$_Narrow_char_traits@DH@std@@SAHXZ ; std::_Narrow_char_traits<char,int>::eof
	mov	DWORD PTR $T5[ebp], eax
	lea	edx, DWORD PTR $T6[ebp]
	push	edx
	lea	eax, DWORD PTR $T5[ebp]
	push	eax
	call	?eq_int_type@?$_Narrow_char_traits@DH@std@@SA_NABH0@Z ; std::_Narrow_char_traits<char,int>::eq_int_type
	add	esp, 8
	movzx	ecx, al
	test	ecx, ecx
	je	SHORT $LN12@operator

; 747  :                     _State |= ios_base::badbit; // insertion failed, quit

	mov	eax, DWORD PTR __State$[ebp]
	or	eax, 4
	mov	DWORD PTR __State$[ebp], eax

; 748  :                     break;

	jmp	SHORT $LN11@operator
$LN12@operator:

; 749  :                 }
; 750  :             }

	jmp	$LN2@operator
$LN11@operator:

; 751  :         }
; 752  : 
; 753  :         if (_State == ios_base::goodbit && _Ostr.rdbuf()->sputn(_Val, _Count) != _Count) {

	cmp	DWORD PTR __State$[ebp], 0
	jne	SHORT $LN13@operator
	mov	eax, DWORD PTR __Ostr$[ebp]
	mov	ecx, DWORD PTR [eax]
	mov	edx, DWORD PTR __Ostr$[ebp]
	add	edx, DWORD PTR [ecx+4]
	mov	esi, esp
	mov	ecx, edx
	call	DWORD PTR __imp_?rdbuf@?$basic_ios@DU?$char_traits@D@std@@@std@@QBEPAV?$basic_streambuf@DU?$char_traits@D@std@@@2@XZ
	cmp	esi, esp
	call	__RTC_CheckEsp
	mov	DWORD PTR tv287[ebp], eax
	mov	esi, esp
	mov	eax, DWORD PTR __Count$[ebp+4]
	push	eax
	mov	ecx, DWORD PTR __Count$[ebp]
	push	ecx
	mov	edx, DWORD PTR __Val$[ebp]
	push	edx
	mov	ecx, DWORD PTR tv287[ebp]
	call	DWORD PTR __imp_?sputn@?$basic_streambuf@DU?$char_traits@D@std@@@std@@QAE_JPBD_J@Z
	cmp	esi, esp
	call	__RTC_CheckEsp
	mov	DWORD PTR tv288[ebp], eax
	mov	DWORD PTR tv288[ebp+4], edx
	mov	eax, DWORD PTR tv288[ebp]
	cmp	eax, DWORD PTR __Count$[ebp]
	jne	SHORT $LN27@operator
	mov	ecx, DWORD PTR tv288[ebp+4]
	cmp	ecx, DWORD PTR __Count$[ebp+4]
	je	SHORT $LN13@operator
$LN27@operator:

; 754  :             _State |= ios_base::badbit;

	mov	eax, DWORD PTR __State$[ebp]
	or	eax, 4
	mov	DWORD PTR __State$[ebp], eax
$LN13@operator:

; 755  :         }
; 756  : 
; 757  :         if (_State == ios_base::goodbit) {

	cmp	DWORD PTR __State$[ebp], 0
	jne	$LN14@operator

; 758  :             for (; 0 < _Pad; --_Pad) { // pad on right

	jmp	SHORT $LN7@operator
$LN5@operator:
	mov	eax, DWORD PTR __Pad$[ebp]
	sub	eax, 1
	mov	ecx, DWORD PTR __Pad$[ebp+4]
	sbb	ecx, 0
	mov	DWORD PTR __Pad$[ebp], eax
	mov	DWORD PTR __Pad$[ebp+4], ecx
$LN7@operator:
	cmp	DWORD PTR __Pad$[ebp+4], 0
	jl	$LN14@operator
	jg	SHORT $LN28@operator
	cmp	DWORD PTR __Pad$[ebp], 0
	jbe	$LN14@operator
$LN28@operator:

; 759  :                 if (_Traits::eq_int_type(_Traits::eof(), _Ostr.rdbuf()->sputc(_Ostr.fill()))) {

	mov	eax, DWORD PTR __Ostr$[ebp]
	mov	ecx, DWORD PTR [eax]
	mov	edx, DWORD PTR __Ostr$[ebp]
	add	edx, DWORD PTR [ecx+4]
	mov	esi, esp
	mov	ecx, edx
	call	DWORD PTR __imp_?fill@?$basic_ios@DU?$char_traits@D@std@@@std@@QBEDXZ
	cmp	esi, esp
	call	__RTC_CheckEsp
	mov	BYTE PTR tv289[ebp], al
	mov	eax, DWORD PTR __Ostr$[ebp]
	mov	ecx, DWORD PTR [eax]
	mov	edx, DWORD PTR __Ostr$[ebp]
	add	edx, DWORD PTR [ecx+4]
	mov	esi, esp
	mov	ecx, edx
	call	DWORD PTR __imp_?rdbuf@?$basic_ios@DU?$char_traits@D@std@@@std@@QBEPAV?$basic_streambuf@DU?$char_traits@D@std@@@2@XZ
	cmp	esi, esp
	call	__RTC_CheckEsp
	mov	DWORD PTR tv290[ebp], eax
	mov	esi, esp
	movzx	eax, BYTE PTR tv289[ebp]
	push	eax
	mov	ecx, DWORD PTR tv290[ebp]
	call	DWORD PTR __imp_?sputc@?$basic_streambuf@DU?$char_traits@D@std@@@std@@QAEHD@Z
	cmp	esi, esp
	call	__RTC_CheckEsp
	mov	DWORD PTR tv291[ebp], eax
	mov	ecx, DWORD PTR tv291[ebp]
	mov	DWORD PTR $T4[ebp], ecx
	call	?eof@?$_Narrow_char_traits@DH@std@@SAHXZ ; std::_Narrow_char_traits<char,int>::eof
	mov	DWORD PTR $T3[ebp], eax
	lea	edx, DWORD PTR $T4[ebp]
	push	edx
	lea	eax, DWORD PTR $T3[ebp]
	push	eax
	call	?eq_int_type@?$_Narrow_char_traits@DH@std@@SA_NABH0@Z ; std::_Narrow_char_traits<char,int>::eq_int_type
	add	esp, 8
	movzx	ecx, al
	test	ecx, ecx
	je	SHORT $LN15@operator

; 760  :                     _State |= ios_base::badbit; // insertion failed, quit

	mov	eax, DWORD PTR __State$[ebp]
	or	eax, 4
	mov	DWORD PTR __State$[ebp], eax

; 761  :                     break;

	jmp	SHORT $LN14@operator
$LN15@operator:

; 762  :                 }
; 763  :             }

	jmp	$LN5@operator
$LN14@operator:

; 764  :         }
; 765  : 
; 766  :         _Ostr.width(0);

	mov	esi, esp
	push	0
	push	0
	mov	eax, DWORD PTR __Ostr$[ebp]
	mov	ecx, DWORD PTR [eax]
	mov	edx, DWORD PTR __Ostr$[ebp]
	add	edx, DWORD PTR [ecx+4]
	mov	ecx, edx
	call	DWORD PTR __imp_?width@ios_base@std@@QAE_J_J@Z
	cmp	esi, esp
	call	__RTC_CheckEsp
	jmp	SHORT $LN19@operator
__catch$??$?6U?$char_traits@D@std@@@std@@YAAAV?$basic_ostream@DU?$char_traits@D@std@@@0@AAV10@PBD@Z$0:

; 767  :         _CATCH_IO_(ios_base, _Ostr)

	mov	esi, esp
	push	1
	push	4
	mov	eax, DWORD PTR __Ostr$[ebp]
	mov	ecx, DWORD PTR [eax]
	mov	edx, DWORD PTR __Ostr$[ebp]
	add	edx, DWORD PTR [ecx+4]
	mov	ecx, edx
	call	DWORD PTR __imp_?setstate@?$basic_ios@DU?$char_traits@D@std@@@std@@QAEXH_N@Z
	cmp	esi, esp
	call	__RTC_CheckEsp
	mov	eax, $LN23@operator
	ret	0
$LN19@operator:
	mov	DWORD PTR __$EHRec$[ebp+12], 0
	jmp	SHORT $LN9@operator
$LN23@operator:
	mov	DWORD PTR __$EHRec$[ebp+12], 0
$LN9@operator:

; 768  :     }
; 769  : 
; 770  :     _Ostr.setstate(_State);

	mov	esi, esp
	push	0
	mov	eax, DWORD PTR __State$[ebp]
	push	eax
	mov	ecx, DWORD PTR __Ostr$[ebp]
	mov	edx, DWORD PTR [ecx]
	mov	ecx, DWORD PTR __Ostr$[ebp]
	add	ecx, DWORD PTR [edx+4]
	call	DWORD PTR __imp_?setstate@?$basic_ios@DU?$char_traits@D@std@@@std@@QAEXH_N@Z
	cmp	esi, esp
	call	__RTC_CheckEsp

; 771  :     return _Ostr;

	mov	eax, DWORD PTR __Ostr$[ebp]
	mov	DWORD PTR $T2[ebp], eax
	mov	DWORD PTR __$EHRec$[ebp+12], -1
	lea	ecx, DWORD PTR __Ok$[ebp]
	call	??1sentry@?$basic_ostream@DU?$char_traits@D@std@@@std@@QAE@XZ ; std::basic_ostream<char,std::char_traits<char> >::sentry::~sentry
	mov	eax, DWORD PTR $T2[ebp]

; 772  : }

	push	edx
	mov	ecx, ebp
	push	eax
	lea	edx, DWORD PTR $LN32@operator
	call	@_RTC_CheckStackVars@8
	pop	eax
	pop	edx
	mov	ecx, DWORD PTR __$EHRec$[ebp+4]
	mov	DWORD PTR fs:0, ecx
	pop	ecx
	pop	edi
	pop	esi
	pop	ebx
	mov	ecx, DWORD PTR __$ArrayPad$[ebp]
	xor	ecx, ebp
	call	@__security_check_cookie@4
	add	esp, 356				; 00000164H
	cmp	ebp, esp
	call	__RTC_CheckEsp
	mov	esp, ebp
	pop	ebp
	ret	0
	npad	2
$LN32@operator:
	DD	1
	DD	$LN31@operator
$LN31@operator:
	DD	-76					; ffffffb4H
	DD	8
	DD	$LN29@operator
$LN29@operator:
	DB	95					; 0000005fH
	DB	79					; 0000004fH
	DB	107					; 0000006bH
	DB	0
_TEXT	ENDS
;	COMDAT text$x
text$x	SEGMENT
__unwindfunclet$??$?6U?$char_traits@D@std@@@std@@YAAAV?$basic_ostream@DU?$char_traits@D@std@@@0@AAV10@PBD@Z$2:
	lea	ecx, DWORD PTR __Ok$[ebp]
	jmp	??1sentry@?$basic_ostream@DU?$char_traits@D@std@@@std@@QAE@XZ ; std::basic_ostream<char,std::char_traits<char> >::sentry::~sentry
__ehhandler$??$?6U?$char_traits@D@std@@@std@@YAAAV?$basic_ostream@DU?$char_traits@D@std@@@0@AAV10@PBD@Z:
	mov	edx, DWORD PTR [esp+8]
	lea	eax, DWORD PTR [edx+12]
	mov	ecx, DWORD PTR [edx-360]
	xor	ecx, eax
	call	@__security_check_cookie@4
	mov	ecx, DWORD PTR [edx-8]
	xor	ecx, eax
	call	@__security_check_cookie@4
	mov	eax, OFFSET __ehfuncinfo$??$?6U?$char_traits@D@std@@@std@@YAAAV?$basic_ostream@DU?$char_traits@D@std@@@0@AAV10@PBD@Z
	jmp	___CxxFrameHandler3
text$x	ENDS
??$?6U?$char_traits@D@std@@@std@@YAAAV?$basic_ostream@DU?$char_traits@D@std@@@0@AAV10@PBD@Z ENDP ; std::operator<<<std::char_traits<char> >
; Function compile flags: /Odtp /RTCsu /ZI
; File C:\Program Files (x86)\Microsoft Visual Studio\2019\Community\VC\Tools\MSVC\14.24.28314\include\chrono
;	COMDAT ??$?GUsteady_clock@chrono@std@@V?$duration@_JU?$ratio@$00$0DLJKMKAA@@std@@@12@V312@@chrono@std@@YA?AV?$duration@_JU?$ratio@$00$0DLJKMKAA@@std@@@01@ABV?$time_point@Usteady_clock@chrono@std@@V?$duration@_JU?$ratio@$00$0DLJKMKAA@@std@@@23@@01@0@Z
_TEXT	SEGMENT
$T2 = -232						; size = 8
$T3 = -216						; size = 8
__$EHRec$ = -12						; size = 12
___$ReturnUdt$ = 8					; size = 4
__Left$ = 12						; size = 4
__Right$ = 16						; size = 4
??$?GUsteady_clock@chrono@std@@V?$duration@_JU?$ratio@$00$0DLJKMKAA@@std@@@12@V312@@chrono@std@@YA?AV?$duration@_JU?$ratio@$00$0DLJKMKAA@@std@@@01@ABV?$time_point@Usteady_clock@chrono@std@@V?$duration@_JU?$ratio@$00$0DLJKMKAA@@std@@@23@@01@0@Z PROC ; std::chrono::operator-<std::chrono::steady_clock,std::chrono::duration<__int64,std::ratio<1,1000000000> >,std::chrono::duration<__int64,std::ratio<1,1000000000> > >, COMDAT

; 500  :             is_arithmetic_v<typename _Duration1::rep>&& is_arithmetic_v<typename _Duration2::rep>) /* strengthened */ {

	push	ebp
	mov	ebp, esp
	push	-1
	push	__ehhandler$??$?GUsteady_clock@chrono@std@@V?$duration@_JU?$ratio@$00$0DLJKMKAA@@std@@@12@V312@@chrono@std@@YA?AV?$duration@_JU?$ratio@$00$0DLJKMKAA@@std@@@01@ABV?$time_point@Usteady_clock@chrono@std@@V?$duration@_JU?$ratio@$00$0DLJKMKAA@@std@@@23@@01@0@Z
	mov	eax, DWORD PTR fs:0
	push	eax
	sub	esp, 224				; 000000e0H
	push	ebx
	push	esi
	push	edi
	lea	edi, DWORD PTR [ebp-236]
	mov	ecx, 56					; 00000038H
	mov	eax, -858993460				; ccccccccH
	rep stosd
	mov	eax, DWORD PTR ___security_cookie
	xor	eax, ebp
	push	eax
	lea	eax, DWORD PTR __$EHRec$[ebp]
	mov	DWORD PTR fs:0, eax
	mov	ecx, OFFSET __A91506BA_chrono
	call	@__CheckForDebuggerJustMyCode@4

; 501  :         return _Left.time_since_epoch() - _Right.time_since_epoch();

	lea	eax, DWORD PTR $T3[ebp]
	push	eax
	mov	ecx, DWORD PTR __Right$[ebp]
	call	?time_since_epoch@?$time_point@Usteady_clock@chrono@std@@V?$duration@_JU?$ratio@$00$0DLJKMKAA@@std@@@23@@chrono@std@@QBE?AV?$duration@_JU?$ratio@$00$0DLJKMKAA@@std@@@23@XZ ; std::chrono::time_point<std::chrono::steady_clock,std::chrono::duration<__int64,std::ratio<1,1000000000> > >::time_since_epoch
	push	eax
	lea	ecx, DWORD PTR $T2[ebp]
	push	ecx
	mov	ecx, DWORD PTR __Left$[ebp]
	call	?time_since_epoch@?$time_point@Usteady_clock@chrono@std@@V?$duration@_JU?$ratio@$00$0DLJKMKAA@@std@@@23@@chrono@std@@QBE?AV?$duration@_JU?$ratio@$00$0DLJKMKAA@@std@@@23@XZ ; std::chrono::time_point<std::chrono::steady_clock,std::chrono::duration<__int64,std::ratio<1,1000000000> > >::time_since_epoch
	push	eax
	mov	edx, DWORD PTR ___$ReturnUdt$[ebp]
	push	edx
	call	??$?G_JU?$ratio@$00$0DLJKMKAA@@std@@_JU01@@chrono@std@@YA?AV?$duration@_JU?$ratio@$00$0DLJKMKAA@@std@@@01@ABV201@0@Z ; std::chrono::operator-<__int64,std::ratio<1,1000000000>,__int64,std::ratio<1,1000000000> >
	add	esp, 12					; 0000000cH
	mov	eax, DWORD PTR ___$ReturnUdt$[ebp]

; 502  :     }

	mov	ecx, DWORD PTR __$EHRec$[ebp]
	mov	DWORD PTR fs:0, ecx
	pop	ecx
	pop	edi
	pop	esi
	pop	ebx
	add	esp, 236				; 000000ecH
	cmp	ebp, esp
	call	__RTC_CheckEsp
	mov	esp, ebp
	pop	ebp
	ret	0
_TEXT	ENDS
;	COMDAT text$x
text$x	SEGMENT
__ehhandler$??$?GUsteady_clock@chrono@std@@V?$duration@_JU?$ratio@$00$0DLJKMKAA@@std@@@12@V312@@chrono@std@@YA?AV?$duration@_JU?$ratio@$00$0DLJKMKAA@@std@@@01@ABV?$time_point@Usteady_clock@chrono@std@@V?$duration@_JU?$ratio@$00$0DLJKMKAA@@std@@@23@@01@0@Z:
	mov	edx, DWORD PTR [esp+8]
	lea	eax, DWORD PTR [edx+12]
	mov	ecx, DWORD PTR [edx-240]
	xor	ecx, eax
	call	@__security_check_cookie@4
	mov	eax, OFFSET __ehfuncinfo$??$?GUsteady_clock@chrono@std@@V?$duration@_JU?$ratio@$00$0DLJKMKAA@@std@@@12@V312@@chrono@std@@YA?AV?$duration@_JU?$ratio@$00$0DLJKMKAA@@std@@@01@ABV?$time_point@Usteady_clock@chrono@std@@V?$duration@_JU?$ratio@$00$0DLJKMKAA@@std@@@23@@01@0@Z
	jmp	___CxxFrameHandler3
text$x	ENDS
??$?GUsteady_clock@chrono@std@@V?$duration@_JU?$ratio@$00$0DLJKMKAA@@std@@@12@V312@@chrono@std@@YA?AV?$duration@_JU?$ratio@$00$0DLJKMKAA@@std@@@01@ABV?$time_point@Usteady_clock@chrono@std@@V?$duration@_JU?$ratio@$00$0DLJKMKAA@@std@@@23@@01@0@Z ENDP ; std::chrono::operator-<std::chrono::steady_clock,std::chrono::duration<__int64,std::ratio<1,1000000000> >,std::chrono::duration<__int64,std::ratio<1,1000000000> > >
; Function compile flags: /Odtp /RTCsu /ZI
; File D:\Platformer\CPPGame-a38d0db726ab2ff89afdd02c18394bd0c58340c9\CPPGame-a38d0db726ab2ff89afdd02c18394bd0c58340c9\PlatformerGame\src\GameEngine\Start.cpp
;	COMDAT ?fps@@YAXXZ
_TEXT	SEGMENT
$T1 = -304						; size = 8
$T2 = -288						; size = 8
$T3 = -272						; size = 8
$T4 = -256						; size = 8
$T5 = -240						; size = 8
_timeP$6 = -32						; size = 8
_time$ = -16						; size = 8
__$ArrayPad$ = -4					; size = 4
?fps@@YAXXZ PROC					; fps, COMDAT

; 80   : void fps() {

	push	ebp
	mov	ebp, esp
	sub	esp, 308				; 00000134H
	push	ebx
	push	esi
	push	edi
	lea	edi, DWORD PTR [ebp-308]
	mov	ecx, 77					; 0000004dH
	mov	eax, -858993460				; ccccccccH
	rep stosd
	mov	eax, DWORD PTR ___security_cookie
	xor	eax, ebp
	mov	DWORD PTR __$ArrayPad$[ebp], eax
	mov	ecx, OFFSET __CBA375CA_Start@cpp
	call	@__CheckForDebuggerJustMyCode@4

; 81   :  
; 82   : 	canRender = false;

	mov	BYTE PTR ?canRender@@3EA, 0		; canRender

; 83   :  Time2 = std::chrono::high_resolution_clock::now();

	lea	eax, DWORD PTR $T5[ebp]
	push	eax
	call	?now@steady_clock@chrono@std@@SA?AV?$time_point@Usteady_clock@chrono@std@@V?$duration@_JU?$ratio@$00$0DLJKMKAA@@std@@@23@@23@XZ ; std::chrono::steady_clock::now
	add	esp, 4
	mov	ecx, DWORD PTR [eax]
	mov	edx, DWORD PTR [eax+4]
	mov	DWORD PTR ?Time2@@3V?$time_point@Usteady_clock@chrono@std@@V?$duration@_JU?$ratio@$00$0DLJKMKAA@@std@@@23@@chrono@std@@A, ecx
	mov	DWORD PTR ?Time2@@3V?$time_point@Usteady_clock@chrono@std@@V?$duration@_JU?$ratio@$00$0DLJKMKAA@@std@@@23@@chrono@std@@A+4, edx

; 84   : auto  time=std::chrono::duration<double> (Time2 - Time1);

	push	OFFSET ?Time1@@3V?$time_point@Usteady_clock@chrono@std@@V?$duration@_JU?$ratio@$00$0DLJKMKAA@@std@@@23@@chrono@std@@A ; Time1
	push	OFFSET ?Time2@@3V?$time_point@Usteady_clock@chrono@std@@V?$duration@_JU?$ratio@$00$0DLJKMKAA@@std@@@23@@chrono@std@@A ; Time2
	lea	eax, DWORD PTR $T4[ebp]
	push	eax
	call	??$?GUsteady_clock@chrono@std@@V?$duration@_JU?$ratio@$00$0DLJKMKAA@@std@@@12@V312@@chrono@std@@YA?AV?$duration@_JU?$ratio@$00$0DLJKMKAA@@std@@@01@ABV?$time_point@Usteady_clock@chrono@std@@V?$duration@_JU?$ratio@$00$0DLJKMKAA@@std@@@23@@01@0@Z ; std::chrono::operator-<std::chrono::steady_clock,std::chrono::duration<__int64,std::ratio<1,1000000000> >,std::chrono::duration<__int64,std::ratio<1,1000000000> > >
	add	esp, 12					; 0000000cH
	push	eax
	lea	ecx, DWORD PTR _time$[ebp]
	call	??$?0_JU?$ratio@$00$0DLJKMKAA@@std@@X@?$duration@NU?$ratio@$00$00@std@@@chrono@std@@QAE@ABV?$duration@_JU?$ratio@$00$0DLJKMKAA@@std@@@12@@Z ; std::chrono::duration<double,std::ratio<1,1> >::duration<double,std::ratio<1,1> ><__int64,std::ratio<1,1000000000>,void>

; 85   :  timepassed = time.count();

	lea	ecx, DWORD PTR _time$[ebp]
	call	?count@?$duration@NU?$ratio@$00$00@std@@@chrono@std@@QBENXZ ; std::chrono::duration<double,std::ratio<1,1> >::count
	fstp	QWORD PTR ?timepassed@@3NA		; timepassed

; 86   :  
; 87   :  unproccesed += timepassed;

	movsd	xmm0, QWORD PTR ?unproccesed@@3NA
	addsd	xmm0, QWORD PTR ?timepassed@@3NA
	movsd	QWORD PTR ?unproccesed@@3NA, xmm0

; 88   :  frameTime += timepassed;

	movsd	xmm0, QWORD PTR ?frameTime@@3NA
	addsd	xmm0, QWORD PTR ?timepassed@@3NA
	movsd	QWORD PTR ?frameTime@@3NA, xmm0

; 89   :  
; 90   :  
; 91   : 
; 92   : 
; 93   :  if (unproccesed >= framecap) {

	movsd	xmm0, QWORD PTR ?unproccesed@@3NA
	comisd	xmm0, QWORD PTR ?framecap@@3NA
	jb	$LN2@fps

; 94   : 	
; 95   : 	 now = std::chrono::high_resolution_clock::now();

	lea	eax, DWORD PTR $T3[ebp]
	push	eax
	call	?now@steady_clock@chrono@std@@SA?AV?$time_point@Usteady_clock@chrono@std@@V?$duration@_JU?$ratio@$00$0DLJKMKAA@@std@@@23@@23@XZ ; std::chrono::steady_clock::now
	add	esp, 4
	mov	ecx, DWORD PTR [eax]
	mov	edx, DWORD PTR [eax+4]
	mov	DWORD PTR ?now@@3V?$time_point@Usteady_clock@chrono@std@@V?$duration@_JU?$ratio@$00$0DLJKMKAA@@std@@@23@@chrono@std@@A, ecx
	mov	DWORD PTR ?now@@3V?$time_point@Usteady_clock@chrono@std@@V?$duration@_JU?$ratio@$00$0DLJKMKAA@@std@@@23@@chrono@std@@A+4, edx

; 96   : 	 auto timeP = std::chrono::duration<double>(lastFrame - now);

	push	OFFSET ?now@@3V?$time_point@Usteady_clock@chrono@std@@V?$duration@_JU?$ratio@$00$0DLJKMKAA@@std@@@23@@chrono@std@@A ; now
	push	OFFSET ?lastFrame@@3V?$time_point@Usteady_clock@chrono@std@@V?$duration@_JU?$ratio@$00$0DLJKMKAA@@std@@@23@@chrono@std@@A ; lastFrame
	lea	eax, DWORD PTR $T2[ebp]
	push	eax
	call	??$?GUsteady_clock@chrono@std@@V?$duration@_JU?$ratio@$00$0DLJKMKAA@@std@@@12@V312@@chrono@std@@YA?AV?$duration@_JU?$ratio@$00$0DLJKMKAA@@std@@@01@ABV?$time_point@Usteady_clock@chrono@std@@V?$duration@_JU?$ratio@$00$0DLJKMKAA@@std@@@23@@01@0@Z ; std::chrono::operator-<std::chrono::steady_clock,std::chrono::duration<__int64,std::ratio<1,1000000000> >,std::chrono::duration<__int64,std::ratio<1,1000000000> > >
	add	esp, 12					; 0000000cH
	push	eax
	lea	ecx, DWORD PTR _timeP$6[ebp]
	call	??$?0_JU?$ratio@$00$0DLJKMKAA@@std@@X@?$duration@NU?$ratio@$00$00@std@@@chrono@std@@QAE@ABV?$duration@_JU?$ratio@$00$0DLJKMKAA@@std@@@12@@Z ; std::chrono::duration<double,std::ratio<1,1> >::duration<double,std::ratio<1,1> ><__int64,std::ratio<1,1000000000>,void>

; 97   : 	 DeltaT = timeP.count();

	lea	ecx, DWORD PTR _timeP$6[ebp]
	call	?count@?$duration@NU?$ratio@$00$00@std@@@chrono@std@@QBENXZ ; std::chrono::duration<double,std::ratio<1,1> >::count
	fstp	QWORD PTR ?DeltaT@@3NA			; DeltaT

; 98   : 
; 99   : 	 canRender = true;

	mov	BYTE PTR ?canRender@@3EA, 1		; canRender

; 100  : 	 unproccesed -= framecap;

	movsd	xmm0, QWORD PTR ?unproccesed@@3NA
	subsd	xmm0, QWORD PTR ?framecap@@3NA
	movsd	QWORD PTR ?unproccesed@@3NA, xmm0

; 101  : 	 lastFrame = std::chrono::high_resolution_clock::now();

	lea	eax, DWORD PTR $T1[ebp]
	push	eax
	call	?now@steady_clock@chrono@std@@SA?AV?$time_point@Usteady_clock@chrono@std@@V?$duration@_JU?$ratio@$00$0DLJKMKAA@@std@@@23@@23@XZ ; std::chrono::steady_clock::now
	add	esp, 4
	mov	ecx, DWORD PTR [eax]
	mov	edx, DWORD PTR [eax+4]
	mov	DWORD PTR ?lastFrame@@3V?$time_point@Usteady_clock@chrono@std@@V?$duration@_JU?$ratio@$00$0DLJKMKAA@@std@@@23@@chrono@std@@A, ecx
	mov	DWORD PTR ?lastFrame@@3V?$time_point@Usteady_clock@chrono@std@@V?$duration@_JU?$ratio@$00$0DLJKMKAA@@std@@@23@@chrono@std@@A+4, edx

; 102  : 	 frames++;

	mov	eax, DWORD PTR ?frames@@3HA		; frames
	add	eax, 1
	mov	DWORD PTR ?frames@@3HA, eax		; frames
$LN2@fps:

; 103  :  }
; 104  : if (frameTime >= 1.0) {

	movsd	xmm0, QWORD PTR ?frameTime@@3NA
	comisd	xmm0, QWORD PTR __real@3ff0000000000000
	jb	SHORT $LN3@fps

; 105  : 	
; 106  : 	FPS = frames;

	mov	eax, DWORD PTR ?frames@@3HA		; frames
	mov	DWORD PTR ?FPS@@3HA, eax		; FPS

; 107  : 	frames = 0;

	mov	DWORD PTR ?frames@@3HA, 0		; frames

; 108  : 	frameTime = 0;

	xorps	xmm0, xmm0
	movsd	QWORD PTR ?frameTime@@3NA, xmm0

; 109  : 	frames = 0;

	mov	DWORD PTR ?frames@@3HA, 0		; frames

; 110  : 	std::cout << "FPS=" <<FPS << std::endl;

	mov	esi, esp
	push	OFFSET ??$endl@DU?$char_traits@D@std@@@std@@YAAAV?$basic_ostream@DU?$char_traits@D@std@@@0@AAV10@@Z ; std::endl<char,std::char_traits<char> >
	mov	edi, esp
	mov	eax, DWORD PTR ?FPS@@3HA		; FPS
	push	eax
	push	OFFSET ??_C@_04CBHBHCPO@FPS?$DN@
	mov	ecx, DWORD PTR __imp_?cout@std@@3V?$basic_ostream@DU?$char_traits@D@std@@@1@A
	push	ecx
	call	??$?6U?$char_traits@D@std@@@std@@YAAAV?$basic_ostream@DU?$char_traits@D@std@@@0@AAV10@PBD@Z ; std::operator<<<std::char_traits<char> >
	add	esp, 8
	mov	ecx, eax
	call	DWORD PTR __imp_??6?$basic_ostream@DU?$char_traits@D@std@@@std@@QAEAAV01@H@Z
	cmp	edi, esp
	call	__RTC_CheckEsp
	mov	ecx, eax
	call	DWORD PTR __imp_??6?$basic_ostream@DU?$char_traits@D@std@@@std@@QAEAAV01@P6AAAV01@AAV01@@Z@Z
	cmp	esi, esp
	call	__RTC_CheckEsp
$LN3@fps:

; 111  : 
; 112  : }
; 113  : 
; 114  : 
; 115  : 
; 116  :  
; 117  : 
; 118  :  Time1 = Time2;

	mov	eax, DWORD PTR ?Time2@@3V?$time_point@Usteady_clock@chrono@std@@V?$duration@_JU?$ratio@$00$0DLJKMKAA@@std@@@23@@chrono@std@@A
	mov	DWORD PTR ?Time1@@3V?$time_point@Usteady_clock@chrono@std@@V?$duration@_JU?$ratio@$00$0DLJKMKAA@@std@@@23@@chrono@std@@A, eax
	mov	ecx, DWORD PTR ?Time2@@3V?$time_point@Usteady_clock@chrono@std@@V?$duration@_JU?$ratio@$00$0DLJKMKAA@@std@@@23@@chrono@std@@A+4
	mov	DWORD PTR ?Time1@@3V?$time_point@Usteady_clock@chrono@std@@V?$duration@_JU?$ratio@$00$0DLJKMKAA@@std@@@23@@chrono@std@@A+4, ecx

; 119  : 
; 120  :  
; 121  : 
; 122  : }

	push	edx
	mov	ecx, ebp
	push	eax
	lea	edx, DWORD PTR $LN8@fps
	call	@_RTC_CheckStackVars@8
	pop	eax
	pop	edx
	pop	edi
	pop	esi
	pop	ebx
	mov	ecx, DWORD PTR __$ArrayPad$[ebp]
	xor	ecx, ebp
	call	@__security_check_cookie@4
	add	esp, 308				; 00000134H
	cmp	ebp, esp
	call	__RTC_CheckEsp
	mov	esp, ebp
	pop	ebp
	ret	0
$LN8@fps:
	DD	2
	DD	$LN7@fps
$LN7@fps:
	DD	-16					; fffffff0H
	DD	8
	DD	$LN5@fps
	DD	-32					; ffffffe0H
	DD	8
	DD	$LN6@fps
$LN6@fps:
	DB	116					; 00000074H
	DB	105					; 00000069H
	DB	109					; 0000006dH
	DB	101					; 00000065H
	DB	80					; 00000050H
	DB	0
$LN5@fps:
	DB	116					; 00000074H
	DB	105					; 00000069H
	DB	109					; 0000006dH
	DB	101					; 00000065H
	DB	0
?fps@@YAXXZ ENDP					; fps
_TEXT	ENDS
; Function compile flags: /Odtp /RTCsu /ZI
; File D:\Platformer\CPPGame-a38d0db726ab2ff89afdd02c18394bd0c58340c9\CPPGame-a38d0db726ab2ff89afdd02c18394bd0c58340c9\PlatformerGame\src\GameEngine\Start.cpp
;	COMDAT ?Input@@YAXXZ
_TEXT	SEGMENT
_camspeed$ = -104					; size = 4
_L$ = -89						; size = 1
_c$ = -77						; size = 1
_s$ = -65						; size = 1
_w$ = -53						; size = 1
_left$ = -41						; size = 1
_right$ = -29						; size = 1
_down$ = -17						; size = 1
_up$ = -5						; size = 1
?Input@@YAXXZ PROC					; Input, COMDAT

; 33   : void Input() {

	push	ebp
	mov	ebp, esp
	sub	esp, 300				; 0000012cH
	push	ebx
	push	esi
	push	edi
	lea	edi, DWORD PTR [ebp-300]
	mov	ecx, 75					; 0000004bH
	mov	eax, -858993460				; ccccccccH
	rep stosd
	mov	ecx, OFFSET __CBA375CA_Start@cpp
	call	@__CheckForDebuggerJustMyCode@4

; 34   : 	window.Update();

	mov	ecx, OFFSET ?window@@3VWindow@@A	; window
	call	?Update@Window@@QAEXXZ			; Window::Update

; 35   : 
; 36   : 	byte up = window.checkState(GLFW_KEY_UP);

	push	265					; 00000109H
	call	?checkState@Window@@SAEH@Z		; Window::checkState
	add	esp, 4
	mov	BYTE PTR _up$[ebp], al

; 37   : 	byte down = window.checkState(GLFW_KEY_DOWN);

	push	264					; 00000108H
	call	?checkState@Window@@SAEH@Z		; Window::checkState
	add	esp, 4
	mov	BYTE PTR _down$[ebp], al

; 38   : 	byte right = window.checkState(GLFW_KEY_RIGHT);

	push	262					; 00000106H
	call	?checkState@Window@@SAEH@Z		; Window::checkState
	add	esp, 4
	mov	BYTE PTR _right$[ebp], al

; 39   : 	byte left = window.checkState(GLFW_KEY_LEFT);

	push	263					; 00000107H
	call	?checkState@Window@@SAEH@Z		; Window::checkState
	add	esp, 4
	mov	BYTE PTR _left$[ebp], al

; 40   : 	byte w = window.checkState(GLFW_KEY_W);

	push	87					; 00000057H
	call	?checkState@Window@@SAEH@Z		; Window::checkState
	add	esp, 4
	mov	BYTE PTR _w$[ebp], al

; 41   : 	byte s = window.checkState(GLFW_KEY_S);

	push	83					; 00000053H
	call	?checkState@Window@@SAEH@Z		; Window::checkState
	add	esp, 4
	mov	BYTE PTR _s$[ebp], al

; 42   : 	byte c = window.checkState(GLFW_KEY_C);

	push	67					; 00000043H
	call	?checkState@Window@@SAEH@Z		; Window::checkState
	add	esp, 4
	mov	BYTE PTR _c$[ebp], al

; 43   : 	byte L = window.checkState(GLFW_KEY_L);

	push	76					; 0000004cH
	call	?checkState@Window@@SAEH@Z		; Window::checkState
	add	esp, 4
	mov	BYTE PTR _L$[ebp], al

; 44   : 
; 45   : 	float camspeed = 3;

	movss	xmm0, DWORD PTR __real@40400000
	movss	DWORD PTR _camspeed$[ebp], xmm0

; 46   : 
; 47   : 
; 48   : 	if (c > 0) {

	movzx	eax, BYTE PTR _c$[ebp]
	test	eax, eax
	jle	$LN2@Input

; 49   : 		if (up > 0)CamPosition.y -= (DeltaT * camspeed);

	movzx	eax, BYTE PTR _up$[ebp]
	test	eax, eax
	jle	SHORT $LN4@Input
	cvtss2sd xmm0, DWORD PTR _camspeed$[ebp]
	mulsd	xmm0, QWORD PTR ?DeltaT@@3NA
	cvtss2sd xmm1, DWORD PTR ?CamPosition@@3U?$vec@$02M$0A@@glm@@A+4
	subsd	xmm1, xmm0
	cvtsd2ss xmm0, xmm1
	movss	DWORD PTR ?CamPosition@@3U?$vec@$02M$0A@@glm@@A+4, xmm0
$LN4@Input:

; 50   : 		if (down > 0) CamPosition.y += (DeltaT * camspeed);

	movzx	eax, BYTE PTR _down$[ebp]
	test	eax, eax
	jle	SHORT $LN5@Input
	cvtss2sd xmm0, DWORD PTR _camspeed$[ebp]
	mulsd	xmm0, QWORD PTR ?DeltaT@@3NA
	cvtss2sd xmm1, DWORD PTR ?CamPosition@@3U?$vec@$02M$0A@@glm@@A+4
	addsd	xmm1, xmm0
	cvtsd2ss xmm0, xmm1
	movss	DWORD PTR ?CamPosition@@3U?$vec@$02M$0A@@glm@@A+4, xmm0
$LN5@Input:

; 51   : 		if (left > 0) CamPosition.x += (DeltaT * camspeed);

	movzx	eax, BYTE PTR _left$[ebp]
	test	eax, eax
	jle	SHORT $LN6@Input
	cvtss2sd xmm0, DWORD PTR _camspeed$[ebp]
	mulsd	xmm0, QWORD PTR ?DeltaT@@3NA
	cvtss2sd xmm1, DWORD PTR ?CamPosition@@3U?$vec@$02M$0A@@glm@@A
	addsd	xmm1, xmm0
	cvtsd2ss xmm0, xmm1
	movss	DWORD PTR ?CamPosition@@3U?$vec@$02M$0A@@glm@@A, xmm0
$LN6@Input:

; 52   : 		if (right > 0) CamPosition.x -= (DeltaT * camspeed);

	movzx	eax, BYTE PTR _right$[ebp]
	test	eax, eax
	jle	SHORT $LN7@Input
	cvtss2sd xmm0, DWORD PTR _camspeed$[ebp]
	mulsd	xmm0, QWORD PTR ?DeltaT@@3NA
	cvtss2sd xmm1, DWORD PTR ?CamPosition@@3U?$vec@$02M$0A@@glm@@A
	subsd	xmm1, xmm0
	cvtsd2ss xmm0, xmm1
	movss	DWORD PTR ?CamPosition@@3U?$vec@$02M$0A@@glm@@A, xmm0
$LN7@Input:

; 53   : 		if (s > 0) CamPosition.z -= (DeltaT * camspeed);

	movzx	eax, BYTE PTR _s$[ebp]
	test	eax, eax
	jle	SHORT $LN8@Input
	cvtss2sd xmm0, DWORD PTR _camspeed$[ebp]
	mulsd	xmm0, QWORD PTR ?DeltaT@@3NA
	cvtss2sd xmm1, DWORD PTR ?CamPosition@@3U?$vec@$02M$0A@@glm@@A+8
	subsd	xmm1, xmm0
	cvtsd2ss xmm0, xmm1
	movss	DWORD PTR ?CamPosition@@3U?$vec@$02M$0A@@glm@@A+8, xmm0
$LN8@Input:

; 54   : 		if (w > 0) CamPosition.z += (DeltaT * camspeed);

	movzx	eax, BYTE PTR _w$[ebp]
	test	eax, eax
	jle	SHORT $LN9@Input
	cvtss2sd xmm0, DWORD PTR _camspeed$[ebp]
	mulsd	xmm0, QWORD PTR ?DeltaT@@3NA
	cvtss2sd xmm1, DWORD PTR ?CamPosition@@3U?$vec@$02M$0A@@glm@@A+8
	addsd	xmm1, xmm0
	cvtsd2ss xmm0, xmm1
	movss	DWORD PTR ?CamPosition@@3U?$vec@$02M$0A@@glm@@A+8, xmm0
$LN9@Input:
	jmp	$LN21@Input
$LN2@Input:

; 55   : 	}else if(L>0 ) {

	movzx	eax, BYTE PTR _L$[ebp]
	test	eax, eax
	jle	$LN10@Input

; 56   : 		if (up > 0)lightPosition.y -= (DeltaT * camspeed);

	movzx	eax, BYTE PTR _up$[ebp]
	test	eax, eax
	jle	SHORT $LN12@Input
	cvtss2sd xmm0, DWORD PTR _camspeed$[ebp]
	mulsd	xmm0, QWORD PTR ?DeltaT@@3NA
	cvtss2sd xmm1, DWORD PTR ?lightPosition@@3U?$vec@$02M$0A@@glm@@A+4
	subsd	xmm1, xmm0
	cvtsd2ss xmm0, xmm1
	movss	DWORD PTR ?lightPosition@@3U?$vec@$02M$0A@@glm@@A+4, xmm0
$LN12@Input:

; 57   : 		if (down > 0)lightPosition.y += (DeltaT * camspeed);

	movzx	eax, BYTE PTR _down$[ebp]
	test	eax, eax
	jle	SHORT $LN13@Input
	cvtss2sd xmm0, DWORD PTR _camspeed$[ebp]
	mulsd	xmm0, QWORD PTR ?DeltaT@@3NA
	cvtss2sd xmm1, DWORD PTR ?lightPosition@@3U?$vec@$02M$0A@@glm@@A+4
	addsd	xmm1, xmm0
	cvtsd2ss xmm0, xmm1
	movss	DWORD PTR ?lightPosition@@3U?$vec@$02M$0A@@glm@@A+4, xmm0
$LN13@Input:

; 58   : 		if (left > 0)lightPosition.x += (DeltaT * camspeed);

	movzx	eax, BYTE PTR _left$[ebp]
	test	eax, eax
	jle	SHORT $LN14@Input
	cvtss2sd xmm0, DWORD PTR _camspeed$[ebp]
	mulsd	xmm0, QWORD PTR ?DeltaT@@3NA
	cvtss2sd xmm1, DWORD PTR ?lightPosition@@3U?$vec@$02M$0A@@glm@@A
	addsd	xmm1, xmm0
	cvtsd2ss xmm0, xmm1
	movss	DWORD PTR ?lightPosition@@3U?$vec@$02M$0A@@glm@@A, xmm0
$LN14@Input:

; 59   : 		if (right > 0)lightPosition.x -= (DeltaT * camspeed);

	movzx	eax, BYTE PTR _right$[ebp]
	test	eax, eax
	jle	SHORT $LN15@Input
	cvtss2sd xmm0, DWORD PTR _camspeed$[ebp]
	mulsd	xmm0, QWORD PTR ?DeltaT@@3NA
	cvtss2sd xmm1, DWORD PTR ?lightPosition@@3U?$vec@$02M$0A@@glm@@A
	subsd	xmm1, xmm0
	cvtsd2ss xmm0, xmm1
	movss	DWORD PTR ?lightPosition@@3U?$vec@$02M$0A@@glm@@A, xmm0
$LN15@Input:

; 60   : 
; 61   : 		if (s > 0) lightPosition.z -= (DeltaT * camspeed);

	movzx	eax, BYTE PTR _s$[ebp]
	test	eax, eax
	jle	SHORT $LN16@Input
	cvtss2sd xmm0, DWORD PTR _camspeed$[ebp]
	mulsd	xmm0, QWORD PTR ?DeltaT@@3NA
	cvtss2sd xmm1, DWORD PTR ?lightPosition@@3U?$vec@$02M$0A@@glm@@A+8
	subsd	xmm1, xmm0
	cvtsd2ss xmm0, xmm1
	movss	DWORD PTR ?lightPosition@@3U?$vec@$02M$0A@@glm@@A+8, xmm0
$LN16@Input:

; 62   : 		if (w > 0) lightPosition.z += (DeltaT * camspeed);

	movzx	eax, BYTE PTR _w$[ebp]
	test	eax, eax
	jle	SHORT $LN17@Input
	cvtss2sd xmm0, DWORD PTR _camspeed$[ebp]
	mulsd	xmm0, QWORD PTR ?DeltaT@@3NA
	cvtss2sd xmm1, DWORD PTR ?lightPosition@@3U?$vec@$02M$0A@@glm@@A+8
	addsd	xmm1, xmm0
	cvtsd2ss xmm0, xmm1
	movss	DWORD PTR ?lightPosition@@3U?$vec@$02M$0A@@glm@@A+8, xmm0
$LN17@Input:

; 63   : 
; 64   : 	}

	jmp	$LN21@Input
$LN10@Input:

; 65   : 
; 66   : 	else{
; 67   : 	
; 68   : 		if (up > 0)Position.y -= (DeltaT * camspeed);

	movzx	eax, BYTE PTR _up$[ebp]
	test	eax, eax
	jle	SHORT $LN18@Input
	cvtss2sd xmm0, DWORD PTR _camspeed$[ebp]
	mulsd	xmm0, QWORD PTR ?DeltaT@@3NA
	cvtss2sd xmm1, DWORD PTR ?Position@@3U?$vec@$02M$0A@@glm@@A+4
	subsd	xmm1, xmm0
	cvtsd2ss xmm0, xmm1
	movss	DWORD PTR ?Position@@3U?$vec@$02M$0A@@glm@@A+4, xmm0
$LN18@Input:

; 69   : 		if (down > 0)Position.y += (DeltaT * camspeed);

	movzx	eax, BYTE PTR _down$[ebp]
	test	eax, eax
	jle	SHORT $LN19@Input
	cvtss2sd xmm0, DWORD PTR _camspeed$[ebp]
	mulsd	xmm0, QWORD PTR ?DeltaT@@3NA
	cvtss2sd xmm1, DWORD PTR ?Position@@3U?$vec@$02M$0A@@glm@@A+4
	addsd	xmm1, xmm0
	cvtsd2ss xmm0, xmm1
	movss	DWORD PTR ?Position@@3U?$vec@$02M$0A@@glm@@A+4, xmm0
$LN19@Input:

; 70   : 		if (left > 0)Position.x += (DeltaT * camspeed);

	movzx	eax, BYTE PTR _left$[ebp]
	test	eax, eax
	jle	SHORT $LN20@Input
	cvtss2sd xmm0, DWORD PTR _camspeed$[ebp]
	mulsd	xmm0, QWORD PTR ?DeltaT@@3NA
	cvtss2sd xmm1, DWORD PTR ?Position@@3U?$vec@$02M$0A@@glm@@A
	addsd	xmm1, xmm0
	cvtsd2ss xmm0, xmm1
	movss	DWORD PTR ?Position@@3U?$vec@$02M$0A@@glm@@A, xmm0
$LN20@Input:

; 71   : 		if (right > 0)Position.x -= (DeltaT * camspeed);

	movzx	eax, BYTE PTR _right$[ebp]
	test	eax, eax
	jle	SHORT $LN21@Input
	cvtss2sd xmm0, DWORD PTR _camspeed$[ebp]
	mulsd	xmm0, QWORD PTR ?DeltaT@@3NA
	cvtss2sd xmm1, DWORD PTR ?Position@@3U?$vec@$02M$0A@@glm@@A
	subsd	xmm1, xmm0
	cvtsd2ss xmm0, xmm1
	movss	DWORD PTR ?Position@@3U?$vec@$02M$0A@@glm@@A, xmm0
$LN21@Input:

; 72   : 
; 73   : 	
; 74   : 	}
; 75   : 
; 76   : }

	pop	edi
	pop	esi
	pop	ebx
	add	esp, 300				; 0000012cH
	cmp	ebp, esp
	call	__RTC_CheckEsp
	mov	esp, ebp
	pop	ebp
	ret	0
?Input@@YAXXZ ENDP					; Input
_TEXT	ENDS
; Function compile flags: /Odtp /RTCsu /ZI
; File D:\Platformer\CPPGame-a38d0db726ab2ff89afdd02c18394bd0c58340c9\CPPGame-a38d0db726ab2ff89afdd02c18394bd0c58340c9\PlatformerGame\src\GameEngine\Start.cpp
;	COMDAT ??__Enow@@YAXXZ
text$di	SEGMENT
??__Enow@@YAXXZ PROC					; `dynamic initializer for 'now'', COMDAT

; 28   : std::chrono::time_point<std::chrono::high_resolution_clock> Time1, Time2,lastFrame,now;

	push	ebp
	mov	ebp, esp
	sub	esp, 192				; 000000c0H
	push	ebx
	push	esi
	push	edi
	lea	edi, DWORD PTR [ebp-192]
	mov	ecx, 48					; 00000030H
	mov	eax, -858993460				; ccccccccH
	rep stosd
	mov	ecx, OFFSET __CBA375CA_Start@cpp
	call	@__CheckForDebuggerJustMyCode@4
	mov	ecx, OFFSET ?now@@3V?$time_point@Usteady_clock@chrono@std@@V?$duration@_JU?$ratio@$00$0DLJKMKAA@@std@@@23@@chrono@std@@A ; now
	call	??0?$time_point@Usteady_clock@chrono@std@@V?$duration@_JU?$ratio@$00$0DLJKMKAA@@std@@@23@@chrono@std@@QAE@XZ ; std::chrono::time_point<std::chrono::steady_clock,std::chrono::duration<__int64,std::ratio<1,1000000000> > >::time_point<std::chrono::steady_clock,std::chrono::duration<__int64,std::ratio<1,1000000000> > >
	pop	edi
	pop	esi
	pop	ebx
	add	esp, 192				; 000000c0H
	cmp	ebp, esp
	call	__RTC_CheckEsp
	mov	esp, ebp
	pop	ebp
	ret	0
??__Enow@@YAXXZ ENDP					; `dynamic initializer for 'now''
text$di	ENDS
; Function compile flags: /Odtp /RTCsu /ZI
; File D:\Platformer\CPPGame-a38d0db726ab2ff89afdd02c18394bd0c58340c9\CPPGame-a38d0db726ab2ff89afdd02c18394bd0c58340c9\PlatformerGame\src\GameEngine\Start.cpp
;	COMDAT ??__ElastFrame@@YAXXZ
text$di	SEGMENT
??__ElastFrame@@YAXXZ PROC				; `dynamic initializer for 'lastFrame'', COMDAT

; 28   : std::chrono::time_point<std::chrono::high_resolution_clock> Time1, Time2,lastFrame,now;

	push	ebp
	mov	ebp, esp
	sub	esp, 192				; 000000c0H
	push	ebx
	push	esi
	push	edi
	lea	edi, DWORD PTR [ebp-192]
	mov	ecx, 48					; 00000030H
	mov	eax, -858993460				; ccccccccH
	rep stosd
	mov	ecx, OFFSET __CBA375CA_Start@cpp
	call	@__CheckForDebuggerJustMyCode@4
	mov	ecx, OFFSET ?lastFrame@@3V?$time_point@Usteady_clock@chrono@std@@V?$duration@_JU?$ratio@$00$0DLJKMKAA@@std@@@23@@chrono@std@@A ; lastFrame
	call	??0?$time_point@Usteady_clock@chrono@std@@V?$duration@_JU?$ratio@$00$0DLJKMKAA@@std@@@23@@chrono@std@@QAE@XZ ; std::chrono::time_point<std::chrono::steady_clock,std::chrono::duration<__int64,std::ratio<1,1000000000> > >::time_point<std::chrono::steady_clock,std::chrono::duration<__int64,std::ratio<1,1000000000> > >
	pop	edi
	pop	esi
	pop	ebx
	add	esp, 192				; 000000c0H
	cmp	ebp, esp
	call	__RTC_CheckEsp
	mov	esp, ebp
	pop	ebp
	ret	0
??__ElastFrame@@YAXXZ ENDP				; `dynamic initializer for 'lastFrame''
text$di	ENDS
; Function compile flags: /Odtp /RTCsu /ZI
; File D:\Platformer\CPPGame-a38d0db726ab2ff89afdd02c18394bd0c58340c9\CPPGame-a38d0db726ab2ff89afdd02c18394bd0c58340c9\PlatformerGame\src\GameEngine\Start.cpp
;	COMDAT ??__ETime2@@YAXXZ
text$di	SEGMENT
??__ETime2@@YAXXZ PROC					; `dynamic initializer for 'Time2'', COMDAT

; 28   : std::chrono::time_point<std::chrono::high_resolution_clock> Time1, Time2,lastFrame,now;

	push	ebp
	mov	ebp, esp
	sub	esp, 192				; 000000c0H
	push	ebx
	push	esi
	push	edi
	lea	edi, DWORD PTR [ebp-192]
	mov	ecx, 48					; 00000030H
	mov	eax, -858993460				; ccccccccH
	rep stosd
	mov	ecx, OFFSET __CBA375CA_Start@cpp
	call	@__CheckForDebuggerJustMyCode@4
	mov	ecx, OFFSET ?Time2@@3V?$time_point@Usteady_clock@chrono@std@@V?$duration@_JU?$ratio@$00$0DLJKMKAA@@std@@@23@@chrono@std@@A ; Time2
	call	??0?$time_point@Usteady_clock@chrono@std@@V?$duration@_JU?$ratio@$00$0DLJKMKAA@@std@@@23@@chrono@std@@QAE@XZ ; std::chrono::time_point<std::chrono::steady_clock,std::chrono::duration<__int64,std::ratio<1,1000000000> > >::time_point<std::chrono::steady_clock,std::chrono::duration<__int64,std::ratio<1,1000000000> > >
	pop	edi
	pop	esi
	pop	ebx
	add	esp, 192				; 000000c0H
	cmp	ebp, esp
	call	__RTC_CheckEsp
	mov	esp, ebp
	pop	ebp
	ret	0
??__ETime2@@YAXXZ ENDP					; `dynamic initializer for 'Time2''
text$di	ENDS
; Function compile flags: /Odtp /RTCsu /ZI
; File D:\Platformer\CPPGame-a38d0db726ab2ff89afdd02c18394bd0c58340c9\CPPGame-a38d0db726ab2ff89afdd02c18394bd0c58340c9\PlatformerGame\src\GameEngine\Start.cpp
;	COMDAT ??__ETime1@@YAXXZ
text$di	SEGMENT
??__ETime1@@YAXXZ PROC					; `dynamic initializer for 'Time1'', COMDAT

; 28   : std::chrono::time_point<std::chrono::high_resolution_clock> Time1, Time2,lastFrame,now;

	push	ebp
	mov	ebp, esp
	sub	esp, 192				; 000000c0H
	push	ebx
	push	esi
	push	edi
	lea	edi, DWORD PTR [ebp-192]
	mov	ecx, 48					; 00000030H
	mov	eax, -858993460				; ccccccccH
	rep stosd
	mov	ecx, OFFSET __CBA375CA_Start@cpp
	call	@__CheckForDebuggerJustMyCode@4
	mov	ecx, OFFSET ?Time1@@3V?$time_point@Usteady_clock@chrono@std@@V?$duration@_JU?$ratio@$00$0DLJKMKAA@@std@@@23@@chrono@std@@A ; Time1
	call	??0?$time_point@Usteady_clock@chrono@std@@V?$duration@_JU?$ratio@$00$0DLJKMKAA@@std@@@23@@chrono@std@@QAE@XZ ; std::chrono::time_point<std::chrono::steady_clock,std::chrono::duration<__int64,std::ratio<1,1000000000> > >::time_point<std::chrono::steady_clock,std::chrono::duration<__int64,std::ratio<1,1000000000> > >
	pop	edi
	pop	esi
	pop	ebx
	add	esp, 192				; 000000c0H
	cmp	ebp, esp
	call	__RTC_CheckEsp
	mov	esp, ebp
	pop	ebp
	ret	0
??__ETime1@@YAXXZ ENDP					; `dynamic initializer for 'Time1''
text$di	ENDS
; Function compile flags: /Odtp /RTCsu /ZI
; File D:\Platformer\CPPGame-a38d0db726ab2ff89afdd02c18394bd0c58340c9\CPPGame-a38d0db726ab2ff89afdd02c18394bd0c58340c9\PlatformerGame\src\GameEngine\Start.cpp
;	COMDAT ??__Ewindow@@YAXXZ
text$di	SEGMENT
??__Ewindow@@YAXXZ PROC					; `dynamic initializer for 'window'', COMDAT

; 25   : Window window(width, height, "Engine3d");

	push	ebp
	mov	ebp, esp
	sub	esp, 192				; 000000c0H
	push	ebx
	push	esi
	push	edi
	lea	edi, DWORD PTR [ebp-192]
	mov	ecx, 48					; 00000030H
	mov	eax, -858993460				; ccccccccH
	rep stosd
	mov	ecx, OFFSET __CBA375CA_Start@cpp
	call	@__CheckForDebuggerJustMyCode@4
	push	12					; 0000000cH
	mov	ecx, OFFSET ?window@@3VWindow@@A	; window
	call	?__autoclassinit2@Window@@QAEXI@Z
	push	OFFSET ??_C@_08CEDOAIBO@Engine3d@
	push	480					; 000001e0H
	push	640					; 00000280H
	mov	ecx, OFFSET ?window@@3VWindow@@A	; window
	call	??0Window@@QAE@HHQBD@Z			; Window::Window
	pop	edi
	pop	esi
	pop	ebx
	add	esp, 192				; 000000c0H
	cmp	ebp, esp
	call	__RTC_CheckEsp
	mov	esp, ebp
	pop	ebp
	ret	0
??__Ewindow@@YAXXZ ENDP					; `dynamic initializer for 'window''
text$di	ENDS
; Function compile flags: /Odtp /RTCsu /ZI
; File D:\Platformer\CPPGame-a38d0db726ab2ff89afdd02c18394bd0c58340c9\CPPGame-a38d0db726ab2ff89afdd02c18394bd0c58340c9\PlatformerGame\src\GameEngine\Start.cpp
;	COMDAT ??__ElightPosition@@YAXXZ
text$di	SEGMENT
??__ElightPosition@@YAXXZ PROC				; `dynamic initializer for 'lightPosition'', COMDAT

; 22   : glm::vec3 CamPosition,Position(0,0,-25),lightPosition(0);

	push	ebp
	mov	ebp, esp
	sub	esp, 192				; 000000c0H
	push	ebx
	push	esi
	push	edi
	lea	edi, DWORD PTR [ebp-192]
	mov	ecx, 48					; 00000030H
	mov	eax, -858993460				; ccccccccH
	rep stosd
	mov	ecx, OFFSET __CBA375CA_Start@cpp
	call	@__CheckForDebuggerJustMyCode@4
	push	ecx
	xorps	xmm0, xmm0
	movss	DWORD PTR [esp], xmm0
	mov	ecx, OFFSET ?lightPosition@@3U?$vec@$02M$0A@@glm@@A ; lightPosition
	call	??0?$vec@$02M$0A@@glm@@QAE@M@Z		; glm::vec<3,float,0>::vec<3,float,0>
	pop	edi
	pop	esi
	pop	ebx
	add	esp, 192				; 000000c0H
	cmp	ebp, esp
	call	__RTC_CheckEsp
	mov	esp, ebp
	pop	ebp
	ret	0
??__ElightPosition@@YAXXZ ENDP				; `dynamic initializer for 'lightPosition''
text$di	ENDS
; Function compile flags: /Odtp /RTCsu /ZI
; File D:\Platformer\CPPGame-a38d0db726ab2ff89afdd02c18394bd0c58340c9\CPPGame-a38d0db726ab2ff89afdd02c18394bd0c58340c9\PlatformerGame\src\GameEngine\HeaderFiles\Vendor\glm\detail\type_vec3.inl
;	COMDAT ??$?0HHH@?$vec@$02M$0A@@glm@@QAE@HHH@Z
_TEXT	SEGMENT
_this$ = -8						; size = 4
__x$ = 8						; size = 4
__y$ = 12						; size = 4
__z$ = 16						; size = 4
??$?0HHH@?$vec@$02M$0A@@glm@@QAE@HHH@Z PROC		; glm::vec<3,float,0>::vec<3,float,0><int,int,int>, COMDAT
; _this$ = ecx

; 57   : 	{}

	push	ebp
	mov	ebp, esp
	sub	esp, 204				; 000000ccH
	push	ebx
	push	esi
	push	edi
	push	ecx
	lea	edi, DWORD PTR [ebp-204]
	mov	ecx, 51					; 00000033H
	mov	eax, -858993460				; ccccccccH
	rep stosd
	pop	ecx
	mov	DWORD PTR _this$[ebp], ecx
	mov	ecx, OFFSET __05392703_type_vec3@inl
	call	@__CheckForDebuggerJustMyCode@4

; 54   : 		: x(static_cast<T>(_x))

	cvtsi2ss xmm0, DWORD PTR __x$[ebp]
	mov	eax, DWORD PTR _this$[ebp]
	movss	DWORD PTR [eax], xmm0

; 55   : 		, y(static_cast<T>(_y))

	cvtsi2ss xmm0, DWORD PTR __y$[ebp]
	mov	eax, DWORD PTR _this$[ebp]
	movss	DWORD PTR [eax+4], xmm0

; 56   : 		, z(static_cast<T>(_z))

	cvtsi2ss xmm0, DWORD PTR __z$[ebp]
	mov	eax, DWORD PTR _this$[ebp]
	movss	DWORD PTR [eax+8], xmm0

; 57   : 	{}

	mov	eax, DWORD PTR _this$[ebp]
	pop	edi
	pop	esi
	pop	ebx
	add	esp, 204				; 000000ccH
	cmp	ebp, esp
	call	__RTC_CheckEsp
	mov	esp, ebp
	pop	ebp
	ret	12					; 0000000cH
??$?0HHH@?$vec@$02M$0A@@glm@@QAE@HHH@Z ENDP		; glm::vec<3,float,0>::vec<3,float,0><int,int,int>
_TEXT	ENDS
; Function compile flags: /Odtp /RTCsu /ZI
; File D:\Platformer\CPPGame-a38d0db726ab2ff89afdd02c18394bd0c58340c9\CPPGame-a38d0db726ab2ff89afdd02c18394bd0c58340c9\PlatformerGame\src\GameEngine\Start.cpp
;	COMDAT ??__EPosition@@YAXXZ
text$di	SEGMENT
??__EPosition@@YAXXZ PROC				; `dynamic initializer for 'Position'', COMDAT

; 22   : glm::vec3 CamPosition,Position(0,0,-25),lightPosition(0);

	push	ebp
	mov	ebp, esp
	sub	esp, 192				; 000000c0H
	push	ebx
	push	esi
	push	edi
	lea	edi, DWORD PTR [ebp-192]
	mov	ecx, 48					; 00000030H
	mov	eax, -858993460				; ccccccccH
	rep stosd
	mov	ecx, OFFSET __CBA375CA_Start@cpp
	call	@__CheckForDebuggerJustMyCode@4
	push	-25					; ffffffe7H
	push	0
	push	0
	mov	ecx, OFFSET ?Position@@3U?$vec@$02M$0A@@glm@@A ; Position
	call	??$?0HHH@?$vec@$02M$0A@@glm@@QAE@HHH@Z	; glm::vec<3,float,0>::vec<3,float,0><int,int,int>
	pop	edi
	pop	esi
	pop	ebx
	add	esp, 192				; 000000c0H
	cmp	ebp, esp
	call	__RTC_CheckEsp
	mov	esp, ebp
	pop	ebp
	ret	0
??__EPosition@@YAXXZ ENDP				; `dynamic initializer for 'Position''
text$di	ENDS
; Function compile flags: /Odtp /RTCsu /ZI
;	COMDAT ?__autoclassinit2@objLoader@@QAEXI@Z
_TEXT	SEGMENT
_this$ = -8						; size = 4
_classSize$ = 8						; size = 4
?__autoclassinit2@objLoader@@QAEXI@Z PROC		; objLoader::__autoclassinit2, COMDAT
; _this$ = ecx
	push	ebp
	mov	ebp, esp
	sub	esp, 204				; 000000ccH
	push	ebx
	push	esi
	push	edi
	push	ecx
	lea	edi, DWORD PTR [ebp-204]
	mov	ecx, 51					; 00000033H
	mov	eax, -858993460				; ccccccccH
	rep stosd
	pop	ecx
	mov	DWORD PTR _this$[ebp], ecx
	mov	eax, DWORD PTR _classSize$[ebp]
	push	eax
	push	0
	mov	ecx, DWORD PTR _this$[ebp]
	push	ecx
	call	_memset
	add	esp, 12					; 0000000cH
	pop	edi
	pop	esi
	pop	ebx
	add	esp, 204				; 000000ccH
	cmp	ebp, esp
	call	__RTC_CheckEsp
	mov	esp, ebp
	pop	ebp
	ret	4
?__autoclassinit2@objLoader@@QAEXI@Z ENDP		; objLoader::__autoclassinit2
_TEXT	ENDS
; Function compile flags: /Odtp /RTCsu /ZI
;	COMDAT ??1objLoader@@QAE@XZ
_TEXT	SEGMENT
_this$ = -8						; size = 4
??1objLoader@@QAE@XZ PROC				; objLoader::~objLoader, COMDAT
; _this$ = ecx
	push	ebp
	mov	ebp, esp
	sub	esp, 204				; 000000ccH
	push	ebx
	push	esi
	push	edi
	push	ecx
	lea	edi, DWORD PTR [ebp-204]
	mov	ecx, 51					; 00000033H
	mov	eax, -858993460				; ccccccccH
	rep stosd
	pop	ecx
	mov	DWORD PTR _this$[ebp], ecx
	mov	ecx, DWORD PTR _this$[ebp]
	add	ecx, 64					; 00000040H
	call	??1?$vector@U?$vec@$02I$0A@@glm@@V?$allocator@U?$vec@$02I$0A@@glm@@@std@@@std@@QAE@XZ ; std::vector<glm::vec<3,unsigned int,0>,std::allocator<glm::vec<3,unsigned int,0> > >::~vector<glm::vec<3,unsigned int,0>,std::allocator<glm::vec<3,unsigned int,0> > >
	mov	ecx, DWORD PTR _this$[ebp]
	add	ecx, 48					; 00000030H
	call	??1?$vector@U?$vec@$02M$0A@@glm@@V?$allocator@U?$vec@$02M$0A@@glm@@@std@@@std@@QAE@XZ ; std::vector<glm::vec<3,float,0>,std::allocator<glm::vec<3,float,0> > >::~vector<glm::vec<3,float,0>,std::allocator<glm::vec<3,float,0> > >
	mov	ecx, DWORD PTR _this$[ebp]
	add	ecx, 32					; 00000020H
	call	??1?$vector@U?$vec@$01M$0A@@glm@@V?$allocator@U?$vec@$01M$0A@@glm@@@std@@@std@@QAE@XZ ; std::vector<glm::vec<2,float,0>,std::allocator<glm::vec<2,float,0> > >::~vector<glm::vec<2,float,0>,std::allocator<glm::vec<2,float,0> > >
	mov	ecx, DWORD PTR _this$[ebp]
	add	ecx, 16					; 00000010H
	call	??1?$vector@U?$vec@$02M$0A@@glm@@V?$allocator@U?$vec@$02M$0A@@glm@@@std@@@std@@QAE@XZ ; std::vector<glm::vec<3,float,0>,std::allocator<glm::vec<3,float,0> > >::~vector<glm::vec<3,float,0>,std::allocator<glm::vec<3,float,0> > >
	pop	edi
	pop	esi
	pop	ebx
	add	esp, 204				; 000000ccH
	cmp	ebp, esp
	call	__RTC_CheckEsp
	mov	esp, ebp
	pop	ebp
	ret	0
??1objLoader@@QAE@XZ ENDP				; objLoader::~objLoader
_TEXT	ENDS
; Function compile flags: /Odtp /RTCsu /ZI
; File C:\Program Files (x86)\Microsoft Visual Studio\2019\Community\VC\Tools\MSVC\14.24.28314\include\xmemory
;	COMDAT ?_Get_first@?$_Compressed_pair@V?$allocator@U?$vec@$02I$0A@@glm@@@std@@V?$_Vector_val@U?$_Simple_types@U?$vec@$02I$0A@@glm@@@std@@@2@$00@std@@QAEAAV?$allocator@U?$vec@$02I$0A@@glm@@@2@XZ
_TEXT	SEGMENT
_this$ = -20						; size = 4
__$EHRec$ = -12						; size = 12
?_Get_first@?$_Compressed_pair@V?$allocator@U?$vec@$02I$0A@@glm@@@std@@V?$_Vector_val@U?$_Simple_types@U?$vec@$02I$0A@@glm@@@std@@@2@$00@std@@QAEAAV?$allocator@U?$vec@$02I$0A@@glm@@@2@XZ PROC ; std::_Compressed_pair<std::allocator<glm::vec<3,unsigned int,0> >,std::_Vector_val<std::_Simple_types<glm::vec<3,unsigned int,0> > >,1>::_Get_first, COMDAT
; _this$ = ecx

; 1335 :     _Ty1& _Get_first() noexcept {

	push	ebp
	mov	ebp, esp
	push	-1
	push	__ehhandler$?_Get_first@?$_Compressed_pair@V?$allocator@U?$vec@$02I$0A@@glm@@@std@@V?$_Vector_val@U?$_Simple_types@U?$vec@$02I$0A@@glm@@@std@@@2@$00@std@@QAEAAV?$allocator@U?$vec@$02I$0A@@glm@@@2@XZ
	mov	eax, DWORD PTR fs:0
	push	eax
	sub	esp, 204				; 000000ccH
	push	ebx
	push	esi
	push	edi
	push	ecx
	lea	edi, DWORD PTR [ebp-216]
	mov	ecx, 51					; 00000033H
	mov	eax, -858993460				; ccccccccH
	rep stosd
	pop	ecx
	mov	eax, DWORD PTR ___security_cookie
	xor	eax, ebp
	push	eax
	lea	eax, DWORD PTR __$EHRec$[ebp]
	mov	DWORD PTR fs:0, eax
	mov	DWORD PTR _this$[ebp], ecx
	mov	ecx, OFFSET __B1B75AB9_xmemory
	call	@__CheckForDebuggerJustMyCode@4

; 1336 :         return *this;

	mov	eax, DWORD PTR _this$[ebp]

; 1337 :     }

	mov	ecx, DWORD PTR __$EHRec$[ebp]
	mov	DWORD PTR fs:0, ecx
	pop	ecx
	pop	edi
	pop	esi
	pop	ebx
	add	esp, 216				; 000000d8H
	cmp	ebp, esp
	call	__RTC_CheckEsp
	mov	esp, ebp
	pop	ebp
	ret	0
_TEXT	ENDS
;	COMDAT text$x
text$x	SEGMENT
__ehhandler$?_Get_first@?$_Compressed_pair@V?$allocator@U?$vec@$02I$0A@@glm@@@std@@V?$_Vector_val@U?$_Simple_types@U?$vec@$02I$0A@@glm@@@std@@@2@$00@std@@QAEAAV?$allocator@U?$vec@$02I$0A@@glm@@@2@XZ:
	mov	edx, DWORD PTR [esp+8]
	lea	eax, DWORD PTR [edx+12]
	mov	ecx, DWORD PTR [edx-220]
	xor	ecx, eax
	call	@__security_check_cookie@4
	mov	eax, OFFSET __ehfuncinfo$?_Get_first@?$_Compressed_pair@V?$allocator@U?$vec@$02I$0A@@glm@@@std@@V?$_Vector_val@U?$_Simple_types@U?$vec@$02I$0A@@glm@@@std@@@2@$00@std@@QAEAAV?$allocator@U?$vec@$02I$0A@@glm@@@2@XZ
	jmp	___CxxFrameHandler3
text$x	ENDS
?_Get_first@?$_Compressed_pair@V?$allocator@U?$vec@$02I$0A@@glm@@@std@@V?$_Vector_val@U?$_Simple_types@U?$vec@$02I$0A@@glm@@@std@@@2@$00@std@@QAEAAV?$allocator@U?$vec@$02I$0A@@glm@@@2@XZ ENDP ; std::_Compressed_pair<std::allocator<glm::vec<3,unsigned int,0> >,std::_Vector_val<std::_Simple_types<glm::vec<3,unsigned int,0> > >,1>::_Get_first
; Function compile flags: /Odtp /RTCsu /ZI
; File C:\Program Files (x86)\Microsoft Visual Studio\2019\Community\VC\Tools\MSVC\14.24.28314\include\vector
;	COMDAT ?_Getal@?$vector@U?$vec@$02I$0A@@glm@@V?$allocator@U?$vec@$02I$0A@@glm@@@std@@@std@@AAEAAV?$allocator@U?$vec@$02I$0A@@glm@@@2@XZ
_TEXT	SEGMENT
_this$ = -20						; size = 4
__$EHRec$ = -12						; size = 12
?_Getal@?$vector@U?$vec@$02I$0A@@glm@@V?$allocator@U?$vec@$02I$0A@@glm@@@std@@@std@@AAEAAV?$allocator@U?$vec@$02I$0A@@glm@@@2@XZ PROC ; std::vector<glm::vec<3,unsigned int,0>,std::allocator<glm::vec<3,unsigned int,0> > >::_Getal, COMDAT
; _this$ = ecx

; 1735 :     _Alty& _Getal() noexcept {

	push	ebp
	mov	ebp, esp
	push	-1
	push	__ehhandler$?_Getal@?$vector@U?$vec@$02I$0A@@glm@@V?$allocator@U?$vec@$02I$0A@@glm@@@std@@@std@@AAEAAV?$allocator@U?$vec@$02I$0A@@glm@@@2@XZ
	mov	eax, DWORD PTR fs:0
	push	eax
	sub	esp, 204				; 000000ccH
	push	ebx
	push	esi
	push	edi
	push	ecx
	lea	edi, DWORD PTR [ebp-216]
	mov	ecx, 51					; 00000033H
	mov	eax, -858993460				; ccccccccH
	rep stosd
	pop	ecx
	mov	eax, DWORD PTR ___security_cookie
	xor	eax, ebp
	push	eax
	lea	eax, DWORD PTR __$EHRec$[ebp]
	mov	DWORD PTR fs:0, eax
	mov	DWORD PTR _this$[ebp], ecx
	mov	ecx, OFFSET __805570D0_vector
	call	@__CheckForDebuggerJustMyCode@4

; 1736 :         return _Mypair._Get_first();

	mov	ecx, DWORD PTR _this$[ebp]
	call	?_Get_first@?$_Compressed_pair@V?$allocator@U?$vec@$02I$0A@@glm@@@std@@V?$_Vector_val@U?$_Simple_types@U?$vec@$02I$0A@@glm@@@std@@@2@$00@std@@QAEAAV?$allocator@U?$vec@$02I$0A@@glm@@@2@XZ ; std::_Compressed_pair<std::allocator<glm::vec<3,unsigned int,0> >,std::_Vector_val<std::_Simple_types<glm::vec<3,unsigned int,0> > >,1>::_Get_first

; 1737 :     }

	mov	ecx, DWORD PTR __$EHRec$[ebp]
	mov	DWORD PTR fs:0, ecx
	pop	ecx
	pop	edi
	pop	esi
	pop	ebx
	add	esp, 216				; 000000d8H
	cmp	ebp, esp
	call	__RTC_CheckEsp
	mov	esp, ebp
	pop	ebp
	ret	0
_TEXT	ENDS
;	COMDAT text$x
text$x	SEGMENT
__ehhandler$?_Getal@?$vector@U?$vec@$02I$0A@@glm@@V?$allocator@U?$vec@$02I$0A@@glm@@@std@@@std@@AAEAAV?$allocator@U?$vec@$02I$0A@@glm@@@2@XZ:
	mov	edx, DWORD PTR [esp+8]
	lea	eax, DWORD PTR [edx+12]
	mov	ecx, DWORD PTR [edx-220]
	xor	ecx, eax
	call	@__security_check_cookie@4
	mov	eax, OFFSET __ehfuncinfo$?_Getal@?$vector@U?$vec@$02I$0A@@glm@@V?$allocator@U?$vec@$02I$0A@@glm@@@std@@@std@@AAEAAV?$allocator@U?$vec@$02I$0A@@glm@@@2@XZ
	jmp	___CxxFrameHandler3
text$x	ENDS
?_Getal@?$vector@U?$vec@$02I$0A@@glm@@V?$allocator@U?$vec@$02I$0A@@glm@@@std@@@std@@AAEAAV?$allocator@U?$vec@$02I$0A@@glm@@@2@XZ ENDP ; std::vector<glm::vec<3,unsigned int,0>,std::allocator<glm::vec<3,unsigned int,0> > >::_Getal
; Function compile flags: /Odtp /RTCsu /ZI
; File C:\Program Files (x86)\Microsoft Visual Studio\2019\Community\VC\Tools\MSVC\14.24.28314\include\vector
;	COMDAT ?_Tidy@?$vector@U?$vec@$02I$0A@@glm@@V?$allocator@U?$vec@$02I$0A@@glm@@@std@@@std@@AAEXXZ
_TEXT	SEGMENT
__Myend$ = -68						; size = 4
__Mylast$ = -56						; size = 4
__Myfirst$ = -44					; size = 4
__My_data$ = -32					; size = 4
_this$ = -20						; size = 4
__$EHRec$ = -12						; size = 12
?_Tidy@?$vector@U?$vec@$02I$0A@@glm@@V?$allocator@U?$vec@$02I$0A@@glm@@@std@@@std@@AAEXXZ PROC ; std::vector<glm::vec<3,unsigned int,0>,std::allocator<glm::vec<3,unsigned int,0> > >::_Tidy, COMDAT
; _this$ = ecx

; 1689 :     void _Tidy() noexcept { // free all storage

	push	ebp
	mov	ebp, esp
	push	-1
	push	__ehhandler$?_Tidy@?$vector@U?$vec@$02I$0A@@glm@@V?$allocator@U?$vec@$02I$0A@@glm@@@std@@@std@@AAEXXZ
	mov	eax, DWORD PTR fs:0
	push	eax
	sub	esp, 252				; 000000fcH
	push	ebx
	push	esi
	push	edi
	push	ecx
	lea	edi, DWORD PTR [ebp-264]
	mov	ecx, 63					; 0000003fH
	mov	eax, -858993460				; ccccccccH
	rep stosd
	pop	ecx
	mov	eax, DWORD PTR ___security_cookie
	xor	eax, ebp
	push	eax
	lea	eax, DWORD PTR __$EHRec$[ebp]
	mov	DWORD PTR fs:0, eax
	mov	DWORD PTR _this$[ebp], ecx
	mov	ecx, OFFSET __805570D0_vector
	call	@__CheckForDebuggerJustMyCode@4

; 1690 :         auto& _My_data    = _Mypair._Myval2;

	mov	eax, DWORD PTR _this$[ebp]
	mov	DWORD PTR __My_data$[ebp], eax

; 1691 :         pointer& _Myfirst = _My_data._Myfirst;

	mov	eax, DWORD PTR __My_data$[ebp]
	add	eax, 4
	mov	DWORD PTR __Myfirst$[ebp], eax

; 1692 :         pointer& _Mylast  = _My_data._Mylast;

	mov	eax, DWORD PTR __My_data$[ebp]
	add	eax, 8
	mov	DWORD PTR __Mylast$[ebp], eax

; 1693 :         pointer& _Myend   = _My_data._Myend;

	mov	eax, DWORD PTR __My_data$[ebp]
	add	eax, 12					; 0000000cH
	mov	DWORD PTR __Myend$[ebp], eax

; 1694 : 
; 1695 :         _My_data._Orphan_all();

	mov	ecx, DWORD PTR __My_data$[ebp]
	call	?_Orphan_all@_Container_base12@std@@QAEXXZ ; std::_Container_base12::_Orphan_all

; 1696 : 
; 1697 :         if (_Myfirst) { // destroy and deallocate old array

	mov	eax, DWORD PTR __Myfirst$[ebp]
	cmp	DWORD PTR [eax], 0
	je	SHORT $LN3@Tidy

; 1698 :             _Destroy(_Myfirst, _Mylast);

	mov	eax, DWORD PTR __Mylast$[ebp]
	mov	ecx, DWORD PTR [eax]
	push	ecx
	mov	edx, DWORD PTR __Myfirst$[ebp]
	mov	eax, DWORD PTR [edx]
	push	eax
	mov	ecx, DWORD PTR _this$[ebp]
	call	?_Destroy@?$vector@U?$vec@$02I$0A@@glm@@V?$allocator@U?$vec@$02I$0A@@glm@@@std@@@std@@AAEXPAU?$vec@$02I$0A@@glm@@0@Z ; std::vector<glm::vec<3,unsigned int,0>,std::allocator<glm::vec<3,unsigned int,0> > >::_Destroy

; 1699 :             _Getal().deallocate(_Myfirst, static_cast<size_type>(_Myend - _Myfirst));

	mov	eax, DWORD PTR __Myend$[ebp]
	mov	ecx, DWORD PTR __Myfirst$[ebp]
	mov	eax, DWORD PTR [eax]
	sub	eax, DWORD PTR [ecx]
	cdq
	mov	ecx, 12					; 0000000cH
	idiv	ecx
	push	eax
	mov	edx, DWORD PTR __Myfirst$[ebp]
	mov	eax, DWORD PTR [edx]
	push	eax
	mov	ecx, DWORD PTR _this$[ebp]
	call	?_Getal@?$vector@U?$vec@$02I$0A@@glm@@V?$allocator@U?$vec@$02I$0A@@glm@@@std@@@std@@AAEAAV?$allocator@U?$vec@$02I$0A@@glm@@@2@XZ ; std::vector<glm::vec<3,unsigned int,0>,std::allocator<glm::vec<3,unsigned int,0> > >::_Getal
	mov	ecx, eax
	call	?deallocate@?$allocator@U?$vec@$02I$0A@@glm@@@std@@QAEXQAU?$vec@$02I$0A@@glm@@I@Z ; std::allocator<glm::vec<3,unsigned int,0> >::deallocate

; 1700 : 
; 1701 :             _Myfirst = pointer();

	mov	eax, DWORD PTR __Myfirst$[ebp]
	mov	DWORD PTR [eax], 0

; 1702 :             _Mylast  = pointer();

	mov	eax, DWORD PTR __Mylast$[ebp]
	mov	DWORD PTR [eax], 0

; 1703 :             _Myend   = pointer();

	mov	eax, DWORD PTR __Myend$[ebp]
	mov	DWORD PTR [eax], 0
$LN3@Tidy:

; 1704 :         }
; 1705 :     }

	mov	ecx, DWORD PTR __$EHRec$[ebp]
	mov	DWORD PTR fs:0, ecx
	pop	ecx
	pop	edi
	pop	esi
	pop	ebx
	add	esp, 264				; 00000108H
	cmp	ebp, esp
	call	__RTC_CheckEsp
	mov	esp, ebp
	pop	ebp
	ret	0
_TEXT	ENDS
;	COMDAT text$x
text$x	SEGMENT
__ehhandler$?_Tidy@?$vector@U?$vec@$02I$0A@@glm@@V?$allocator@U?$vec@$02I$0A@@glm@@@std@@@std@@AAEXXZ:
	mov	edx, DWORD PTR [esp+8]
	lea	eax, DWORD PTR [edx+12]
	mov	ecx, DWORD PTR [edx-268]
	xor	ecx, eax
	call	@__security_check_cookie@4
	mov	eax, OFFSET __ehfuncinfo$?_Tidy@?$vector@U?$vec@$02I$0A@@glm@@V?$allocator@U?$vec@$02I$0A@@glm@@@std@@@std@@AAEXXZ
	jmp	___CxxFrameHandler3
text$x	ENDS
?_Tidy@?$vector@U?$vec@$02I$0A@@glm@@V?$allocator@U?$vec@$02I$0A@@glm@@@std@@@std@@AAEXXZ ENDP ; std::vector<glm::vec<3,unsigned int,0>,std::allocator<glm::vec<3,unsigned int,0> > >::_Tidy
; Function compile flags: /Odtp /RTCsu /ZI
; File C:\Program Files (x86)\Microsoft Visual Studio\2019\Community\VC\Tools\MSVC\14.24.28314\include\vector
;	COMDAT ?_Destroy@?$vector@U?$vec@$02I$0A@@glm@@V?$allocator@U?$vec@$02I$0A@@glm@@@std@@@std@@AAEXPAU?$vec@$02I$0A@@glm@@0@Z
_TEXT	SEGMENT
_this$ = -8						; size = 4
__First$ = 8						; size = 4
__Last$ = 12						; size = 4
?_Destroy@?$vector@U?$vec@$02I$0A@@glm@@V?$allocator@U?$vec@$02I$0A@@glm@@@std@@@std@@AAEXPAU?$vec@$02I$0A@@glm@@0@Z PROC ; std::vector<glm::vec<3,unsigned int,0>,std::allocator<glm::vec<3,unsigned int,0> > >::_Destroy, COMDAT
; _this$ = ecx

; 1614 :     void _Destroy(pointer _First, pointer _Last) { // destroy [_First, _Last) using allocator

	push	ebp
	mov	ebp, esp
	sub	esp, 204				; 000000ccH
	push	ebx
	push	esi
	push	edi
	push	ecx
	lea	edi, DWORD PTR [ebp-204]
	mov	ecx, 51					; 00000033H
	mov	eax, -858993460				; ccccccccH
	rep stosd
	pop	ecx
	mov	DWORD PTR _this$[ebp], ecx
	mov	ecx, OFFSET __805570D0_vector
	call	@__CheckForDebuggerJustMyCode@4

; 1615 :         _Destroy_range(_First, _Last, _Getal());

	mov	ecx, DWORD PTR _this$[ebp]
	call	?_Getal@?$vector@U?$vec@$02I$0A@@glm@@V?$allocator@U?$vec@$02I$0A@@glm@@@std@@@std@@AAEAAV?$allocator@U?$vec@$02I$0A@@glm@@@2@XZ ; std::vector<glm::vec<3,unsigned int,0>,std::allocator<glm::vec<3,unsigned int,0> > >::_Getal
	push	eax
	mov	eax, DWORD PTR __Last$[ebp]
	push	eax
	mov	ecx, DWORD PTR __First$[ebp]
	push	ecx
	call	??$_Destroy_range@V?$allocator@U?$vec@$02I$0A@@glm@@@std@@@std@@YAXPAU?$vec@$02I$0A@@glm@@QAU12@AAV?$allocator@U?$vec@$02I$0A@@glm@@@0@@Z ; std::_Destroy_range<std::allocator<glm::vec<3,unsigned int,0> > >
	add	esp, 12					; 0000000cH

; 1616 :     }

	pop	edi
	pop	esi
	pop	ebx
	add	esp, 204				; 000000ccH
	cmp	ebp, esp
	call	__RTC_CheckEsp
	mov	esp, ebp
	pop	ebp
	ret	8
?_Destroy@?$vector@U?$vec@$02I$0A@@glm@@V?$allocator@U?$vec@$02I$0A@@glm@@@std@@@std@@AAEXPAU?$vec@$02I$0A@@glm@@0@Z ENDP ; std::vector<glm::vec<3,unsigned int,0>,std::allocator<glm::vec<3,unsigned int,0> > >::_Destroy
_TEXT	ENDS
; Function compile flags: /Odtp /RTCsu /ZI
; File C:\Program Files (x86)\Microsoft Visual Studio\2019\Community\VC\Tools\MSVC\14.24.28314\include\vector
;	COMDAT ??1?$vector@U?$vec@$02I$0A@@glm@@V?$allocator@U?$vec@$02I$0A@@glm@@@std@@@std@@QAE@XZ
_TEXT	SEGMENT
$T2 = -252						; size = 4
_$S1$ = -45						; size = 1
__Alproxy$ = -36					; size = 4
_this$ = -24						; size = 4
__$ArrayPad$ = -16					; size = 4
__$EHRec$ = -12						; size = 12
??1?$vector@U?$vec@$02I$0A@@glm@@V?$allocator@U?$vec@$02I$0A@@glm@@@std@@@std@@QAE@XZ PROC ; std::vector<glm::vec<3,unsigned int,0>,std::allocator<glm::vec<3,unsigned int,0> > >::~vector<glm::vec<3,unsigned int,0>,std::allocator<glm::vec<3,unsigned int,0> > >, COMDAT
; _this$ = ecx

; 673  :     ~vector() noexcept {

	push	ebp
	mov	ebp, esp
	push	-1
	push	__ehhandler$??1?$vector@U?$vec@$02I$0A@@glm@@V?$allocator@U?$vec@$02I$0A@@glm@@@std@@@std@@QAE@XZ
	mov	eax, DWORD PTR fs:0
	push	eax
	sub	esp, 244				; 000000f4H
	push	ebx
	push	esi
	push	edi
	push	ecx
	lea	edi, DWORD PTR [ebp-256]
	mov	ecx, 61					; 0000003dH
	mov	eax, -858993460				; ccccccccH
	rep stosd
	pop	ecx
	mov	eax, DWORD PTR ___security_cookie
	xor	eax, ebp
	mov	DWORD PTR __$ArrayPad$[ebp], eax
	push	eax
	lea	eax, DWORD PTR __$EHRec$[ebp]
	mov	DWORD PTR fs:0, eax
	mov	DWORD PTR _this$[ebp], ecx
	mov	ecx, OFFSET __805570D0_vector
	call	@__CheckForDebuggerJustMyCode@4

; 674  :         _Tidy();

	mov	ecx, DWORD PTR _this$[ebp]
	call	?_Tidy@?$vector@U?$vec@$02I$0A@@glm@@V?$allocator@U?$vec@$02I$0A@@glm@@@std@@@std@@AAEXXZ ; std::vector<glm::vec<3,unsigned int,0>,std::allocator<glm::vec<3,unsigned int,0> > >::_Tidy

; 675  : #if _ITERATOR_DEBUG_LEVEL != 0
; 676  :         auto&& _Alproxy = _GET_PROXY_ALLOCATOR(_Alty, _Getal());

	mov	ecx, DWORD PTR _this$[ebp]
	call	?_Getal@?$vector@U?$vec@$02I$0A@@glm@@V?$allocator@U?$vec@$02I$0A@@glm@@@std@@@std@@AAEAAV?$allocator@U?$vec@$02I$0A@@glm@@@2@XZ ; std::vector<glm::vec<3,unsigned int,0>,std::allocator<glm::vec<3,unsigned int,0> > >::_Getal
	push	eax
	lea	ecx, DWORD PTR _$S1$[ebp]
	call	??$?0U?$vec@$02I$0A@@glm@@@?$allocator@U_Container_proxy@std@@@std@@QAE@ABV?$allocator@U?$vec@$02I$0A@@glm@@@1@@Z ; std::allocator<std::_Container_proxy>::allocator<std::_Container_proxy><glm::vec<3,unsigned int,0> >
	lea	eax, DWORD PTR _$S1$[ebp]
	mov	DWORD PTR __Alproxy$[ebp], eax

; 677  :         _Delete_plain_internal(_Alproxy, _STD exchange(_Mypair._Myval2._Myproxy, nullptr));

	mov	DWORD PTR $T2[ebp], 0
	lea	eax, DWORD PTR $T2[ebp]
	push	eax
	mov	ecx, DWORD PTR _this$[ebp]
	push	ecx
	call	??$exchange@PAU_Container_proxy@std@@$$T@std@@YAPAU_Container_proxy@0@AAPAU10@$$QA$$T@Z ; std::exchange<std::_Container_proxy *,std::nullptr_t>
	add	esp, 8
	push	eax
	mov	edx, DWORD PTR __Alproxy$[ebp]
	push	edx
	call	??$_Delete_plain_internal@V?$allocator@U_Container_proxy@std@@@std@@@std@@YAXAAV?$allocator@U_Container_proxy@std@@@0@QAU_Container_proxy@0@@Z ; std::_Delete_plain_internal<std::allocator<std::_Container_proxy> >
	add	esp, 8

; 678  : #endif // _ITERATOR_DEBUG_LEVEL != 0
; 679  :     }

	push	edx
	mov	ecx, ebp
	push	eax
	lea	edx, DWORD PTR $LN6@vector
	call	@_RTC_CheckStackVars@8
	pop	eax
	pop	edx
	mov	ecx, DWORD PTR __$EHRec$[ebp]
	mov	DWORD PTR fs:0, ecx
	pop	ecx
	pop	edi
	pop	esi
	pop	ebx
	mov	ecx, DWORD PTR __$ArrayPad$[ebp]
	xor	ecx, ebp
	call	@__security_check_cookie@4
	add	esp, 256				; 00000100H
	cmp	ebp, esp
	call	__RTC_CheckEsp
	mov	esp, ebp
	pop	ebp
	ret	0
	npad	2
$LN6@vector:
	DD	1
	DD	$LN5@vector
$LN5@vector:
	DD	-45					; ffffffd3H
	DD	1
	DD	$LN3@vector
$LN3@vector:
	DB	36					; 00000024H
	DB	83					; 00000053H
	DB	49					; 00000031H
	DB	0
_TEXT	ENDS
;	COMDAT text$x
text$x	SEGMENT
__ehhandler$??1?$vector@U?$vec@$02I$0A@@glm@@V?$allocator@U?$vec@$02I$0A@@glm@@@std@@@std@@QAE@XZ:
	mov	edx, DWORD PTR [esp+8]
	lea	eax, DWORD PTR [edx+12]
	mov	ecx, DWORD PTR [edx-260]
	xor	ecx, eax
	call	@__security_check_cookie@4
	mov	ecx, DWORD PTR [edx-4]
	xor	ecx, eax
	call	@__security_check_cookie@4
	mov	eax, OFFSET __ehfuncinfo$??1?$vector@U?$vec@$02I$0A@@glm@@V?$allocator@U?$vec@$02I$0A@@glm@@@std@@@std@@QAE@XZ
	jmp	___CxxFrameHandler3
text$x	ENDS
??1?$vector@U?$vec@$02I$0A@@glm@@V?$allocator@U?$vec@$02I$0A@@glm@@@std@@@std@@QAE@XZ ENDP ; std::vector<glm::vec<3,unsigned int,0>,std::allocator<glm::vec<3,unsigned int,0> > >::~vector<glm::vec<3,unsigned int,0>,std::allocator<glm::vec<3,unsigned int,0> > >
; Function compile flags: /Odtp /RTCsu /ZI
; File C:\Program Files (x86)\Microsoft Visual Studio\2019\Community\VC\Tools\MSVC\14.24.28314\include\xmemory
;	COMDAT ?deallocate@?$allocator@U?$vec@$02I$0A@@glm@@@std@@QAEXQAU?$vec@$02I$0A@@glm@@I@Z
_TEXT	SEGMENT
_this$ = -8						; size = 4
__Ptr$ = 8						; size = 4
__Count$ = 12						; size = 4
?deallocate@?$allocator@U?$vec@$02I$0A@@glm@@@std@@QAEXQAU?$vec@$02I$0A@@glm@@I@Z PROC ; std::allocator<glm::vec<3,unsigned int,0> >::deallocate, COMDAT
; _this$ = ecx

; 778  :     void deallocate(_Ty* const _Ptr, const size_t _Count) {

	push	ebp
	mov	ebp, esp
	sub	esp, 204				; 000000ccH
	push	ebx
	push	esi
	push	edi
	push	ecx
	lea	edi, DWORD PTR [ebp-204]
	mov	ecx, 51					; 00000033H
	mov	eax, -858993460				; ccccccccH
	rep stosd
	pop	ecx
	mov	DWORD PTR _this$[ebp], ecx
	mov	ecx, OFFSET __B1B75AB9_xmemory
	call	@__CheckForDebuggerJustMyCode@4

; 779  :         // no overflow check on the following multiply; we assume _Allocate did that check
; 780  :         _Deallocate<_New_alignof<_Ty>>(_Ptr, sizeof(_Ty) * _Count);

	imul	eax, DWORD PTR __Count$[ebp], 12
	push	eax
	mov	ecx, DWORD PTR __Ptr$[ebp]
	push	ecx
	call	??$_Deallocate@$07$0A@@std@@YAXPAXI@Z	; std::_Deallocate<8,0>
	add	esp, 8

; 781  :     }

	pop	edi
	pop	esi
	pop	ebx
	add	esp, 204				; 000000ccH
	cmp	ebp, esp
	call	__RTC_CheckEsp
	mov	esp, ebp
	pop	ebp
	ret	8
?deallocate@?$allocator@U?$vec@$02I$0A@@glm@@@std@@QAEXQAU?$vec@$02I$0A@@glm@@I@Z ENDP ; std::allocator<glm::vec<3,unsigned int,0> >::deallocate
_TEXT	ENDS
; Function compile flags: /Odtp /RTCsu /ZI
; File C:\Program Files (x86)\Microsoft Visual Studio\2019\Community\VC\Tools\MSVC\14.24.28314\include\xmemory
;	COMDAT ?_Get_first@?$_Compressed_pair@V?$allocator@U?$vec@$01M$0A@@glm@@@std@@V?$_Vector_val@U?$_Simple_types@U?$vec@$01M$0A@@glm@@@std@@@2@$00@std@@QAEAAV?$allocator@U?$vec@$01M$0A@@glm@@@2@XZ
_TEXT	SEGMENT
_this$ = -20						; size = 4
__$EHRec$ = -12						; size = 12
?_Get_first@?$_Compressed_pair@V?$allocator@U?$vec@$01M$0A@@glm@@@std@@V?$_Vector_val@U?$_Simple_types@U?$vec@$01M$0A@@glm@@@std@@@2@$00@std@@QAEAAV?$allocator@U?$vec@$01M$0A@@glm@@@2@XZ PROC ; std::_Compressed_pair<std::allocator<glm::vec<2,float,0> >,std::_Vector_val<std::_Simple_types<glm::vec<2,float,0> > >,1>::_Get_first, COMDAT
; _this$ = ecx

; 1335 :     _Ty1& _Get_first() noexcept {

	push	ebp
	mov	ebp, esp
	push	-1
	push	__ehhandler$?_Get_first@?$_Compressed_pair@V?$allocator@U?$vec@$01M$0A@@glm@@@std@@V?$_Vector_val@U?$_Simple_types@U?$vec@$01M$0A@@glm@@@std@@@2@$00@std@@QAEAAV?$allocator@U?$vec@$01M$0A@@glm@@@2@XZ
	mov	eax, DWORD PTR fs:0
	push	eax
	sub	esp, 204				; 000000ccH
	push	ebx
	push	esi
	push	edi
	push	ecx
	lea	edi, DWORD PTR [ebp-216]
	mov	ecx, 51					; 00000033H
	mov	eax, -858993460				; ccccccccH
	rep stosd
	pop	ecx
	mov	eax, DWORD PTR ___security_cookie
	xor	eax, ebp
	push	eax
	lea	eax, DWORD PTR __$EHRec$[ebp]
	mov	DWORD PTR fs:0, eax
	mov	DWORD PTR _this$[ebp], ecx
	mov	ecx, OFFSET __B1B75AB9_xmemory
	call	@__CheckForDebuggerJustMyCode@4

; 1336 :         return *this;

	mov	eax, DWORD PTR _this$[ebp]

; 1337 :     }

	mov	ecx, DWORD PTR __$EHRec$[ebp]
	mov	DWORD PTR fs:0, ecx
	pop	ecx
	pop	edi
	pop	esi
	pop	ebx
	add	esp, 216				; 000000d8H
	cmp	ebp, esp
	call	__RTC_CheckEsp
	mov	esp, ebp
	pop	ebp
	ret	0
_TEXT	ENDS
;	COMDAT text$x
text$x	SEGMENT
__ehhandler$?_Get_first@?$_Compressed_pair@V?$allocator@U?$vec@$01M$0A@@glm@@@std@@V?$_Vector_val@U?$_Simple_types@U?$vec@$01M$0A@@glm@@@std@@@2@$00@std@@QAEAAV?$allocator@U?$vec@$01M$0A@@glm@@@2@XZ:
	mov	edx, DWORD PTR [esp+8]
	lea	eax, DWORD PTR [edx+12]
	mov	ecx, DWORD PTR [edx-220]
	xor	ecx, eax
	call	@__security_check_cookie@4
	mov	eax, OFFSET __ehfuncinfo$?_Get_first@?$_Compressed_pair@V?$allocator@U?$vec@$01M$0A@@glm@@@std@@V?$_Vector_val@U?$_Simple_types@U?$vec@$01M$0A@@glm@@@std@@@2@$00@std@@QAEAAV?$allocator@U?$vec@$01M$0A@@glm@@@2@XZ
	jmp	___CxxFrameHandler3
text$x	ENDS
?_Get_first@?$_Compressed_pair@V?$allocator@U?$vec@$01M$0A@@glm@@@std@@V?$_Vector_val@U?$_Simple_types@U?$vec@$01M$0A@@glm@@@std@@@2@$00@std@@QAEAAV?$allocator@U?$vec@$01M$0A@@glm@@@2@XZ ENDP ; std::_Compressed_pair<std::allocator<glm::vec<2,float,0> >,std::_Vector_val<std::_Simple_types<glm::vec<2,float,0> > >,1>::_Get_first
; Function compile flags: /Odtp /RTCsu /ZI
; File C:\Program Files (x86)\Microsoft Visual Studio\2019\Community\VC\Tools\MSVC\14.24.28314\include\vector
;	COMDAT ?_Getal@?$vector@U?$vec@$01M$0A@@glm@@V?$allocator@U?$vec@$01M$0A@@glm@@@std@@@std@@AAEAAV?$allocator@U?$vec@$01M$0A@@glm@@@2@XZ
_TEXT	SEGMENT
_this$ = -20						; size = 4
__$EHRec$ = -12						; size = 12
?_Getal@?$vector@U?$vec@$01M$0A@@glm@@V?$allocator@U?$vec@$01M$0A@@glm@@@std@@@std@@AAEAAV?$allocator@U?$vec@$01M$0A@@glm@@@2@XZ PROC ; std::vector<glm::vec<2,float,0>,std::allocator<glm::vec<2,float,0> > >::_Getal, COMDAT
; _this$ = ecx

; 1735 :     _Alty& _Getal() noexcept {

	push	ebp
	mov	ebp, esp
	push	-1
	push	__ehhandler$?_Getal@?$vector@U?$vec@$01M$0A@@glm@@V?$allocator@U?$vec@$01M$0A@@glm@@@std@@@std@@AAEAAV?$allocator@U?$vec@$01M$0A@@glm@@@2@XZ
	mov	eax, DWORD PTR fs:0
	push	eax
	sub	esp, 204				; 000000ccH
	push	ebx
	push	esi
	push	edi
	push	ecx
	lea	edi, DWORD PTR [ebp-216]
	mov	ecx, 51					; 00000033H
	mov	eax, -858993460				; ccccccccH
	rep stosd
	pop	ecx
	mov	eax, DWORD PTR ___security_cookie
	xor	eax, ebp
	push	eax
	lea	eax, DWORD PTR __$EHRec$[ebp]
	mov	DWORD PTR fs:0, eax
	mov	DWORD PTR _this$[ebp], ecx
	mov	ecx, OFFSET __805570D0_vector
	call	@__CheckForDebuggerJustMyCode@4

; 1736 :         return _Mypair._Get_first();

	mov	ecx, DWORD PTR _this$[ebp]
	call	?_Get_first@?$_Compressed_pair@V?$allocator@U?$vec@$01M$0A@@glm@@@std@@V?$_Vector_val@U?$_Simple_types@U?$vec@$01M$0A@@glm@@@std@@@2@$00@std@@QAEAAV?$allocator@U?$vec@$01M$0A@@glm@@@2@XZ ; std::_Compressed_pair<std::allocator<glm::vec<2,float,0> >,std::_Vector_val<std::_Simple_types<glm::vec<2,float,0> > >,1>::_Get_first

; 1737 :     }

	mov	ecx, DWORD PTR __$EHRec$[ebp]
	mov	DWORD PTR fs:0, ecx
	pop	ecx
	pop	edi
	pop	esi
	pop	ebx
	add	esp, 216				; 000000d8H
	cmp	ebp, esp
	call	__RTC_CheckEsp
	mov	esp, ebp
	pop	ebp
	ret	0
_TEXT	ENDS
;	COMDAT text$x
text$x	SEGMENT
__ehhandler$?_Getal@?$vector@U?$vec@$01M$0A@@glm@@V?$allocator@U?$vec@$01M$0A@@glm@@@std@@@std@@AAEAAV?$allocator@U?$vec@$01M$0A@@glm@@@2@XZ:
	mov	edx, DWORD PTR [esp+8]
	lea	eax, DWORD PTR [edx+12]
	mov	ecx, DWORD PTR [edx-220]
	xor	ecx, eax
	call	@__security_check_cookie@4
	mov	eax, OFFSET __ehfuncinfo$?_Getal@?$vector@U?$vec@$01M$0A@@glm@@V?$allocator@U?$vec@$01M$0A@@glm@@@std@@@std@@AAEAAV?$allocator@U?$vec@$01M$0A@@glm@@@2@XZ
	jmp	___CxxFrameHandler3
text$x	ENDS
?_Getal@?$vector@U?$vec@$01M$0A@@glm@@V?$allocator@U?$vec@$01M$0A@@glm@@@std@@@std@@AAEAAV?$allocator@U?$vec@$01M$0A@@glm@@@2@XZ ENDP ; std::vector<glm::vec<2,float,0>,std::allocator<glm::vec<2,float,0> > >::_Getal
; Function compile flags: /Odtp /RTCsu /ZI
; File C:\Program Files (x86)\Microsoft Visual Studio\2019\Community\VC\Tools\MSVC\14.24.28314\include\vector
;	COMDAT ?_Tidy@?$vector@U?$vec@$01M$0A@@glm@@V?$allocator@U?$vec@$01M$0A@@glm@@@std@@@std@@AAEXXZ
_TEXT	SEGMENT
__Myend$ = -68						; size = 4
__Mylast$ = -56						; size = 4
__Myfirst$ = -44					; size = 4
__My_data$ = -32					; size = 4
_this$ = -20						; size = 4
__$EHRec$ = -12						; size = 12
?_Tidy@?$vector@U?$vec@$01M$0A@@glm@@V?$allocator@U?$vec@$01M$0A@@glm@@@std@@@std@@AAEXXZ PROC ; std::vector<glm::vec<2,float,0>,std::allocator<glm::vec<2,float,0> > >::_Tidy, COMDAT
; _this$ = ecx

; 1689 :     void _Tidy() noexcept { // free all storage

	push	ebp
	mov	ebp, esp
	push	-1
	push	__ehhandler$?_Tidy@?$vector@U?$vec@$01M$0A@@glm@@V?$allocator@U?$vec@$01M$0A@@glm@@@std@@@std@@AAEXXZ
	mov	eax, DWORD PTR fs:0
	push	eax
	sub	esp, 252				; 000000fcH
	push	ebx
	push	esi
	push	edi
	push	ecx
	lea	edi, DWORD PTR [ebp-264]
	mov	ecx, 63					; 0000003fH
	mov	eax, -858993460				; ccccccccH
	rep stosd
	pop	ecx
	mov	eax, DWORD PTR ___security_cookie
	xor	eax, ebp
	push	eax
	lea	eax, DWORD PTR __$EHRec$[ebp]
	mov	DWORD PTR fs:0, eax
	mov	DWORD PTR _this$[ebp], ecx
	mov	ecx, OFFSET __805570D0_vector
	call	@__CheckForDebuggerJustMyCode@4

; 1690 :         auto& _My_data    = _Mypair._Myval2;

	mov	eax, DWORD PTR _this$[ebp]
	mov	DWORD PTR __My_data$[ebp], eax

; 1691 :         pointer& _Myfirst = _My_data._Myfirst;

	mov	eax, DWORD PTR __My_data$[ebp]
	add	eax, 4
	mov	DWORD PTR __Myfirst$[ebp], eax

; 1692 :         pointer& _Mylast  = _My_data._Mylast;

	mov	eax, DWORD PTR __My_data$[ebp]
	add	eax, 8
	mov	DWORD PTR __Mylast$[ebp], eax

; 1693 :         pointer& _Myend   = _My_data._Myend;

	mov	eax, DWORD PTR __My_data$[ebp]
	add	eax, 12					; 0000000cH
	mov	DWORD PTR __Myend$[ebp], eax

; 1694 : 
; 1695 :         _My_data._Orphan_all();

	mov	ecx, DWORD PTR __My_data$[ebp]
	call	?_Orphan_all@_Container_base12@std@@QAEXXZ ; std::_Container_base12::_Orphan_all

; 1696 : 
; 1697 :         if (_Myfirst) { // destroy and deallocate old array

	mov	eax, DWORD PTR __Myfirst$[ebp]
	cmp	DWORD PTR [eax], 0
	je	SHORT $LN3@Tidy

; 1698 :             _Destroy(_Myfirst, _Mylast);

	mov	eax, DWORD PTR __Mylast$[ebp]
	mov	ecx, DWORD PTR [eax]
	push	ecx
	mov	edx, DWORD PTR __Myfirst$[ebp]
	mov	eax, DWORD PTR [edx]
	push	eax
	mov	ecx, DWORD PTR _this$[ebp]
	call	?_Destroy@?$vector@U?$vec@$01M$0A@@glm@@V?$allocator@U?$vec@$01M$0A@@glm@@@std@@@std@@AAEXPAU?$vec@$01M$0A@@glm@@0@Z ; std::vector<glm::vec<2,float,0>,std::allocator<glm::vec<2,float,0> > >::_Destroy

; 1699 :             _Getal().deallocate(_Myfirst, static_cast<size_type>(_Myend - _Myfirst));

	mov	eax, DWORD PTR __Myend$[ebp]
	mov	ecx, DWORD PTR __Myfirst$[ebp]
	mov	edx, DWORD PTR [eax]
	sub	edx, DWORD PTR [ecx]
	sar	edx, 3
	push	edx
	mov	eax, DWORD PTR __Myfirst$[ebp]
	mov	ecx, DWORD PTR [eax]
	push	ecx
	mov	ecx, DWORD PTR _this$[ebp]
	call	?_Getal@?$vector@U?$vec@$01M$0A@@glm@@V?$allocator@U?$vec@$01M$0A@@glm@@@std@@@std@@AAEAAV?$allocator@U?$vec@$01M$0A@@glm@@@2@XZ ; std::vector<glm::vec<2,float,0>,std::allocator<glm::vec<2,float,0> > >::_Getal
	mov	ecx, eax
	call	?deallocate@?$allocator@U?$vec@$01M$0A@@glm@@@std@@QAEXQAU?$vec@$01M$0A@@glm@@I@Z ; std::allocator<glm::vec<2,float,0> >::deallocate

; 1700 : 
; 1701 :             _Myfirst = pointer();

	mov	eax, DWORD PTR __Myfirst$[ebp]
	mov	DWORD PTR [eax], 0

; 1702 :             _Mylast  = pointer();

	mov	eax, DWORD PTR __Mylast$[ebp]
	mov	DWORD PTR [eax], 0

; 1703 :             _Myend   = pointer();

	mov	eax, DWORD PTR __Myend$[ebp]
	mov	DWORD PTR [eax], 0
$LN3@Tidy:

; 1704 :         }
; 1705 :     }

	mov	ecx, DWORD PTR __$EHRec$[ebp]
	mov	DWORD PTR fs:0, ecx
	pop	ecx
	pop	edi
	pop	esi
	pop	ebx
	add	esp, 264				; 00000108H
	cmp	ebp, esp
	call	__RTC_CheckEsp
	mov	esp, ebp
	pop	ebp
	ret	0
_TEXT	ENDS
;	COMDAT text$x
text$x	SEGMENT
__ehhandler$?_Tidy@?$vector@U?$vec@$01M$0A@@glm@@V?$allocator@U?$vec@$01M$0A@@glm@@@std@@@std@@AAEXXZ:
	mov	edx, DWORD PTR [esp+8]
	lea	eax, DWORD PTR [edx+12]
	mov	ecx, DWORD PTR [edx-268]
	xor	ecx, eax
	call	@__security_check_cookie@4
	mov	eax, OFFSET __ehfuncinfo$?_Tidy@?$vector@U?$vec@$01M$0A@@glm@@V?$allocator@U?$vec@$01M$0A@@glm@@@std@@@std@@AAEXXZ
	jmp	___CxxFrameHandler3
text$x	ENDS
?_Tidy@?$vector@U?$vec@$01M$0A@@glm@@V?$allocator@U?$vec@$01M$0A@@glm@@@std@@@std@@AAEXXZ ENDP ; std::vector<glm::vec<2,float,0>,std::allocator<glm::vec<2,float,0> > >::_Tidy
; Function compile flags: /Odtp /RTCsu /ZI
; File C:\Program Files (x86)\Microsoft Visual Studio\2019\Community\VC\Tools\MSVC\14.24.28314\include\vector
;	COMDAT ?_Destroy@?$vector@U?$vec@$01M$0A@@glm@@V?$allocator@U?$vec@$01M$0A@@glm@@@std@@@std@@AAEXPAU?$vec@$01M$0A@@glm@@0@Z
_TEXT	SEGMENT
_this$ = -8						; size = 4
__First$ = 8						; size = 4
__Last$ = 12						; size = 4
?_Destroy@?$vector@U?$vec@$01M$0A@@glm@@V?$allocator@U?$vec@$01M$0A@@glm@@@std@@@std@@AAEXPAU?$vec@$01M$0A@@glm@@0@Z PROC ; std::vector<glm::vec<2,float,0>,std::allocator<glm::vec<2,float,0> > >::_Destroy, COMDAT
; _this$ = ecx

; 1614 :     void _Destroy(pointer _First, pointer _Last) { // destroy [_First, _Last) using allocator

	push	ebp
	mov	ebp, esp
	sub	esp, 204				; 000000ccH
	push	ebx
	push	esi
	push	edi
	push	ecx
	lea	edi, DWORD PTR [ebp-204]
	mov	ecx, 51					; 00000033H
	mov	eax, -858993460				; ccccccccH
	rep stosd
	pop	ecx
	mov	DWORD PTR _this$[ebp], ecx
	mov	ecx, OFFSET __805570D0_vector
	call	@__CheckForDebuggerJustMyCode@4

; 1615 :         _Destroy_range(_First, _Last, _Getal());

	mov	ecx, DWORD PTR _this$[ebp]
	call	?_Getal@?$vector@U?$vec@$01M$0A@@glm@@V?$allocator@U?$vec@$01M$0A@@glm@@@std@@@std@@AAEAAV?$allocator@U?$vec@$01M$0A@@glm@@@2@XZ ; std::vector<glm::vec<2,float,0>,std::allocator<glm::vec<2,float,0> > >::_Getal
	push	eax
	mov	eax, DWORD PTR __Last$[ebp]
	push	eax
	mov	ecx, DWORD PTR __First$[ebp]
	push	ecx
	call	??$_Destroy_range@V?$allocator@U?$vec@$01M$0A@@glm@@@std@@@std@@YAXPAU?$vec@$01M$0A@@glm@@QAU12@AAV?$allocator@U?$vec@$01M$0A@@glm@@@0@@Z ; std::_Destroy_range<std::allocator<glm::vec<2,float,0> > >
	add	esp, 12					; 0000000cH

; 1616 :     }

	pop	edi
	pop	esi
	pop	ebx
	add	esp, 204				; 000000ccH
	cmp	ebp, esp
	call	__RTC_CheckEsp
	mov	esp, ebp
	pop	ebp
	ret	8
?_Destroy@?$vector@U?$vec@$01M$0A@@glm@@V?$allocator@U?$vec@$01M$0A@@glm@@@std@@@std@@AAEXPAU?$vec@$01M$0A@@glm@@0@Z ENDP ; std::vector<glm::vec<2,float,0>,std::allocator<glm::vec<2,float,0> > >::_Destroy
_TEXT	ENDS
; Function compile flags: /Odtp /RTCsu /ZI
; File C:\Program Files (x86)\Microsoft Visual Studio\2019\Community\VC\Tools\MSVC\14.24.28314\include\vector
;	COMDAT ??1?$vector@U?$vec@$01M$0A@@glm@@V?$allocator@U?$vec@$01M$0A@@glm@@@std@@@std@@QAE@XZ
_TEXT	SEGMENT
$T2 = -252						; size = 4
_$S2$ = -45						; size = 1
__Alproxy$ = -36					; size = 4
_this$ = -24						; size = 4
__$ArrayPad$ = -16					; size = 4
__$EHRec$ = -12						; size = 12
??1?$vector@U?$vec@$01M$0A@@glm@@V?$allocator@U?$vec@$01M$0A@@glm@@@std@@@std@@QAE@XZ PROC ; std::vector<glm::vec<2,float,0>,std::allocator<glm::vec<2,float,0> > >::~vector<glm::vec<2,float,0>,std::allocator<glm::vec<2,float,0> > >, COMDAT
; _this$ = ecx

; 673  :     ~vector() noexcept {

	push	ebp
	mov	ebp, esp
	push	-1
	push	__ehhandler$??1?$vector@U?$vec@$01M$0A@@glm@@V?$allocator@U?$vec@$01M$0A@@glm@@@std@@@std@@QAE@XZ
	mov	eax, DWORD PTR fs:0
	push	eax
	sub	esp, 244				; 000000f4H
	push	ebx
	push	esi
	push	edi
	push	ecx
	lea	edi, DWORD PTR [ebp-256]
	mov	ecx, 61					; 0000003dH
	mov	eax, -858993460				; ccccccccH
	rep stosd
	pop	ecx
	mov	eax, DWORD PTR ___security_cookie
	xor	eax, ebp
	mov	DWORD PTR __$ArrayPad$[ebp], eax
	push	eax
	lea	eax, DWORD PTR __$EHRec$[ebp]
	mov	DWORD PTR fs:0, eax
	mov	DWORD PTR _this$[ebp], ecx
	mov	ecx, OFFSET __805570D0_vector
	call	@__CheckForDebuggerJustMyCode@4

; 674  :         _Tidy();

	mov	ecx, DWORD PTR _this$[ebp]
	call	?_Tidy@?$vector@U?$vec@$01M$0A@@glm@@V?$allocator@U?$vec@$01M$0A@@glm@@@std@@@std@@AAEXXZ ; std::vector<glm::vec<2,float,0>,std::allocator<glm::vec<2,float,0> > >::_Tidy

; 675  : #if _ITERATOR_DEBUG_LEVEL != 0
; 676  :         auto&& _Alproxy = _GET_PROXY_ALLOCATOR(_Alty, _Getal());

	mov	ecx, DWORD PTR _this$[ebp]
	call	?_Getal@?$vector@U?$vec@$01M$0A@@glm@@V?$allocator@U?$vec@$01M$0A@@glm@@@std@@@std@@AAEAAV?$allocator@U?$vec@$01M$0A@@glm@@@2@XZ ; std::vector<glm::vec<2,float,0>,std::allocator<glm::vec<2,float,0> > >::_Getal
	push	eax
	lea	ecx, DWORD PTR _$S2$[ebp]
	call	??$?0U?$vec@$01M$0A@@glm@@@?$allocator@U_Container_proxy@std@@@std@@QAE@ABV?$allocator@U?$vec@$01M$0A@@glm@@@1@@Z ; std::allocator<std::_Container_proxy>::allocator<std::_Container_proxy><glm::vec<2,float,0> >
	lea	eax, DWORD PTR _$S2$[ebp]
	mov	DWORD PTR __Alproxy$[ebp], eax

; 677  :         _Delete_plain_internal(_Alproxy, _STD exchange(_Mypair._Myval2._Myproxy, nullptr));

	mov	DWORD PTR $T2[ebp], 0
	lea	eax, DWORD PTR $T2[ebp]
	push	eax
	mov	ecx, DWORD PTR _this$[ebp]
	push	ecx
	call	??$exchange@PAU_Container_proxy@std@@$$T@std@@YAPAU_Container_proxy@0@AAPAU10@$$QA$$T@Z ; std::exchange<std::_Container_proxy *,std::nullptr_t>
	add	esp, 8
	push	eax
	mov	edx, DWORD PTR __Alproxy$[ebp]
	push	edx
	call	??$_Delete_plain_internal@V?$allocator@U_Container_proxy@std@@@std@@@std@@YAXAAV?$allocator@U_Container_proxy@std@@@0@QAU_Container_proxy@0@@Z ; std::_Delete_plain_internal<std::allocator<std::_Container_proxy> >
	add	esp, 8

; 678  : #endif // _ITERATOR_DEBUG_LEVEL != 0
; 679  :     }

	push	edx
	mov	ecx, ebp
	push	eax
	lea	edx, DWORD PTR $LN6@vector
	call	@_RTC_CheckStackVars@8
	pop	eax
	pop	edx
	mov	ecx, DWORD PTR __$EHRec$[ebp]
	mov	DWORD PTR fs:0, ecx
	pop	ecx
	pop	edi
	pop	esi
	pop	ebx
	mov	ecx, DWORD PTR __$ArrayPad$[ebp]
	xor	ecx, ebp
	call	@__security_check_cookie@4
	add	esp, 256				; 00000100H
	cmp	ebp, esp
	call	__RTC_CheckEsp
	mov	esp, ebp
	pop	ebp
	ret	0
	npad	2
$LN6@vector:
	DD	1
	DD	$LN5@vector
$LN5@vector:
	DD	-45					; ffffffd3H
	DD	1
	DD	$LN3@vector
$LN3@vector:
	DB	36					; 00000024H
	DB	83					; 00000053H
	DB	50					; 00000032H
	DB	0
_TEXT	ENDS
;	COMDAT text$x
text$x	SEGMENT
__ehhandler$??1?$vector@U?$vec@$01M$0A@@glm@@V?$allocator@U?$vec@$01M$0A@@glm@@@std@@@std@@QAE@XZ:
	mov	edx, DWORD PTR [esp+8]
	lea	eax, DWORD PTR [edx+12]
	mov	ecx, DWORD PTR [edx-260]
	xor	ecx, eax
	call	@__security_check_cookie@4
	mov	ecx, DWORD PTR [edx-4]
	xor	ecx, eax
	call	@__security_check_cookie@4
	mov	eax, OFFSET __ehfuncinfo$??1?$vector@U?$vec@$01M$0A@@glm@@V?$allocator@U?$vec@$01M$0A@@glm@@@std@@@std@@QAE@XZ
	jmp	___CxxFrameHandler3
text$x	ENDS
??1?$vector@U?$vec@$01M$0A@@glm@@V?$allocator@U?$vec@$01M$0A@@glm@@@std@@@std@@QAE@XZ ENDP ; std::vector<glm::vec<2,float,0>,std::allocator<glm::vec<2,float,0> > >::~vector<glm::vec<2,float,0>,std::allocator<glm::vec<2,float,0> > >
; Function compile flags: /Odtp /RTCsu /ZI
; File C:\Program Files (x86)\Microsoft Visual Studio\2019\Community\VC\Tools\MSVC\14.24.28314\include\xmemory
;	COMDAT ?deallocate@?$allocator@U?$vec@$01M$0A@@glm@@@std@@QAEXQAU?$vec@$01M$0A@@glm@@I@Z
_TEXT	SEGMENT
_this$ = -8						; size = 4
__Ptr$ = 8						; size = 4
__Count$ = 12						; size = 4
?deallocate@?$allocator@U?$vec@$01M$0A@@glm@@@std@@QAEXQAU?$vec@$01M$0A@@glm@@I@Z PROC ; std::allocator<glm::vec<2,float,0> >::deallocate, COMDAT
; _this$ = ecx

; 778  :     void deallocate(_Ty* const _Ptr, const size_t _Count) {

	push	ebp
	mov	ebp, esp
	sub	esp, 204				; 000000ccH
	push	ebx
	push	esi
	push	edi
	push	ecx
	lea	edi, DWORD PTR [ebp-204]
	mov	ecx, 51					; 00000033H
	mov	eax, -858993460				; ccccccccH
	rep stosd
	pop	ecx
	mov	DWORD PTR _this$[ebp], ecx
	mov	ecx, OFFSET __B1B75AB9_xmemory
	call	@__CheckForDebuggerJustMyCode@4

; 779  :         // no overflow check on the following multiply; we assume _Allocate did that check
; 780  :         _Deallocate<_New_alignof<_Ty>>(_Ptr, sizeof(_Ty) * _Count);

	mov	eax, DWORD PTR __Count$[ebp]
	shl	eax, 3
	push	eax
	mov	ecx, DWORD PTR __Ptr$[ebp]
	push	ecx
	call	??$_Deallocate@$07$0A@@std@@YAXPAXI@Z	; std::_Deallocate<8,0>
	add	esp, 8

; 781  :     }

	pop	edi
	pop	esi
	pop	ebx
	add	esp, 204				; 000000ccH
	cmp	ebp, esp
	call	__RTC_CheckEsp
	mov	esp, ebp
	pop	ebp
	ret	8
?deallocate@?$allocator@U?$vec@$01M$0A@@glm@@@std@@QAEXQAU?$vec@$01M$0A@@glm@@I@Z ENDP ; std::allocator<glm::vec<2,float,0> >::deallocate
_TEXT	ENDS
; Function compile flags: /Odtp /RTCsu /ZI
; File C:\Program Files (x86)\Microsoft Visual Studio\2019\Community\VC\Tools\MSVC\14.24.28314\include\xmemory
;	COMDAT ?_Get_first@?$_Compressed_pair@V?$allocator@U?$vec@$02M$0A@@glm@@@std@@V?$_Vector_val@U?$_Simple_types@U?$vec@$02M$0A@@glm@@@std@@@2@$00@std@@QAEAAV?$allocator@U?$vec@$02M$0A@@glm@@@2@XZ
_TEXT	SEGMENT
_this$ = -20						; size = 4
__$EHRec$ = -12						; size = 12
?_Get_first@?$_Compressed_pair@V?$allocator@U?$vec@$02M$0A@@glm@@@std@@V?$_Vector_val@U?$_Simple_types@U?$vec@$02M$0A@@glm@@@std@@@2@$00@std@@QAEAAV?$allocator@U?$vec@$02M$0A@@glm@@@2@XZ PROC ; std::_Compressed_pair<std::allocator<glm::vec<3,float,0> >,std::_Vector_val<std::_Simple_types<glm::vec<3,float,0> > >,1>::_Get_first, COMDAT
; _this$ = ecx

; 1335 :     _Ty1& _Get_first() noexcept {

	push	ebp
	mov	ebp, esp
	push	-1
	push	__ehhandler$?_Get_first@?$_Compressed_pair@V?$allocator@U?$vec@$02M$0A@@glm@@@std@@V?$_Vector_val@U?$_Simple_types@U?$vec@$02M$0A@@glm@@@std@@@2@$00@std@@QAEAAV?$allocator@U?$vec@$02M$0A@@glm@@@2@XZ
	mov	eax, DWORD PTR fs:0
	push	eax
	sub	esp, 204				; 000000ccH
	push	ebx
	push	esi
	push	edi
	push	ecx
	lea	edi, DWORD PTR [ebp-216]
	mov	ecx, 51					; 00000033H
	mov	eax, -858993460				; ccccccccH
	rep stosd
	pop	ecx
	mov	eax, DWORD PTR ___security_cookie
	xor	eax, ebp
	push	eax
	lea	eax, DWORD PTR __$EHRec$[ebp]
	mov	DWORD PTR fs:0, eax
	mov	DWORD PTR _this$[ebp], ecx
	mov	ecx, OFFSET __B1B75AB9_xmemory
	call	@__CheckForDebuggerJustMyCode@4

; 1336 :         return *this;

	mov	eax, DWORD PTR _this$[ebp]

; 1337 :     }

	mov	ecx, DWORD PTR __$EHRec$[ebp]
	mov	DWORD PTR fs:0, ecx
	pop	ecx
	pop	edi
	pop	esi
	pop	ebx
	add	esp, 216				; 000000d8H
	cmp	ebp, esp
	call	__RTC_CheckEsp
	mov	esp, ebp
	pop	ebp
	ret	0
_TEXT	ENDS
;	COMDAT text$x
text$x	SEGMENT
__ehhandler$?_Get_first@?$_Compressed_pair@V?$allocator@U?$vec@$02M$0A@@glm@@@std@@V?$_Vector_val@U?$_Simple_types@U?$vec@$02M$0A@@glm@@@std@@@2@$00@std@@QAEAAV?$allocator@U?$vec@$02M$0A@@glm@@@2@XZ:
	mov	edx, DWORD PTR [esp+8]
	lea	eax, DWORD PTR [edx+12]
	mov	ecx, DWORD PTR [edx-220]
	xor	ecx, eax
	call	@__security_check_cookie@4
	mov	eax, OFFSET __ehfuncinfo$?_Get_first@?$_Compressed_pair@V?$allocator@U?$vec@$02M$0A@@glm@@@std@@V?$_Vector_val@U?$_Simple_types@U?$vec@$02M$0A@@glm@@@std@@@2@$00@std@@QAEAAV?$allocator@U?$vec@$02M$0A@@glm@@@2@XZ
	jmp	___CxxFrameHandler3
text$x	ENDS
?_Get_first@?$_Compressed_pair@V?$allocator@U?$vec@$02M$0A@@glm@@@std@@V?$_Vector_val@U?$_Simple_types@U?$vec@$02M$0A@@glm@@@std@@@2@$00@std@@QAEAAV?$allocator@U?$vec@$02M$0A@@glm@@@2@XZ ENDP ; std::_Compressed_pair<std::allocator<glm::vec<3,float,0> >,std::_Vector_val<std::_Simple_types<glm::vec<3,float,0> > >,1>::_Get_first
; Function compile flags: /Odtp /RTCsu /ZI
; File C:\Program Files (x86)\Microsoft Visual Studio\2019\Community\VC\Tools\MSVC\14.24.28314\include\vector
;	COMDAT ?_Getal@?$vector@U?$vec@$02M$0A@@glm@@V?$allocator@U?$vec@$02M$0A@@glm@@@std@@@std@@AAEAAV?$allocator@U?$vec@$02M$0A@@glm@@@2@XZ
_TEXT	SEGMENT
_this$ = -20						; size = 4
__$EHRec$ = -12						; size = 12
?_Getal@?$vector@U?$vec@$02M$0A@@glm@@V?$allocator@U?$vec@$02M$0A@@glm@@@std@@@std@@AAEAAV?$allocator@U?$vec@$02M$0A@@glm@@@2@XZ PROC ; std::vector<glm::vec<3,float,0>,std::allocator<glm::vec<3,float,0> > >::_Getal, COMDAT
; _this$ = ecx

; 1735 :     _Alty& _Getal() noexcept {

	push	ebp
	mov	ebp, esp
	push	-1
	push	__ehhandler$?_Getal@?$vector@U?$vec@$02M$0A@@glm@@V?$allocator@U?$vec@$02M$0A@@glm@@@std@@@std@@AAEAAV?$allocator@U?$vec@$02M$0A@@glm@@@2@XZ
	mov	eax, DWORD PTR fs:0
	push	eax
	sub	esp, 204				; 000000ccH
	push	ebx
	push	esi
	push	edi
	push	ecx
	lea	edi, DWORD PTR [ebp-216]
	mov	ecx, 51					; 00000033H
	mov	eax, -858993460				; ccccccccH
	rep stosd
	pop	ecx
	mov	eax, DWORD PTR ___security_cookie
	xor	eax, ebp
	push	eax
	lea	eax, DWORD PTR __$EHRec$[ebp]
	mov	DWORD PTR fs:0, eax
	mov	DWORD PTR _this$[ebp], ecx
	mov	ecx, OFFSET __805570D0_vector
	call	@__CheckForDebuggerJustMyCode@4

; 1736 :         return _Mypair._Get_first();

	mov	ecx, DWORD PTR _this$[ebp]
	call	?_Get_first@?$_Compressed_pair@V?$allocator@U?$vec@$02M$0A@@glm@@@std@@V?$_Vector_val@U?$_Simple_types@U?$vec@$02M$0A@@glm@@@std@@@2@$00@std@@QAEAAV?$allocator@U?$vec@$02M$0A@@glm@@@2@XZ ; std::_Compressed_pair<std::allocator<glm::vec<3,float,0> >,std::_Vector_val<std::_Simple_types<glm::vec<3,float,0> > >,1>::_Get_first

; 1737 :     }

	mov	ecx, DWORD PTR __$EHRec$[ebp]
	mov	DWORD PTR fs:0, ecx
	pop	ecx
	pop	edi
	pop	esi
	pop	ebx
	add	esp, 216				; 000000d8H
	cmp	ebp, esp
	call	__RTC_CheckEsp
	mov	esp, ebp
	pop	ebp
	ret	0
_TEXT	ENDS
;	COMDAT text$x
text$x	SEGMENT
__ehhandler$?_Getal@?$vector@U?$vec@$02M$0A@@glm@@V?$allocator@U?$vec@$02M$0A@@glm@@@std@@@std@@AAEAAV?$allocator@U?$vec@$02M$0A@@glm@@@2@XZ:
	mov	edx, DWORD PTR [esp+8]
	lea	eax, DWORD PTR [edx+12]
	mov	ecx, DWORD PTR [edx-220]
	xor	ecx, eax
	call	@__security_check_cookie@4
	mov	eax, OFFSET __ehfuncinfo$?_Getal@?$vector@U?$vec@$02M$0A@@glm@@V?$allocator@U?$vec@$02M$0A@@glm@@@std@@@std@@AAEAAV?$allocator@U?$vec@$02M$0A@@glm@@@2@XZ
	jmp	___CxxFrameHandler3
text$x	ENDS
?_Getal@?$vector@U?$vec@$02M$0A@@glm@@V?$allocator@U?$vec@$02M$0A@@glm@@@std@@@std@@AAEAAV?$allocator@U?$vec@$02M$0A@@glm@@@2@XZ ENDP ; std::vector<glm::vec<3,float,0>,std::allocator<glm::vec<3,float,0> > >::_Getal
; Function compile flags: /Odtp /RTCsu /ZI
; File C:\Program Files (x86)\Microsoft Visual Studio\2019\Community\VC\Tools\MSVC\14.24.28314\include\vector
;	COMDAT ?_Tidy@?$vector@U?$vec@$02M$0A@@glm@@V?$allocator@U?$vec@$02M$0A@@glm@@@std@@@std@@AAEXXZ
_TEXT	SEGMENT
__Myend$ = -68						; size = 4
__Mylast$ = -56						; size = 4
__Myfirst$ = -44					; size = 4
__My_data$ = -32					; size = 4
_this$ = -20						; size = 4
__$EHRec$ = -12						; size = 12
?_Tidy@?$vector@U?$vec@$02M$0A@@glm@@V?$allocator@U?$vec@$02M$0A@@glm@@@std@@@std@@AAEXXZ PROC ; std::vector<glm::vec<3,float,0>,std::allocator<glm::vec<3,float,0> > >::_Tidy, COMDAT
; _this$ = ecx

; 1689 :     void _Tidy() noexcept { // free all storage

	push	ebp
	mov	ebp, esp
	push	-1
	push	__ehhandler$?_Tidy@?$vector@U?$vec@$02M$0A@@glm@@V?$allocator@U?$vec@$02M$0A@@glm@@@std@@@std@@AAEXXZ
	mov	eax, DWORD PTR fs:0
	push	eax
	sub	esp, 252				; 000000fcH
	push	ebx
	push	esi
	push	edi
	push	ecx
	lea	edi, DWORD PTR [ebp-264]
	mov	ecx, 63					; 0000003fH
	mov	eax, -858993460				; ccccccccH
	rep stosd
	pop	ecx
	mov	eax, DWORD PTR ___security_cookie
	xor	eax, ebp
	push	eax
	lea	eax, DWORD PTR __$EHRec$[ebp]
	mov	DWORD PTR fs:0, eax
	mov	DWORD PTR _this$[ebp], ecx
	mov	ecx, OFFSET __805570D0_vector
	call	@__CheckForDebuggerJustMyCode@4

; 1690 :         auto& _My_data    = _Mypair._Myval2;

	mov	eax, DWORD PTR _this$[ebp]
	mov	DWORD PTR __My_data$[ebp], eax

; 1691 :         pointer& _Myfirst = _My_data._Myfirst;

	mov	eax, DWORD PTR __My_data$[ebp]
	add	eax, 4
	mov	DWORD PTR __Myfirst$[ebp], eax

; 1692 :         pointer& _Mylast  = _My_data._Mylast;

	mov	eax, DWORD PTR __My_data$[ebp]
	add	eax, 8
	mov	DWORD PTR __Mylast$[ebp], eax

; 1693 :         pointer& _Myend   = _My_data._Myend;

	mov	eax, DWORD PTR __My_data$[ebp]
	add	eax, 12					; 0000000cH
	mov	DWORD PTR __Myend$[ebp], eax

; 1694 : 
; 1695 :         _My_data._Orphan_all();

	mov	ecx, DWORD PTR __My_data$[ebp]
	call	?_Orphan_all@_Container_base12@std@@QAEXXZ ; std::_Container_base12::_Orphan_all

; 1696 : 
; 1697 :         if (_Myfirst) { // destroy and deallocate old array

	mov	eax, DWORD PTR __Myfirst$[ebp]
	cmp	DWORD PTR [eax], 0
	je	SHORT $LN3@Tidy

; 1698 :             _Destroy(_Myfirst, _Mylast);

	mov	eax, DWORD PTR __Mylast$[ebp]
	mov	ecx, DWORD PTR [eax]
	push	ecx
	mov	edx, DWORD PTR __Myfirst$[ebp]
	mov	eax, DWORD PTR [edx]
	push	eax
	mov	ecx, DWORD PTR _this$[ebp]
	call	?_Destroy@?$vector@U?$vec@$02M$0A@@glm@@V?$allocator@U?$vec@$02M$0A@@glm@@@std@@@std@@AAEXPAU?$vec@$02M$0A@@glm@@0@Z ; std::vector<glm::vec<3,float,0>,std::allocator<glm::vec<3,float,0> > >::_Destroy

; 1699 :             _Getal().deallocate(_Myfirst, static_cast<size_type>(_Myend - _Myfirst));

	mov	eax, DWORD PTR __Myend$[ebp]
	mov	ecx, DWORD PTR __Myfirst$[ebp]
	mov	eax, DWORD PTR [eax]
	sub	eax, DWORD PTR [ecx]
	cdq
	mov	ecx, 12					; 0000000cH
	idiv	ecx
	push	eax
	mov	edx, DWORD PTR __Myfirst$[ebp]
	mov	eax, DWORD PTR [edx]
	push	eax
	mov	ecx, DWORD PTR _this$[ebp]
	call	?_Getal@?$vector@U?$vec@$02M$0A@@glm@@V?$allocator@U?$vec@$02M$0A@@glm@@@std@@@std@@AAEAAV?$allocator@U?$vec@$02M$0A@@glm@@@2@XZ ; std::vector<glm::vec<3,float,0>,std::allocator<glm::vec<3,float,0> > >::_Getal
	mov	ecx, eax
	call	?deallocate@?$allocator@U?$vec@$02M$0A@@glm@@@std@@QAEXQAU?$vec@$02M$0A@@glm@@I@Z ; std::allocator<glm::vec<3,float,0> >::deallocate

; 1700 : 
; 1701 :             _Myfirst = pointer();

	mov	eax, DWORD PTR __Myfirst$[ebp]
	mov	DWORD PTR [eax], 0

; 1702 :             _Mylast  = pointer();

	mov	eax, DWORD PTR __Mylast$[ebp]
	mov	DWORD PTR [eax], 0

; 1703 :             _Myend   = pointer();

	mov	eax, DWORD PTR __Myend$[ebp]
	mov	DWORD PTR [eax], 0
$LN3@Tidy:

; 1704 :         }
; 1705 :     }

	mov	ecx, DWORD PTR __$EHRec$[ebp]
	mov	DWORD PTR fs:0, ecx
	pop	ecx
	pop	edi
	pop	esi
	pop	ebx
	add	esp, 264				; 00000108H
	cmp	ebp, esp
	call	__RTC_CheckEsp
	mov	esp, ebp
	pop	ebp
	ret	0
_TEXT	ENDS
;	COMDAT text$x
text$x	SEGMENT
__ehhandler$?_Tidy@?$vector@U?$vec@$02M$0A@@glm@@V?$allocator@U?$vec@$02M$0A@@glm@@@std@@@std@@AAEXXZ:
	mov	edx, DWORD PTR [esp+8]
	lea	eax, DWORD PTR [edx+12]
	mov	ecx, DWORD PTR [edx-268]
	xor	ecx, eax
	call	@__security_check_cookie@4
	mov	eax, OFFSET __ehfuncinfo$?_Tidy@?$vector@U?$vec@$02M$0A@@glm@@V?$allocator@U?$vec@$02M$0A@@glm@@@std@@@std@@AAEXXZ
	jmp	___CxxFrameHandler3
text$x	ENDS
?_Tidy@?$vector@U?$vec@$02M$0A@@glm@@V?$allocator@U?$vec@$02M$0A@@glm@@@std@@@std@@AAEXXZ ENDP ; std::vector<glm::vec<3,float,0>,std::allocator<glm::vec<3,float,0> > >::_Tidy
; Function compile flags: /Odtp /RTCsu /ZI
; File C:\Program Files (x86)\Microsoft Visual Studio\2019\Community\VC\Tools\MSVC\14.24.28314\include\vector
;	COMDAT ?_Destroy@?$vector@U?$vec@$02M$0A@@glm@@V?$allocator@U?$vec@$02M$0A@@glm@@@std@@@std@@AAEXPAU?$vec@$02M$0A@@glm@@0@Z
_TEXT	SEGMENT
_this$ = -8						; size = 4
__First$ = 8						; size = 4
__Last$ = 12						; size = 4
?_Destroy@?$vector@U?$vec@$02M$0A@@glm@@V?$allocator@U?$vec@$02M$0A@@glm@@@std@@@std@@AAEXPAU?$vec@$02M$0A@@glm@@0@Z PROC ; std::vector<glm::vec<3,float,0>,std::allocator<glm::vec<3,float,0> > >::_Destroy, COMDAT
; _this$ = ecx

; 1614 :     void _Destroy(pointer _First, pointer _Last) { // destroy [_First, _Last) using allocator

	push	ebp
	mov	ebp, esp
	sub	esp, 204				; 000000ccH
	push	ebx
	push	esi
	push	edi
	push	ecx
	lea	edi, DWORD PTR [ebp-204]
	mov	ecx, 51					; 00000033H
	mov	eax, -858993460				; ccccccccH
	rep stosd
	pop	ecx
	mov	DWORD PTR _this$[ebp], ecx
	mov	ecx, OFFSET __805570D0_vector
	call	@__CheckForDebuggerJustMyCode@4

; 1615 :         _Destroy_range(_First, _Last, _Getal());

	mov	ecx, DWORD PTR _this$[ebp]
	call	?_Getal@?$vector@U?$vec@$02M$0A@@glm@@V?$allocator@U?$vec@$02M$0A@@glm@@@std@@@std@@AAEAAV?$allocator@U?$vec@$02M$0A@@glm@@@2@XZ ; std::vector<glm::vec<3,float,0>,std::allocator<glm::vec<3,float,0> > >::_Getal
	push	eax
	mov	eax, DWORD PTR __Last$[ebp]
	push	eax
	mov	ecx, DWORD PTR __First$[ebp]
	push	ecx
	call	??$_Destroy_range@V?$allocator@U?$vec@$02M$0A@@glm@@@std@@@std@@YAXPAU?$vec@$02M$0A@@glm@@QAU12@AAV?$allocator@U?$vec@$02M$0A@@glm@@@0@@Z ; std::_Destroy_range<std::allocator<glm::vec<3,float,0> > >
	add	esp, 12					; 0000000cH

; 1616 :     }

	pop	edi
	pop	esi
	pop	ebx
	add	esp, 204				; 000000ccH
	cmp	ebp, esp
	call	__RTC_CheckEsp
	mov	esp, ebp
	pop	ebp
	ret	8
?_Destroy@?$vector@U?$vec@$02M$0A@@glm@@V?$allocator@U?$vec@$02M$0A@@glm@@@std@@@std@@AAEXPAU?$vec@$02M$0A@@glm@@0@Z ENDP ; std::vector<glm::vec<3,float,0>,std::allocator<glm::vec<3,float,0> > >::_Destroy
_TEXT	ENDS
; Function compile flags: /Odtp /RTCsu /ZI
; File C:\Program Files (x86)\Microsoft Visual Studio\2019\Community\VC\Tools\MSVC\14.24.28314\include\vector
;	COMDAT ??1?$vector@U?$vec@$02M$0A@@glm@@V?$allocator@U?$vec@$02M$0A@@glm@@@std@@@std@@QAE@XZ
_TEXT	SEGMENT
$T2 = -252						; size = 4
_$S3$ = -45						; size = 1
__Alproxy$ = -36					; size = 4
_this$ = -24						; size = 4
__$ArrayPad$ = -16					; size = 4
__$EHRec$ = -12						; size = 12
??1?$vector@U?$vec@$02M$0A@@glm@@V?$allocator@U?$vec@$02M$0A@@glm@@@std@@@std@@QAE@XZ PROC ; std::vector<glm::vec<3,float,0>,std::allocator<glm::vec<3,float,0> > >::~vector<glm::vec<3,float,0>,std::allocator<glm::vec<3,float,0> > >, COMDAT
; _this$ = ecx

; 673  :     ~vector() noexcept {

	push	ebp
	mov	ebp, esp
	push	-1
	push	__ehhandler$??1?$vector@U?$vec@$02M$0A@@glm@@V?$allocator@U?$vec@$02M$0A@@glm@@@std@@@std@@QAE@XZ
	mov	eax, DWORD PTR fs:0
	push	eax
	sub	esp, 244				; 000000f4H
	push	ebx
	push	esi
	push	edi
	push	ecx
	lea	edi, DWORD PTR [ebp-256]
	mov	ecx, 61					; 0000003dH
	mov	eax, -858993460				; ccccccccH
	rep stosd
	pop	ecx
	mov	eax, DWORD PTR ___security_cookie
	xor	eax, ebp
	mov	DWORD PTR __$ArrayPad$[ebp], eax
	push	eax
	lea	eax, DWORD PTR __$EHRec$[ebp]
	mov	DWORD PTR fs:0, eax
	mov	DWORD PTR _this$[ebp], ecx
	mov	ecx, OFFSET __805570D0_vector
	call	@__CheckForDebuggerJustMyCode@4

; 674  :         _Tidy();

	mov	ecx, DWORD PTR _this$[ebp]
	call	?_Tidy@?$vector@U?$vec@$02M$0A@@glm@@V?$allocator@U?$vec@$02M$0A@@glm@@@std@@@std@@AAEXXZ ; std::vector<glm::vec<3,float,0>,std::allocator<glm::vec<3,float,0> > >::_Tidy

; 675  : #if _ITERATOR_DEBUG_LEVEL != 0
; 676  :         auto&& _Alproxy = _GET_PROXY_ALLOCATOR(_Alty, _Getal());

	mov	ecx, DWORD PTR _this$[ebp]
	call	?_Getal@?$vector@U?$vec@$02M$0A@@glm@@V?$allocator@U?$vec@$02M$0A@@glm@@@std@@@std@@AAEAAV?$allocator@U?$vec@$02M$0A@@glm@@@2@XZ ; std::vector<glm::vec<3,float,0>,std::allocator<glm::vec<3,float,0> > >::_Getal
	push	eax
	lea	ecx, DWORD PTR _$S3$[ebp]
	call	??$?0U?$vec@$02M$0A@@glm@@@?$allocator@U_Container_proxy@std@@@std@@QAE@ABV?$allocator@U?$vec@$02M$0A@@glm@@@1@@Z ; std::allocator<std::_Container_proxy>::allocator<std::_Container_proxy><glm::vec<3,float,0> >
	lea	eax, DWORD PTR _$S3$[ebp]
	mov	DWORD PTR __Alproxy$[ebp], eax

; 677  :         _Delete_plain_internal(_Alproxy, _STD exchange(_Mypair._Myval2._Myproxy, nullptr));

	mov	DWORD PTR $T2[ebp], 0
	lea	eax, DWORD PTR $T2[ebp]
	push	eax
	mov	ecx, DWORD PTR _this$[ebp]
	push	ecx
	call	??$exchange@PAU_Container_proxy@std@@$$T@std@@YAPAU_Container_proxy@0@AAPAU10@$$QA$$T@Z ; std::exchange<std::_Container_proxy *,std::nullptr_t>
	add	esp, 8
	push	eax
	mov	edx, DWORD PTR __Alproxy$[ebp]
	push	edx
	call	??$_Delete_plain_internal@V?$allocator@U_Container_proxy@std@@@std@@@std@@YAXAAV?$allocator@U_Container_proxy@std@@@0@QAU_Container_proxy@0@@Z ; std::_Delete_plain_internal<std::allocator<std::_Container_proxy> >
	add	esp, 8

; 678  : #endif // _ITERATOR_DEBUG_LEVEL != 0
; 679  :     }

	push	edx
	mov	ecx, ebp
	push	eax
	lea	edx, DWORD PTR $LN6@vector
	call	@_RTC_CheckStackVars@8
	pop	eax
	pop	edx
	mov	ecx, DWORD PTR __$EHRec$[ebp]
	mov	DWORD PTR fs:0, ecx
	pop	ecx
	pop	edi
	pop	esi
	pop	ebx
	mov	ecx, DWORD PTR __$ArrayPad$[ebp]
	xor	ecx, ebp
	call	@__security_check_cookie@4
	add	esp, 256				; 00000100H
	cmp	ebp, esp
	call	__RTC_CheckEsp
	mov	esp, ebp
	pop	ebp
	ret	0
	npad	2
$LN6@vector:
	DD	1
	DD	$LN5@vector
$LN5@vector:
	DD	-45					; ffffffd3H
	DD	1
	DD	$LN3@vector
$LN3@vector:
	DB	36					; 00000024H
	DB	83					; 00000053H
	DB	51					; 00000033H
	DB	0
_TEXT	ENDS
;	COMDAT text$x
text$x	SEGMENT
__ehhandler$??1?$vector@U?$vec@$02M$0A@@glm@@V?$allocator@U?$vec@$02M$0A@@glm@@@std@@@std@@QAE@XZ:
	mov	edx, DWORD PTR [esp+8]
	lea	eax, DWORD PTR [edx+12]
	mov	ecx, DWORD PTR [edx-260]
	xor	ecx, eax
	call	@__security_check_cookie@4
	mov	ecx, DWORD PTR [edx-4]
	xor	ecx, eax
	call	@__security_check_cookie@4
	mov	eax, OFFSET __ehfuncinfo$??1?$vector@U?$vec@$02M$0A@@glm@@V?$allocator@U?$vec@$02M$0A@@glm@@@std@@@std@@QAE@XZ
	jmp	___CxxFrameHandler3
text$x	ENDS
??1?$vector@U?$vec@$02M$0A@@glm@@V?$allocator@U?$vec@$02M$0A@@glm@@@std@@@std@@QAE@XZ ENDP ; std::vector<glm::vec<3,float,0>,std::allocator<glm::vec<3,float,0> > >::~vector<glm::vec<3,float,0>,std::allocator<glm::vec<3,float,0> > >
; Function compile flags: /Odtp /RTCsu /ZI
; File C:\Program Files (x86)\Microsoft Visual Studio\2019\Community\VC\Tools\MSVC\14.24.28314\include\xmemory
;	COMDAT ?deallocate@?$allocator@U?$vec@$02M$0A@@glm@@@std@@QAEXQAU?$vec@$02M$0A@@glm@@I@Z
_TEXT	SEGMENT
_this$ = -8						; size = 4
__Ptr$ = 8						; size = 4
__Count$ = 12						; size = 4
?deallocate@?$allocator@U?$vec@$02M$0A@@glm@@@std@@QAEXQAU?$vec@$02M$0A@@glm@@I@Z PROC ; std::allocator<glm::vec<3,float,0> >::deallocate, COMDAT
; _this$ = ecx

; 778  :     void deallocate(_Ty* const _Ptr, const size_t _Count) {

	push	ebp
	mov	ebp, esp
	sub	esp, 204				; 000000ccH
	push	ebx
	push	esi
	push	edi
	push	ecx
	lea	edi, DWORD PTR [ebp-204]
	mov	ecx, 51					; 00000033H
	mov	eax, -858993460				; ccccccccH
	rep stosd
	pop	ecx
	mov	DWORD PTR _this$[ebp], ecx
	mov	ecx, OFFSET __B1B75AB9_xmemory
	call	@__CheckForDebuggerJustMyCode@4

; 779  :         // no overflow check on the following multiply; we assume _Allocate did that check
; 780  :         _Deallocate<_New_alignof<_Ty>>(_Ptr, sizeof(_Ty) * _Count);

	imul	eax, DWORD PTR __Count$[ebp], 12
	push	eax
	mov	ecx, DWORD PTR __Ptr$[ebp]
	push	ecx
	call	??$_Deallocate@$07$0A@@std@@YAXPAXI@Z	; std::_Deallocate<8,0>
	add	esp, 8

; 781  :     }

	pop	edi
	pop	esi
	pop	ebx
	add	esp, 204				; 000000ccH
	cmp	ebp, esp
	call	__RTC_CheckEsp
	mov	esp, ebp
	pop	ebp
	ret	8
?deallocate@?$allocator@U?$vec@$02M$0A@@glm@@@std@@QAEXQAU?$vec@$02M$0A@@glm@@I@Z ENDP ; std::allocator<glm::vec<3,float,0> >::deallocate
_TEXT	ENDS
; Function compile flags: /Odtp /RTCsu /ZI
; File C:\Program Files (x86)\Microsoft Visual Studio\2019\Community\VC\Tools\MSVC\14.24.28314\include\chrono
;	COMDAT ??$?0NX@?$duration@NU?$ratio@$00$00@std@@@chrono@std@@QAE@ABN@Z
_TEXT	SEGMENT
_this$ = -20						; size = 4
__$EHRec$ = -12						; size = 12
__Val$ = 8						; size = 4
??$?0NX@?$duration@NU?$ratio@$00$00@std@@@chrono@std@@QAE@ABN@Z PROC ; std::chrono::duration<double,std::ratio<1,1> >::duration<double,std::ratio<1,1> ><double,void>, COMDAT
; _this$ = ecx

; 82   :             : _MyRep(static_cast<_Rep>(_Val)) {}

	push	ebp
	mov	ebp, esp
	push	-1
	push	__ehhandler$??$?0NX@?$duration@NU?$ratio@$00$00@std@@@chrono@std@@QAE@ABN@Z
	mov	eax, DWORD PTR fs:0
	push	eax
	sub	esp, 204				; 000000ccH
	push	ebx
	push	esi
	push	edi
	push	ecx
	lea	edi, DWORD PTR [ebp-216]
	mov	ecx, 51					; 00000033H
	mov	eax, -858993460				; ccccccccH
	rep stosd
	pop	ecx
	mov	eax, DWORD PTR ___security_cookie
	xor	eax, ebp
	push	eax
	lea	eax, DWORD PTR __$EHRec$[ebp]
	mov	DWORD PTR fs:0, eax
	mov	DWORD PTR _this$[ebp], ecx
	mov	ecx, OFFSET __A91506BA_chrono
	call	@__CheckForDebuggerJustMyCode@4
	mov	eax, DWORD PTR _this$[ebp]
	mov	ecx, DWORD PTR __Val$[ebp]
	movsd	xmm0, QWORD PTR [ecx]
	movsd	QWORD PTR [eax], xmm0
	mov	eax, DWORD PTR _this$[ebp]
	mov	ecx, DWORD PTR __$EHRec$[ebp]
	mov	DWORD PTR fs:0, ecx
	pop	ecx
	pop	edi
	pop	esi
	pop	ebx
	add	esp, 216				; 000000d8H
	cmp	ebp, esp
	call	__RTC_CheckEsp
	mov	esp, ebp
	pop	ebp
	ret	4
_TEXT	ENDS
;	COMDAT text$x
text$x	SEGMENT
__ehhandler$??$?0NX@?$duration@NU?$ratio@$00$00@std@@@chrono@std@@QAE@ABN@Z:
	mov	edx, DWORD PTR [esp+8]
	lea	eax, DWORD PTR [edx+12]
	mov	ecx, DWORD PTR [edx-220]
	xor	ecx, eax
	call	@__security_check_cookie@4
	mov	eax, OFFSET __ehfuncinfo$??$?0NX@?$duration@NU?$ratio@$00$00@std@@@chrono@std@@QAE@ABN@Z
	jmp	___CxxFrameHandler3
text$x	ENDS
??$?0NX@?$duration@NU?$ratio@$00$00@std@@@chrono@std@@QAE@ABN@Z ENDP ; std::chrono::duration<double,std::ratio<1,1> >::duration<double,std::ratio<1,1> ><double,void>
; Function compile flags: /Odtp /RTCsu /ZI
; File C:\Program Files (x86)\Microsoft Visual Studio\2019\Community\VC\Tools\MSVC\14.24.28314\include\chrono
;	COMDAT ??$duration_cast@V?$duration@NU?$ratio@$00$00@std@@@chrono@std@@_JU?$ratio@$00$0DLJKMKAA@@3@X@chrono@std@@YA?AV?$duration@NU?$ratio@$00$00@std@@@01@ABV?$duration@_JU?$ratio@$00$0DLJKMKAA@@std@@@01@@Z
_TEXT	SEGMENT
$T2 = -288						; size = 8
$T3 = -272						; size = 8
$T4 = -256						; size = 8
$T5 = -240						; size = 8
__Den_is_one$ = -29					; size = 1
__Num_is_one$ = -17					; size = 1
__$EHRec$ = -12						; size = 12
___$ReturnUdt$ = 8					; size = 4
__Dur$ = 12						; size = 4
??$duration_cast@V?$duration@NU?$ratio@$00$00@std@@@chrono@std@@_JU?$ratio@$00$0DLJKMKAA@@3@X@chrono@std@@YA?AV?$duration@NU?$ratio@$00$00@std@@@01@ABV?$duration@_JU?$ratio@$00$0DLJKMKAA@@std@@@01@@Z PROC ; std::chrono::duration_cast<std::chrono::duration<double,std::ratio<1,1> >,__int64,std::ratio<1,1000000000>,void>, COMDAT

; 377  :         is_arithmetic_v<_Rep>&& is_arithmetic_v<typename _To::rep>) /* strengthened */ {

	push	ebp
	mov	ebp, esp
	push	-1
	push	__ehhandler$??$duration_cast@V?$duration@NU?$ratio@$00$00@std@@@chrono@std@@_JU?$ratio@$00$0DLJKMKAA@@3@X@chrono@std@@YA?AV?$duration@NU?$ratio@$00$00@std@@@01@ABV?$duration@_JU?$ratio@$00$0DLJKMKAA@@std@@@01@@Z
	mov	eax, DWORD PTR fs:0
	push	eax
	sub	esp, 280				; 00000118H
	push	ebx
	push	esi
	push	edi
	lea	edi, DWORD PTR [ebp-292]
	mov	ecx, 70					; 00000046H
	mov	eax, -858993460				; ccccccccH
	rep stosd
	mov	eax, DWORD PTR ___security_cookie
	xor	eax, ebp
	push	eax
	lea	eax, DWORD PTR __$EHRec$[ebp]
	mov	DWORD PTR fs:0, eax
	mov	ecx, OFFSET __A91506BA_chrono
	call	@__CheckForDebuggerJustMyCode@4

; 378  :         // convert duration to another duration; truncate
; 379  :         using _CF = ratio_divide<_Period, typename _To::period>;
; 380  : 
; 381  :         using _ToRep = typename _To::rep;
; 382  :         using _CR    = common_type_t<_ToRep, _Rep, intmax_t>;
; 383  : 
; 384  :         constexpr bool _Num_is_one = _CF::num == 1;

	mov	BYTE PTR __Num_is_one$[ebp], 1

; 385  :         constexpr bool _Den_is_one = _CF::den == 1;

	mov	BYTE PTR __Den_is_one$[ebp], 0

; 386  : 
; 387  :         if (_Den_is_one) {

	xor	eax, eax
	je	SHORT $LN2@duration_c

; 388  :             if (_Num_is_one) {

	mov	eax, 1
	test	eax, eax
	je	SHORT $LN4@duration_c

; 389  :                 return static_cast<_To>(static_cast<_ToRep>(_Dur.count()));

	mov	ecx, DWORD PTR __Dur$[ebp]
	call	?count@?$duration@_JU?$ratio@$00$0DLJKMKAA@@std@@@chrono@std@@QBE_JXZ ; std::chrono::duration<__int64,std::ratio<1,1000000000> >::count
	mov	ecx, eax
	call	__ltod3
	movsd	QWORD PTR $T5[ebp], xmm0
	lea	eax, DWORD PTR $T5[ebp]
	push	eax
	mov	ecx, DWORD PTR ___$ReturnUdt$[ebp]
	call	??$?0NX@?$duration@NU?$ratio@$00$00@std@@@chrono@std@@QAE@ABN@Z ; std::chrono::duration<double,std::ratio<1,1> >::duration<double,std::ratio<1,1> ><double,void>
	mov	eax, DWORD PTR ___$ReturnUdt$[ebp]
	jmp	$LN7@duration_c

; 390  :             } else {

	jmp	SHORT $LN5@duration_c
$LN4@duration_c:

; 391  :                 return static_cast<_To>(

	mov	ecx, DWORD PTR __Dur$[ebp]
	call	?count@?$duration@_JU?$ratio@$00$0DLJKMKAA@@std@@@chrono@std@@QBE_JXZ ; std::chrono::duration<__int64,std::ratio<1,1000000000> >::count
	mov	ecx, eax
	call	__ltod3
	mulsd	xmm0, QWORD PTR __real@3ff0000000000000
	movsd	QWORD PTR $T4[ebp], xmm0
	lea	eax, DWORD PTR $T4[ebp]
	push	eax
	mov	ecx, DWORD PTR ___$ReturnUdt$[ebp]
	call	??$?0NX@?$duration@NU?$ratio@$00$00@std@@@chrono@std@@QAE@ABN@Z ; std::chrono::duration<double,std::ratio<1,1> >::duration<double,std::ratio<1,1> ><double,void>
	mov	eax, DWORD PTR ___$ReturnUdt$[ebp]
	jmp	SHORT $LN7@duration_c
$LN5@duration_c:

; 392  :                     static_cast<_ToRep>(static_cast<_CR>(_Dur.count()) * static_cast<_CR>(_CF::num)));
; 393  :             }
; 394  :         } else {

	jmp	SHORT $LN7@duration_c
$LN2@duration_c:

; 395  :             if (_Num_is_one) {

	mov	eax, 1
	test	eax, eax
	je	SHORT $LN6@duration_c

; 396  :                 return static_cast<_To>(

	mov	ecx, DWORD PTR __Dur$[ebp]
	call	?count@?$duration@_JU?$ratio@$00$0DLJKMKAA@@std@@@chrono@std@@QBE_JXZ ; std::chrono::duration<__int64,std::ratio<1,1000000000> >::count
	mov	ecx, eax
	call	__ltod3
	divsd	xmm0, QWORD PTR __real@41cdcd6500000000
	movsd	QWORD PTR $T3[ebp], xmm0
	lea	eax, DWORD PTR $T3[ebp]
	push	eax
	mov	ecx, DWORD PTR ___$ReturnUdt$[ebp]
	call	??$?0NX@?$duration@NU?$ratio@$00$00@std@@@chrono@std@@QAE@ABN@Z ; std::chrono::duration<double,std::ratio<1,1> >::duration<double,std::ratio<1,1> ><double,void>
	mov	eax, DWORD PTR ___$ReturnUdt$[ebp]
	jmp	SHORT $LN7@duration_c

; 397  :                     static_cast<_ToRep>(static_cast<_CR>(_Dur.count()) / static_cast<_CR>(_CF::den)));
; 398  :             } else {

	jmp	SHORT $LN7@duration_c
$LN6@duration_c:

; 399  :                 return static_cast<_To>(static_cast<_ToRep>(

	mov	ecx, DWORD PTR __Dur$[ebp]
	call	?count@?$duration@_JU?$ratio@$00$0DLJKMKAA@@std@@@chrono@std@@QBE_JXZ ; std::chrono::duration<__int64,std::ratio<1,1000000000> >::count
	mov	ecx, eax
	call	__ltod3
	mulsd	xmm0, QWORD PTR __real@3ff0000000000000
	divsd	xmm0, QWORD PTR __real@41cdcd6500000000
	movsd	QWORD PTR $T2[ebp], xmm0
	lea	eax, DWORD PTR $T2[ebp]
	push	eax
	mov	ecx, DWORD PTR ___$ReturnUdt$[ebp]
	call	??$?0NX@?$duration@NU?$ratio@$00$00@std@@@chrono@std@@QAE@ABN@Z ; std::chrono::duration<double,std::ratio<1,1> >::duration<double,std::ratio<1,1> ><double,void>
	mov	eax, DWORD PTR ___$ReturnUdt$[ebp]
$LN7@duration_c:

; 400  :                     static_cast<_CR>(_Dur.count()) * static_cast<_CR>(_CF::num) / static_cast<_CR>(_CF::den)));
; 401  :             }
; 402  :         }
; 403  :     }

	mov	ecx, DWORD PTR __$EHRec$[ebp]
	mov	DWORD PTR fs:0, ecx
	pop	ecx
	pop	edi
	pop	esi
	pop	ebx
	add	esp, 292				; 00000124H
	cmp	ebp, esp
	call	__RTC_CheckEsp
	mov	esp, ebp
	pop	ebp
	ret	0
_TEXT	ENDS
;	COMDAT text$x
text$x	SEGMENT
__ehhandler$??$duration_cast@V?$duration@NU?$ratio@$00$00@std@@@chrono@std@@_JU?$ratio@$00$0DLJKMKAA@@3@X@chrono@std@@YA?AV?$duration@NU?$ratio@$00$00@std@@@01@ABV?$duration@_JU?$ratio@$00$0DLJKMKAA@@std@@@01@@Z:
	mov	edx, DWORD PTR [esp+8]
	lea	eax, DWORD PTR [edx+12]
	mov	ecx, DWORD PTR [edx-296]
	xor	ecx, eax
	call	@__security_check_cookie@4
	mov	eax, OFFSET __ehfuncinfo$??$duration_cast@V?$duration@NU?$ratio@$00$00@std@@@chrono@std@@_JU?$ratio@$00$0DLJKMKAA@@3@X@chrono@std@@YA?AV?$duration@NU?$ratio@$00$00@std@@@01@ABV?$duration@_JU?$ratio@$00$0DLJKMKAA@@std@@@01@@Z
	jmp	___CxxFrameHandler3
text$x	ENDS
??$duration_cast@V?$duration@NU?$ratio@$00$00@std@@@chrono@std@@_JU?$ratio@$00$0DLJKMKAA@@3@X@chrono@std@@YA?AV?$duration@NU?$ratio@$00$00@std@@@01@ABV?$duration@_JU?$ratio@$00$0DLJKMKAA@@std@@@01@@Z ENDP ; std::chrono::duration_cast<std::chrono::duration<double,std::ratio<1,1> >,__int64,std::ratio<1,1000000000>,void>
; Function compile flags: /Odtp /RTCsu /ZI
; File C:\Program Files (x86)\Microsoft Visual Studio\2019\Community\VC\Tools\MSVC\14.24.28314\include\chrono
;	COMDAT ??$?0_JU?$ratio@$00$0DLJKMKAA@@std@@X@?$duration@NU?$ratio@$00$00@std@@@chrono@std@@QAE@ABV?$duration@_JU?$ratio@$00$0DLJKMKAA@@std@@@12@@Z
_TEXT	SEGMENT
$T2 = -228						; size = 8
_this$ = -20						; size = 4
__$EHRec$ = -12						; size = 12
__Dur$ = 8						; size = 4
??$?0_JU?$ratio@$00$0DLJKMKAA@@std@@X@?$duration@NU?$ratio@$00$00@std@@@chrono@std@@QAE@ABV?$duration@_JU?$ratio@$00$0DLJKMKAA@@std@@@12@@Z PROC ; std::chrono::duration<double,std::ratio<1,1> >::duration<double,std::ratio<1,1> ><__int64,std::ratio<1,1000000000>,void>, COMDAT
; _this$ = ecx

; 90   :             : _MyRep(chrono::duration_cast<duration>(_Dur).count()) {}

	push	ebp
	mov	ebp, esp
	push	-1
	push	__ehhandler$??$?0_JU?$ratio@$00$0DLJKMKAA@@std@@X@?$duration@NU?$ratio@$00$00@std@@@chrono@std@@QAE@ABV?$duration@_JU?$ratio@$00$0DLJKMKAA@@std@@@12@@Z
	mov	eax, DWORD PTR fs:0
	push	eax
	sub	esp, 220				; 000000dcH
	push	ebx
	push	esi
	push	edi
	push	ecx
	lea	edi, DWORD PTR [ebp-232]
	mov	ecx, 55					; 00000037H
	mov	eax, -858993460				; ccccccccH
	rep stosd
	pop	ecx
	mov	eax, DWORD PTR ___security_cookie
	xor	eax, ebp
	push	eax
	lea	eax, DWORD PTR __$EHRec$[ebp]
	mov	DWORD PTR fs:0, eax
	mov	DWORD PTR _this$[ebp], ecx
	mov	ecx, OFFSET __A91506BA_chrono
	call	@__CheckForDebuggerJustMyCode@4
	mov	eax, DWORD PTR __Dur$[ebp]
	push	eax
	lea	ecx, DWORD PTR $T2[ebp]
	push	ecx
	call	??$duration_cast@V?$duration@NU?$ratio@$00$00@std@@@chrono@std@@_JU?$ratio@$00$0DLJKMKAA@@3@X@chrono@std@@YA?AV?$duration@NU?$ratio@$00$00@std@@@01@ABV?$duration@_JU?$ratio@$00$0DLJKMKAA@@std@@@01@@Z ; std::chrono::duration_cast<std::chrono::duration<double,std::ratio<1,1> >,__int64,std::ratio<1,1000000000>,void>
	add	esp, 8
	mov	ecx, eax
	call	?count@?$duration@NU?$ratio@$00$00@std@@@chrono@std@@QBENXZ ; std::chrono::duration<double,std::ratio<1,1> >::count
	mov	edx, DWORD PTR _this$[ebp]
	fstp	QWORD PTR [edx]
	mov	eax, DWORD PTR _this$[ebp]
	mov	ecx, DWORD PTR __$EHRec$[ebp]
	mov	DWORD PTR fs:0, ecx
	pop	ecx
	pop	edi
	pop	esi
	pop	ebx
	add	esp, 232				; 000000e8H
	cmp	ebp, esp
	call	__RTC_CheckEsp
	mov	esp, ebp
	pop	ebp
	ret	4
_TEXT	ENDS
;	COMDAT text$x
text$x	SEGMENT
__ehhandler$??$?0_JU?$ratio@$00$0DLJKMKAA@@std@@X@?$duration@NU?$ratio@$00$00@std@@@chrono@std@@QAE@ABV?$duration@_JU?$ratio@$00$0DLJKMKAA@@std@@@12@@Z:
	mov	edx, DWORD PTR [esp+8]
	lea	eax, DWORD PTR [edx+12]
	mov	ecx, DWORD PTR [edx-236]
	xor	ecx, eax
	call	@__security_check_cookie@4
	mov	eax, OFFSET __ehfuncinfo$??$?0_JU?$ratio@$00$0DLJKMKAA@@std@@X@?$duration@NU?$ratio@$00$00@std@@@chrono@std@@QAE@ABV?$duration@_JU?$ratio@$00$0DLJKMKAA@@std@@@12@@Z
	jmp	___CxxFrameHandler3
text$x	ENDS
??$?0_JU?$ratio@$00$0DLJKMKAA@@std@@X@?$duration@NU?$ratio@$00$00@std@@@chrono@std@@QAE@ABV?$duration@_JU?$ratio@$00$0DLJKMKAA@@std@@@12@@Z ENDP ; std::chrono::duration<double,std::ratio<1,1> >::duration<double,std::ratio<1,1> ><__int64,std::ratio<1,1000000000>,void>
; Function compile flags: /Odtp /RTCsu /ZI
; File C:\Program Files (x86)\Microsoft Visual Studio\2019\Community\VC\Tools\MSVC\14.24.28314\include\chrono
;	COMDAT ?count@?$duration@NU?$ratio@$00$00@std@@@chrono@std@@QBENXZ
_TEXT	SEGMENT
_this$ = -20						; size = 4
__$EHRec$ = -12						; size = 12
?count@?$duration@NU?$ratio@$00$00@std@@@chrono@std@@QBENXZ PROC ; std::chrono::duration<double,std::ratio<1,1> >::count, COMDAT
; _this$ = ecx

; 92   :         _NODISCARD constexpr _Rep count() const noexcept(is_arithmetic_v<_Rep>) /* strengthened */ {

	push	ebp
	mov	ebp, esp
	push	-1
	push	__ehhandler$?count@?$duration@NU?$ratio@$00$00@std@@@chrono@std@@QBENXZ
	mov	eax, DWORD PTR fs:0
	push	eax
	sub	esp, 204				; 000000ccH
	push	ebx
	push	esi
	push	edi
	push	ecx
	lea	edi, DWORD PTR [ebp-216]
	mov	ecx, 51					; 00000033H
	mov	eax, -858993460				; ccccccccH
	rep stosd
	pop	ecx
	mov	eax, DWORD PTR ___security_cookie
	xor	eax, ebp
	push	eax
	lea	eax, DWORD PTR __$EHRec$[ebp]
	mov	DWORD PTR fs:0, eax
	mov	DWORD PTR _this$[ebp], ecx
	mov	ecx, OFFSET __A91506BA_chrono
	call	@__CheckForDebuggerJustMyCode@4

; 93   :             return _MyRep;

	mov	eax, DWORD PTR _this$[ebp]
	fld	QWORD PTR [eax]

; 94   :         }

	mov	ecx, DWORD PTR __$EHRec$[ebp]
	mov	DWORD PTR fs:0, ecx
	pop	ecx
	pop	edi
	pop	esi
	pop	ebx
	add	esp, 216				; 000000d8H
	cmp	ebp, esp
	call	__RTC_CheckEsp
	mov	esp, ebp
	pop	ebp
	ret	0
_TEXT	ENDS
;	COMDAT text$x
text$x	SEGMENT
__ehhandler$?count@?$duration@NU?$ratio@$00$00@std@@@chrono@std@@QBENXZ:
	mov	edx, DWORD PTR [esp+8]
	lea	eax, DWORD PTR [edx+12]
	mov	ecx, DWORD PTR [edx-220]
	xor	ecx, eax
	call	@__security_check_cookie@4
	mov	eax, OFFSET __ehfuncinfo$?count@?$duration@NU?$ratio@$00$00@std@@@chrono@std@@QBENXZ
	jmp	___CxxFrameHandler3
text$x	ENDS
?count@?$duration@NU?$ratio@$00$00@std@@@chrono@std@@QBENXZ ENDP ; std::chrono::duration<double,std::ratio<1,1> >::count
; Function compile flags: /Odtp /RTCsu /ZI
; File C:\Program Files (x86)\Microsoft Visual Studio\2019\Community\VC\Tools\MSVC\14.24.28314\include\chrono
;	COMDAT ??$?0_JX@?$duration@_JU?$ratio@$00$0DLJKMKAA@@std@@@chrono@std@@QAE@AB_J@Z
_TEXT	SEGMENT
_this$ = -20						; size = 4
__$EHRec$ = -12						; size = 12
__Val$ = 8						; size = 4
??$?0_JX@?$duration@_JU?$ratio@$00$0DLJKMKAA@@std@@@chrono@std@@QAE@AB_J@Z PROC ; std::chrono::duration<__int64,std::ratio<1,1000000000> >::duration<__int64,std::ratio<1,1000000000> ><__int64,void>, COMDAT
; _this$ = ecx

; 82   :             : _MyRep(static_cast<_Rep>(_Val)) {}

	push	ebp
	mov	ebp, esp
	push	-1
	push	__ehhandler$??$?0_JX@?$duration@_JU?$ratio@$00$0DLJKMKAA@@std@@@chrono@std@@QAE@AB_J@Z
	mov	eax, DWORD PTR fs:0
	push	eax
	sub	esp, 204				; 000000ccH
	push	ebx
	push	esi
	push	edi
	push	ecx
	lea	edi, DWORD PTR [ebp-216]
	mov	ecx, 51					; 00000033H
	mov	eax, -858993460				; ccccccccH
	rep stosd
	pop	ecx
	mov	eax, DWORD PTR ___security_cookie
	xor	eax, ebp
	push	eax
	lea	eax, DWORD PTR __$EHRec$[ebp]
	mov	DWORD PTR fs:0, eax
	mov	DWORD PTR _this$[ebp], ecx
	mov	ecx, OFFSET __A91506BA_chrono
	call	@__CheckForDebuggerJustMyCode@4
	mov	eax, DWORD PTR _this$[ebp]
	mov	ecx, DWORD PTR __Val$[ebp]
	mov	edx, DWORD PTR [ecx]
	mov	DWORD PTR [eax], edx
	mov	ecx, DWORD PTR [ecx+4]
	mov	DWORD PTR [eax+4], ecx
	mov	eax, DWORD PTR _this$[ebp]
	mov	ecx, DWORD PTR __$EHRec$[ebp]
	mov	DWORD PTR fs:0, ecx
	pop	ecx
	pop	edi
	pop	esi
	pop	ebx
	add	esp, 216				; 000000d8H
	cmp	ebp, esp
	call	__RTC_CheckEsp
	mov	esp, ebp
	pop	ebp
	ret	4
_TEXT	ENDS
;	COMDAT text$x
text$x	SEGMENT
__ehhandler$??$?0_JX@?$duration@_JU?$ratio@$00$0DLJKMKAA@@std@@@chrono@std@@QAE@AB_J@Z:
	mov	edx, DWORD PTR [esp+8]
	lea	eax, DWORD PTR [edx+12]
	mov	ecx, DWORD PTR [edx-220]
	xor	ecx, eax
	call	@__security_check_cookie@4
	mov	eax, OFFSET __ehfuncinfo$??$?0_JX@?$duration@_JU?$ratio@$00$0DLJKMKAA@@std@@@chrono@std@@QAE@AB_J@Z
	jmp	___CxxFrameHandler3
text$x	ENDS
??$?0_JX@?$duration@_JU?$ratio@$00$0DLJKMKAA@@std@@@chrono@std@@QAE@AB_J@Z ENDP ; std::chrono::duration<__int64,std::ratio<1,1000000000> >::duration<__int64,std::ratio<1,1000000000> ><__int64,void>
; Function compile flags: /Odtp /RTCsu /ZI
; File C:\Program Files (x86)\Microsoft Visual Studio\2019\Community\VC\Tools\MSVC\14.24.28314\include\chrono
;	COMDAT ?time_since_epoch@?$time_point@Usteady_clock@chrono@std@@V?$duration@_JU?$ratio@$00$0DLJKMKAA@@std@@@23@@chrono@std@@QBE?AV?$duration@_JU?$ratio@$00$0DLJKMKAA@@std@@@23@XZ
_TEXT	SEGMENT
_this$ = -20						; size = 4
__$EHRec$ = -12						; size = 12
___$ReturnUdt$ = 8					; size = 4
?time_since_epoch@?$time_point@Usteady_clock@chrono@std@@V?$duration@_JU?$ratio@$00$0DLJKMKAA@@std@@@23@@chrono@std@@QBE?AV?$duration@_JU?$ratio@$00$0DLJKMKAA@@std@@@23@XZ PROC ; std::chrono::time_point<std::chrono::steady_clock,std::chrono::duration<__int64,std::ratio<1,1000000000> > >::time_since_epoch, COMDAT
; _this$ = ecx

; 193  :         _NODISCARD constexpr _Duration time_since_epoch() const noexcept(is_arithmetic_v<rep>) /* strengthened */ {

	push	ebp
	mov	ebp, esp
	push	-1
	push	__ehhandler$?time_since_epoch@?$time_point@Usteady_clock@chrono@std@@V?$duration@_JU?$ratio@$00$0DLJKMKAA@@std@@@23@@chrono@std@@QBE?AV?$duration@_JU?$ratio@$00$0DLJKMKAA@@std@@@23@XZ
	mov	eax, DWORD PTR fs:0
	push	eax
	sub	esp, 204				; 000000ccH
	push	ebx
	push	esi
	push	edi
	push	ecx
	lea	edi, DWORD PTR [ebp-216]
	mov	ecx, 51					; 00000033H
	mov	eax, -858993460				; ccccccccH
	rep stosd
	pop	ecx
	mov	eax, DWORD PTR ___security_cookie
	xor	eax, ebp
	push	eax
	lea	eax, DWORD PTR __$EHRec$[ebp]
	mov	DWORD PTR fs:0, eax
	mov	DWORD PTR _this$[ebp], ecx
	mov	ecx, OFFSET __A91506BA_chrono
	call	@__CheckForDebuggerJustMyCode@4

; 194  :             return _MyDur;

	mov	eax, DWORD PTR _this$[ebp]
	mov	ecx, DWORD PTR [eax]
	mov	edx, DWORD PTR [eax+4]
	mov	eax, DWORD PTR ___$ReturnUdt$[ebp]
	mov	DWORD PTR [eax], ecx
	mov	DWORD PTR [eax+4], edx
	mov	eax, DWORD PTR ___$ReturnUdt$[ebp]

; 195  :         }

	mov	ecx, DWORD PTR __$EHRec$[ebp]
	mov	DWORD PTR fs:0, ecx
	pop	ecx
	pop	edi
	pop	esi
	pop	ebx
	add	esp, 216				; 000000d8H
	cmp	ebp, esp
	call	__RTC_CheckEsp
	mov	esp, ebp
	pop	ebp
	ret	4
_TEXT	ENDS
;	COMDAT text$x
text$x	SEGMENT
__ehhandler$?time_since_epoch@?$time_point@Usteady_clock@chrono@std@@V?$duration@_JU?$ratio@$00$0DLJKMKAA@@std@@@23@@chrono@std@@QBE?AV?$duration@_JU?$ratio@$00$0DLJKMKAA@@std@@@23@XZ:
	mov	edx, DWORD PTR [esp+8]
	lea	eax, DWORD PTR [edx+12]
	mov	ecx, DWORD PTR [edx-220]
	xor	ecx, eax
	call	@__security_check_cookie@4
	mov	eax, OFFSET __ehfuncinfo$?time_since_epoch@?$time_point@Usteady_clock@chrono@std@@V?$duration@_JU?$ratio@$00$0DLJKMKAA@@std@@@23@@chrono@std@@QBE?AV?$duration@_JU?$ratio@$00$0DLJKMKAA@@std@@@23@XZ
	jmp	___CxxFrameHandler3
text$x	ENDS
?time_since_epoch@?$time_point@Usteady_clock@chrono@std@@V?$duration@_JU?$ratio@$00$0DLJKMKAA@@std@@@23@@chrono@std@@QBE?AV?$duration@_JU?$ratio@$00$0DLJKMKAA@@std@@@23@XZ ENDP ; std::chrono::time_point<std::chrono::steady_clock,std::chrono::duration<__int64,std::ratio<1,1000000000> > >::time_since_epoch
; Function compile flags: /Odtp /RTCsu /ZI
; File C:\Program Files (x86)\Microsoft Visual Studio\2019\Community\VC\Tools\MSVC\14.24.28314\include\chrono
;	COMDAT ??0?$time_point@Usteady_clock@chrono@std@@V?$duration@_JU?$ratio@$00$0DLJKMKAA@@std@@@23@@chrono@std@@QAE@ABV?$duration@_JU?$ratio@$00$0DLJKMKAA@@std@@@12@@Z
_TEXT	SEGMENT
_this$ = -20						; size = 4
__$EHRec$ = -12						; size = 12
__Other$ = 8						; size = 4
??0?$time_point@Usteady_clock@chrono@std@@V?$duration@_JU?$ratio@$00$0DLJKMKAA@@std@@@23@@chrono@std@@QAE@ABV?$duration@_JU?$ratio@$00$0DLJKMKAA@@std@@@12@@Z PROC ; std::chrono::time_point<std::chrono::steady_clock,std::chrono::duration<__int64,std::ratio<1,1000000000> > >::time_point<std::chrono::steady_clock,std::chrono::duration<__int64,std::ratio<1,1000000000> > >, COMDAT
; _this$ = ecx

; 185  :         constexpr explicit time_point(const _Duration& _Other) noexcept(is_arithmetic_v<rep>) // strengthened

	push	ebp
	mov	ebp, esp
	push	-1
	push	__ehhandler$??0?$time_point@Usteady_clock@chrono@std@@V?$duration@_JU?$ratio@$00$0DLJKMKAA@@std@@@23@@chrono@std@@QAE@ABV?$duration@_JU?$ratio@$00$0DLJKMKAA@@std@@@12@@Z
	mov	eax, DWORD PTR fs:0
	push	eax
	sub	esp, 204				; 000000ccH
	push	ebx
	push	esi
	push	edi
	push	ecx
	lea	edi, DWORD PTR [ebp-216]
	mov	ecx, 51					; 00000033H
	mov	eax, -858993460				; ccccccccH
	rep stosd
	pop	ecx
	mov	eax, DWORD PTR ___security_cookie
	xor	eax, ebp
	push	eax
	lea	eax, DWORD PTR __$EHRec$[ebp]
	mov	DWORD PTR fs:0, eax
	mov	DWORD PTR _this$[ebp], ecx
	mov	ecx, OFFSET __A91506BA_chrono
	call	@__CheckForDebuggerJustMyCode@4

; 186  :             : _MyDur(_Other) {}

	mov	eax, DWORD PTR __Other$[ebp]
	mov	ecx, DWORD PTR [eax]
	mov	edx, DWORD PTR [eax+4]
	mov	eax, DWORD PTR _this$[ebp]
	mov	DWORD PTR [eax], ecx
	mov	DWORD PTR [eax+4], edx
	mov	eax, DWORD PTR _this$[ebp]
	mov	ecx, DWORD PTR __$EHRec$[ebp]
	mov	DWORD PTR fs:0, ecx
	pop	ecx
	pop	edi
	pop	esi
	pop	ebx
	add	esp, 216				; 000000d8H
	cmp	ebp, esp
	call	__RTC_CheckEsp
	mov	esp, ebp
	pop	ebp
	ret	4
_TEXT	ENDS
;	COMDAT text$x
text$x	SEGMENT
__ehhandler$??0?$time_point@Usteady_clock@chrono@std@@V?$duration@_JU?$ratio@$00$0DLJKMKAA@@std@@@23@@chrono@std@@QAE@ABV?$duration@_JU?$ratio@$00$0DLJKMKAA@@std@@@12@@Z:
	mov	edx, DWORD PTR [esp+8]
	lea	eax, DWORD PTR [edx+12]
	mov	ecx, DWORD PTR [edx-220]
	xor	ecx, eax
	call	@__security_check_cookie@4
	mov	eax, OFFSET __ehfuncinfo$??0?$time_point@Usteady_clock@chrono@std@@V?$duration@_JU?$ratio@$00$0DLJKMKAA@@std@@@23@@chrono@std@@QAE@ABV?$duration@_JU?$ratio@$00$0DLJKMKAA@@std@@@12@@Z
	jmp	___CxxFrameHandler3
text$x	ENDS
??0?$time_point@Usteady_clock@chrono@std@@V?$duration@_JU?$ratio@$00$0DLJKMKAA@@std@@@23@@chrono@std@@QAE@ABV?$duration@_JU?$ratio@$00$0DLJKMKAA@@std@@@12@@Z ENDP ; std::chrono::time_point<std::chrono::steady_clock,std::chrono::duration<__int64,std::ratio<1,1000000000> > >::time_point<std::chrono::steady_clock,std::chrono::duration<__int64,std::ratio<1,1000000000> > >
; Function compile flags: /Odtp /RTCsu /ZI
; File D:\Platformer\CPPGame-a38d0db726ab2ff89afdd02c18394bd0c58340c9\CPPGame-a38d0db726ab2ff89afdd02c18394bd0c58340c9\PlatformerGame\src\GameEngine\Start.cpp
; File C:\Program Files (x86)\Microsoft Visual Studio\2019\Community\VC\Tools\MSVC\14.24.28314\include\chrono
; File D:\Platformer\CPPGame-a38d0db726ab2ff89afdd02c18394bd0c58340c9\CPPGame-a38d0db726ab2ff89afdd02c18394bd0c58340c9\PlatformerGame\src\GameEngine\Start.cpp
;	COMDAT ??0?$time_point@Usteady_clock@chrono@std@@V?$duration@_JU?$ratio@$00$0DLJKMKAA@@std@@@23@@chrono@std@@QAE@XZ
_TEXT	SEGMENT
_this$ = -20						; size = 4
__$EHRec$ = -12						; size = 12
??0?$time_point@Usteady_clock@chrono@std@@V?$duration@_JU?$ratio@$00$0DLJKMKAA@@std@@@23@@chrono@std@@QAE@XZ PROC ; std::chrono::time_point<std::chrono::steady_clock,std::chrono::duration<__int64,std::ratio<1,1000000000> > >::time_point<std::chrono::steady_clock,std::chrono::duration<__int64,std::ratio<1,1000000000> > >, COMDAT
; _this$ = ecx

; 28   : std::chrono::time_point<std::chrono::high_resolution_clock> Time1, Time2,lastFrame,now;

	push	ebp
	mov	ebp, esp
	push	-1
	push	__ehhandler$??0?$time_point@Usteady_clock@chrono@std@@V?$duration@_JU?$ratio@$00$0DLJKMKAA@@std@@@23@@chrono@std@@QAE@XZ
	mov	eax, DWORD PTR fs:0
	push	eax
	sub	esp, 204				; 000000ccH
	push	ebx
	push	esi
	push	edi
	push	ecx
	lea	edi, DWORD PTR [ebp-216]
	mov	ecx, 51					; 00000033H
	mov	eax, -858993460				; ccccccccH
	rep stosd
	pop	ecx
	mov	eax, DWORD PTR ___security_cookie
	xor	eax, ebp
	push	eax
	lea	eax, DWORD PTR __$EHRec$[ebp]
	mov	DWORD PTR fs:0, eax
	mov	DWORD PTR _this$[ebp], ecx
	mov	ecx, OFFSET __CBA375CA_Start@cpp
	call	@__CheckForDebuggerJustMyCode@4
; File C:\Program Files (x86)\Microsoft Visual Studio\2019\Community\VC\Tools\MSVC\14.24.28314\include\chrono

; 216  :         _Duration _MyDur{duration::zero()}; // duration since the epoch

	mov	eax, DWORD PTR _this$[ebp]
	push	eax
	call	?zero@?$duration@_JU?$ratio@$00$0DLJKMKAA@@std@@@chrono@std@@SA?AV123@XZ ; std::chrono::duration<__int64,std::ratio<1,1000000000> >::zero
	add	esp, 4
; File D:\Platformer\CPPGame-a38d0db726ab2ff89afdd02c18394bd0c58340c9\CPPGame-a38d0db726ab2ff89afdd02c18394bd0c58340c9\PlatformerGame\src\GameEngine\Start.cpp

; 28   : std::chrono::time_point<std::chrono::high_resolution_clock> Time1, Time2,lastFrame,now;

	mov	eax, DWORD PTR _this$[ebp]
	mov	ecx, DWORD PTR __$EHRec$[ebp]
	mov	DWORD PTR fs:0, ecx
	pop	ecx
	pop	edi
	pop	esi
	pop	ebx
	add	esp, 216				; 000000d8H
	cmp	ebp, esp
	call	__RTC_CheckEsp
	mov	esp, ebp
	pop	ebp
	ret	0
_TEXT	ENDS
;	COMDAT text$x
text$x	SEGMENT
__ehhandler$??0?$time_point@Usteady_clock@chrono@std@@V?$duration@_JU?$ratio@$00$0DLJKMKAA@@std@@@23@@chrono@std@@QAE@XZ:
	mov	edx, DWORD PTR [esp+8]
	lea	eax, DWORD PTR [edx+12]
	mov	ecx, DWORD PTR [edx-220]
	xor	ecx, eax
	call	@__security_check_cookie@4
	mov	eax, OFFSET __ehfuncinfo$??0?$time_point@Usteady_clock@chrono@std@@V?$duration@_JU?$ratio@$00$0DLJKMKAA@@std@@@23@@chrono@std@@QAE@XZ
	jmp	___CxxFrameHandler3
text$x	ENDS
??0?$time_point@Usteady_clock@chrono@std@@V?$duration@_JU?$ratio@$00$0DLJKMKAA@@std@@@23@@chrono@std@@QAE@XZ ENDP ; std::chrono::time_point<std::chrono::steady_clock,std::chrono::duration<__int64,std::ratio<1,1000000000> > >::time_point<std::chrono::steady_clock,std::chrono::duration<__int64,std::ratio<1,1000000000> > >
; Function compile flags: /Odtp /RTCsu /ZI
; File C:\Program Files (x86)\Microsoft Visual Studio\2019\Community\VC\Tools\MSVC\14.24.28314\include\chrono
;	COMDAT ?zero@?$duration@_JU?$ratio@$00$0DLJKMKAA@@std@@@chrono@std@@SA?AV123@XZ
_TEXT	SEGMENT
$T2 = -216						; size = 8
__$EHRec$ = -12						; size = 12
___$ReturnUdt$ = 8					; size = 4
?zero@?$duration@_JU?$ratio@$00$0DLJKMKAA@@std@@@chrono@std@@SA?AV123@XZ PROC ; std::chrono::duration<__int64,std::ratio<1,1000000000> >::zero, COMDAT

; 154  :         _NODISCARD static constexpr duration zero() noexcept {

	push	ebp
	mov	ebp, esp
	push	-1
	push	__ehhandler$?zero@?$duration@_JU?$ratio@$00$0DLJKMKAA@@std@@@chrono@std@@SA?AV123@XZ
	mov	eax, DWORD PTR fs:0
	push	eax
	sub	esp, 208				; 000000d0H
	push	ebx
	push	esi
	push	edi
	lea	edi, DWORD PTR [ebp-220]
	mov	ecx, 52					; 00000034H
	mov	eax, -858993460				; ccccccccH
	rep stosd
	mov	eax, DWORD PTR ___security_cookie
	xor	eax, ebp
	push	eax
	lea	eax, DWORD PTR __$EHRec$[ebp]
	mov	DWORD PTR fs:0, eax
	mov	ecx, OFFSET __A91506BA_chrono
	call	@__CheckForDebuggerJustMyCode@4

; 155  :             // get zero value
; 156  :             return duration(duration_values<_Rep>::zero());

	call	?zero@?$duration_values@_J@chrono@std@@SA_JXZ ; std::chrono::duration_values<__int64>::zero
	mov	DWORD PTR $T2[ebp], eax
	mov	DWORD PTR $T2[ebp+4], edx
	lea	eax, DWORD PTR $T2[ebp]
	push	eax
	mov	ecx, DWORD PTR ___$ReturnUdt$[ebp]
	call	??$?0_JX@?$duration@_JU?$ratio@$00$0DLJKMKAA@@std@@@chrono@std@@QAE@AB_J@Z ; std::chrono::duration<__int64,std::ratio<1,1000000000> >::duration<__int64,std::ratio<1,1000000000> ><__int64,void>
	mov	eax, DWORD PTR ___$ReturnUdt$[ebp]

; 157  :         }

	mov	ecx, DWORD PTR __$EHRec$[ebp]
	mov	DWORD PTR fs:0, ecx
	pop	ecx
	pop	edi
	pop	esi
	pop	ebx
	add	esp, 220				; 000000dcH
	cmp	ebp, esp
	call	__RTC_CheckEsp
	mov	esp, ebp
	pop	ebp
	ret	0
_TEXT	ENDS
;	COMDAT text$x
text$x	SEGMENT
__ehhandler$?zero@?$duration@_JU?$ratio@$00$0DLJKMKAA@@std@@@chrono@std@@SA?AV123@XZ:
	mov	edx, DWORD PTR [esp+8]
	lea	eax, DWORD PTR [edx+12]
	mov	ecx, DWORD PTR [edx-224]
	xor	ecx, eax
	call	@__security_check_cookie@4
	mov	eax, OFFSET __ehfuncinfo$?zero@?$duration@_JU?$ratio@$00$0DLJKMKAA@@std@@@chrono@std@@SA?AV123@XZ
	jmp	___CxxFrameHandler3
text$x	ENDS
?zero@?$duration@_JU?$ratio@$00$0DLJKMKAA@@std@@@chrono@std@@SA?AV123@XZ ENDP ; std::chrono::duration<__int64,std::ratio<1,1000000000> >::zero
; Function compile flags: /Odtp /RTCsu /ZI
; File C:\Program Files (x86)\Microsoft Visual Studio\2019\Community\VC\Tools\MSVC\14.24.28314\include\chrono
;	COMDAT ?count@?$duration@_JU?$ratio@$00$0DLJKMKAA@@std@@@chrono@std@@QBE_JXZ
_TEXT	SEGMENT
_this$ = -20						; size = 4
__$EHRec$ = -12						; size = 12
?count@?$duration@_JU?$ratio@$00$0DLJKMKAA@@std@@@chrono@std@@QBE_JXZ PROC ; std::chrono::duration<__int64,std::ratio<1,1000000000> >::count, COMDAT
; _this$ = ecx

; 92   :         _NODISCARD constexpr _Rep count() const noexcept(is_arithmetic_v<_Rep>) /* strengthened */ {

	push	ebp
	mov	ebp, esp
	push	-1
	push	__ehhandler$?count@?$duration@_JU?$ratio@$00$0DLJKMKAA@@std@@@chrono@std@@QBE_JXZ
	mov	eax, DWORD PTR fs:0
	push	eax
	sub	esp, 204				; 000000ccH
	push	ebx
	push	esi
	push	edi
	push	ecx
	lea	edi, DWORD PTR [ebp-216]
	mov	ecx, 51					; 00000033H
	mov	eax, -858993460				; ccccccccH
	rep stosd
	pop	ecx
	mov	eax, DWORD PTR ___security_cookie
	xor	eax, ebp
	push	eax
	lea	eax, DWORD PTR __$EHRec$[ebp]
	mov	DWORD PTR fs:0, eax
	mov	DWORD PTR _this$[ebp], ecx
	mov	ecx, OFFSET __A91506BA_chrono
	call	@__CheckForDebuggerJustMyCode@4

; 93   :             return _MyRep;

	mov	ecx, DWORD PTR _this$[ebp]
	mov	eax, DWORD PTR [ecx]
	mov	edx, DWORD PTR [ecx+4]

; 94   :         }

	mov	ecx, DWORD PTR __$EHRec$[ebp]
	mov	DWORD PTR fs:0, ecx
	pop	ecx
	pop	edi
	pop	esi
	pop	ebx
	add	esp, 216				; 000000d8H
	cmp	ebp, esp
	call	__RTC_CheckEsp
	mov	esp, ebp
	pop	ebp
	ret	0
_TEXT	ENDS
;	COMDAT text$x
text$x	SEGMENT
__ehhandler$?count@?$duration@_JU?$ratio@$00$0DLJKMKAA@@std@@@chrono@std@@QBE_JXZ:
	mov	edx, DWORD PTR [esp+8]
	lea	eax, DWORD PTR [edx+12]
	mov	ecx, DWORD PTR [edx-220]
	xor	ecx, eax
	call	@__security_check_cookie@4
	mov	eax, OFFSET __ehfuncinfo$?count@?$duration@_JU?$ratio@$00$0DLJKMKAA@@std@@@chrono@std@@QBE_JXZ
	jmp	___CxxFrameHandler3
text$x	ENDS
?count@?$duration@_JU?$ratio@$00$0DLJKMKAA@@std@@@chrono@std@@QBE_JXZ ENDP ; std::chrono::duration<__int64,std::ratio<1,1000000000> >::count
; Function compile flags: /Odtp /RTCsu /ZI
; File C:\Program Files (x86)\Microsoft Visual Studio\2019\Community\VC\Tools\MSVC\14.24.28314\include\chrono
;	COMDAT ?now@steady_clock@chrono@std@@SA?AV?$time_point@Usteady_clock@chrono@std@@V?$duration@_JU?$ratio@$00$0DLJKMKAA@@std@@@23@@23@XZ
_TEXT	SEGMENT
$T2 = -296						; size = 8
$T3 = -280						; size = 8
__Part$ = -72						; size = 8
__Whole$ = -56						; size = 8
__Ctr$ = -40						; size = 8
__Freq$ = -24						; size = 8
__$EHRec$ = -12						; size = 12
___$ReturnUdt$ = 8					; size = 4
?now@steady_clock@chrono@std@@SA?AV?$time_point@Usteady_clock@chrono@std@@V?$duration@_JU?$ratio@$00$0DLJKMKAA@@std@@@23@@23@XZ PROC ; std::chrono::steady_clock::now, COMDAT

; 610  :         _NODISCARD static time_point now() noexcept { // get current time

	push	ebp
	mov	ebp, esp
	push	-1
	push	__ehhandler$?now@steady_clock@chrono@std@@SA?AV?$time_point@Usteady_clock@chrono@std@@V?$duration@_JU?$ratio@$00$0DLJKMKAA@@std@@@23@@23@XZ
	mov	eax, DWORD PTR fs:0
	push	eax
	sub	esp, 288				; 00000120H
	push	ebx
	push	esi
	push	edi
	lea	edi, DWORD PTR [ebp-300]
	mov	ecx, 72					; 00000048H
	mov	eax, -858993460				; ccccccccH
	rep stosd
	mov	eax, DWORD PTR ___security_cookie
	xor	eax, ebp
	push	eax
	lea	eax, DWORD PTR __$EHRec$[ebp]
	mov	DWORD PTR fs:0, eax
	mov	ecx, OFFSET __A91506BA_chrono
	call	@__CheckForDebuggerJustMyCode@4

; 611  :             const long long _Freq = _Query_perf_frequency(); // doesn't change after system boot

	call	__Query_perf_frequency
	mov	DWORD PTR __Freq$[ebp], eax
	mov	DWORD PTR __Freq$[ebp+4], edx

; 612  :             const long long _Ctr  = _Query_perf_counter();

	call	__Query_perf_counter
	mov	DWORD PTR __Ctr$[ebp], eax
	mov	DWORD PTR __Ctr$[ebp+4], edx

; 613  :             static_assert(period::num == 1, "This assumes period::num == 1.");
; 614  :             const long long _Whole = (_Ctr / _Freq) * period::den;

	mov	eax, DWORD PTR __Freq$[ebp+4]
	push	eax
	mov	ecx, DWORD PTR __Freq$[ebp]
	push	ecx
	mov	edx, DWORD PTR __Ctr$[ebp+4]
	push	edx
	mov	eax, DWORD PTR __Ctr$[ebp]
	push	eax
	call	__alldiv
	push	0
	push	1000000000				; 3b9aca00H
	push	edx
	push	eax
	call	__allmul
	mov	DWORD PTR __Whole$[ebp], eax
	mov	DWORD PTR __Whole$[ebp+4], edx

; 615  :             const long long _Part  = (_Ctr % _Freq) * period::den / _Freq;

	mov	eax, DWORD PTR __Freq$[ebp+4]
	push	eax
	mov	ecx, DWORD PTR __Freq$[ebp]
	push	ecx
	mov	edx, DWORD PTR __Ctr$[ebp+4]
	push	edx
	mov	eax, DWORD PTR __Ctr$[ebp]
	push	eax
	call	__allrem
	push	0
	push	1000000000				; 3b9aca00H
	push	edx
	push	eax
	call	__allmul
	mov	ecx, DWORD PTR __Freq$[ebp+4]
	push	ecx
	mov	ecx, DWORD PTR __Freq$[ebp]
	push	ecx
	push	edx
	push	eax
	call	__alldiv
	mov	DWORD PTR __Part$[ebp], eax
	mov	DWORD PTR __Part$[ebp+4], edx

; 616  :             return time_point(duration(_Whole + _Part));

	mov	eax, DWORD PTR __Whole$[ebp]
	add	eax, DWORD PTR __Part$[ebp]
	mov	ecx, DWORD PTR __Whole$[ebp+4]
	adc	ecx, DWORD PTR __Part$[ebp+4]
	mov	DWORD PTR $T2[ebp], eax
	mov	DWORD PTR $T2[ebp+4], ecx
	lea	edx, DWORD PTR $T2[ebp]
	push	edx
	lea	ecx, DWORD PTR $T3[ebp]
	call	??$?0_JX@?$duration@_JU?$ratio@$00$0DLJKMKAA@@std@@@chrono@std@@QAE@AB_J@Z ; std::chrono::duration<__int64,std::ratio<1,1000000000> >::duration<__int64,std::ratio<1,1000000000> ><__int64,void>
	push	eax
	mov	ecx, DWORD PTR ___$ReturnUdt$[ebp]
	call	??0?$time_point@Usteady_clock@chrono@std@@V?$duration@_JU?$ratio@$00$0DLJKMKAA@@std@@@23@@chrono@std@@QAE@ABV?$duration@_JU?$ratio@$00$0DLJKMKAA@@std@@@12@@Z ; std::chrono::time_point<std::chrono::steady_clock,std::chrono::duration<__int64,std::ratio<1,1000000000> > >::time_point<std::chrono::steady_clock,std::chrono::duration<__int64,std::ratio<1,1000000000> > >
	mov	eax, DWORD PTR ___$ReturnUdt$[ebp]

; 617  :         }

	mov	ecx, DWORD PTR __$EHRec$[ebp]
	mov	DWORD PTR fs:0, ecx
	pop	ecx
	pop	edi
	pop	esi
	pop	ebx
	add	esp, 300				; 0000012cH
	cmp	ebp, esp
	call	__RTC_CheckEsp
	mov	esp, ebp
	pop	ebp
	ret	0
_TEXT	ENDS
;	COMDAT text$x
text$x	SEGMENT
__ehhandler$?now@steady_clock@chrono@std@@SA?AV?$time_point@Usteady_clock@chrono@std@@V?$duration@_JU?$ratio@$00$0DLJKMKAA@@std@@@23@@23@XZ:
	mov	edx, DWORD PTR [esp+8]
	lea	eax, DWORD PTR [edx+12]
	mov	ecx, DWORD PTR [edx-304]
	xor	ecx, eax
	call	@__security_check_cookie@4
	mov	eax, OFFSET __ehfuncinfo$?now@steady_clock@chrono@std@@SA?AV?$time_point@Usteady_clock@chrono@std@@V?$duration@_JU?$ratio@$00$0DLJKMKAA@@std@@@23@@23@XZ
	jmp	___CxxFrameHandler3
text$x	ENDS
?now@steady_clock@chrono@std@@SA?AV?$time_point@Usteady_clock@chrono@std@@V?$duration@_JU?$ratio@$00$0DLJKMKAA@@std@@@23@@23@XZ ENDP ; std::chrono::steady_clock::now
; Function compile flags: /Odtp /RTCsu /ZI
;	COMDAT ?__autoclassinit2@Entity@@QAEXI@Z
_TEXT	SEGMENT
_this$ = -8						; size = 4
_classSize$ = 8						; size = 4
?__autoclassinit2@Entity@@QAEXI@Z PROC			; Entity::__autoclassinit2, COMDAT
; _this$ = ecx
	push	ebp
	mov	ebp, esp
	sub	esp, 204				; 000000ccH
	push	ebx
	push	esi
	push	edi
	push	ecx
	lea	edi, DWORD PTR [ebp-204]
	mov	ecx, 51					; 00000033H
	mov	eax, -858993460				; ccccccccH
	rep stosd
	pop	ecx
	mov	DWORD PTR _this$[ebp], ecx
	mov	eax, DWORD PTR _classSize$[ebp]
	push	eax
	push	0
	mov	ecx, DWORD PTR _this$[ebp]
	push	ecx
	call	_memset
	add	esp, 12					; 0000000cH
	pop	edi
	pop	esi
	pop	ebx
	add	esp, 204				; 000000ccH
	cmp	ebp, esp
	call	__RTC_CheckEsp
	mov	esp, ebp
	pop	ebp
	ret	4
?__autoclassinit2@Entity@@QAEXI@Z ENDP			; Entity::__autoclassinit2
_TEXT	ENDS
; Function compile flags: /Odtp /RTCsu /ZI
;	COMDAT ?__autoclassinit2@Window@@QAEXI@Z
_TEXT	SEGMENT
_this$ = -8						; size = 4
_classSize$ = 8						; size = 4
?__autoclassinit2@Window@@QAEXI@Z PROC			; Window::__autoclassinit2, COMDAT
; _this$ = ecx
	push	ebp
	mov	ebp, esp
	sub	esp, 204				; 000000ccH
	push	ebx
	push	esi
	push	edi
	push	ecx
	lea	edi, DWORD PTR [ebp-204]
	mov	ecx, 51					; 00000033H
	mov	eax, -858993460				; ccccccccH
	rep stosd
	pop	ecx
	mov	DWORD PTR _this$[ebp], ecx
	mov	eax, DWORD PTR _classSize$[ebp]
	push	eax
	push	0
	mov	ecx, DWORD PTR _this$[ebp]
	push	ecx
	call	_memset
	add	esp, 12					; 0000000cH
	pop	edi
	pop	esi
	pop	ebx
	add	esp, 204				; 000000ccH
	cmp	ebp, esp
	call	__RTC_CheckEsp
	mov	esp, ebp
	pop	ebp
	ret	4
?__autoclassinit2@Window@@QAEXI@Z ENDP			; Window::__autoclassinit2
_TEXT	ENDS
; Function compile flags: /Odtp /RTCsu /ZI
; File D:\Platformer\CPPGame-a38d0db726ab2ff89afdd02c18394bd0c58340c9\CPPGame-a38d0db726ab2ff89afdd02c18394bd0c58340c9\PlatformerGame\src\GameEngine\HeaderFiles\Vendor\glm\detail\type_vec3.inl
;	COMDAT ??0?$vec@$02M$0A@@glm@@QAE@M@Z
_TEXT	SEGMENT
_this$ = -8						; size = 4
_scalar$ = 8						; size = 4
??0?$vec@$02M$0A@@glm@@QAE@M@Z PROC			; glm::vec<3,float,0>::vec<3,float,0>, COMDAT
; _this$ = ecx

; 34   : 	{}

	push	ebp
	mov	ebp, esp
	sub	esp, 204				; 000000ccH
	push	ebx
	push	esi
	push	edi
	push	ecx
	lea	edi, DWORD PTR [ebp-204]
	mov	ecx, 51					; 00000033H
	mov	eax, -858993460				; ccccccccH
	rep stosd
	pop	ecx
	mov	DWORD PTR _this$[ebp], ecx
	mov	ecx, OFFSET __05392703_type_vec3@inl
	call	@__CheckForDebuggerJustMyCode@4

; 33   : 		: x(scalar), y(scalar), z(scalar)

	mov	eax, DWORD PTR _this$[ebp]
	movss	xmm0, DWORD PTR _scalar$[ebp]
	movss	DWORD PTR [eax], xmm0
	mov	eax, DWORD PTR _this$[ebp]
	movss	xmm0, DWORD PTR _scalar$[ebp]
	movss	DWORD PTR [eax+4], xmm0
	mov	eax, DWORD PTR _this$[ebp]
	movss	xmm0, DWORD PTR _scalar$[ebp]
	movss	DWORD PTR [eax+8], xmm0

; 34   : 	{}

	mov	eax, DWORD PTR _this$[ebp]
	pop	edi
	pop	esi
	pop	ebx
	add	esp, 204				; 000000ccH
	cmp	ebp, esp
	call	__RTC_CheckEsp
	mov	esp, ebp
	pop	ebp
	ret	4
??0?$vec@$02M$0A@@glm@@QAE@M@Z ENDP			; glm::vec<3,float,0>::vec<3,float,0>
_TEXT	ENDS
; Function compile flags: /Odtp /RTCsu /ZI
;	COMDAT ?__autoclassinit2@Texture@@QAEXI@Z
_TEXT	SEGMENT
_this$ = -8						; size = 4
_classSize$ = 8						; size = 4
?__autoclassinit2@Texture@@QAEXI@Z PROC			; Texture::__autoclassinit2, COMDAT
; _this$ = ecx
	push	ebp
	mov	ebp, esp
	sub	esp, 204				; 000000ccH
	push	ebx
	push	esi
	push	edi
	push	ecx
	lea	edi, DWORD PTR [ebp-204]
	mov	ecx, 51					; 00000033H
	mov	eax, -858993460				; ccccccccH
	rep stosd
	pop	ecx
	mov	DWORD PTR _this$[ebp], ecx
	mov	eax, DWORD PTR _classSize$[ebp]
	push	eax
	push	0
	mov	ecx, DWORD PTR _this$[ebp]
	push	ecx
	call	_memset
	add	esp, 12					; 0000000cH
	pop	edi
	pop	esi
	pop	ebx
	add	esp, 204				; 000000ccH
	cmp	ebp, esp
	call	__RTC_CheckEsp
	mov	esp, ebp
	pop	ebp
	ret	4
?__autoclassinit2@Texture@@QAEXI@Z ENDP			; Texture::__autoclassinit2
_TEXT	ENDS
; Function compile flags: /Odtp /RTCsu /ZI
;	COMDAT ??1?$_Compressed_pair@V?$allocator@D@std@@V?$_String_val@U?$_Simple_types@D@std@@@2@$00@std@@QAE@XZ
_TEXT	SEGMENT
_this$ = -8						; size = 4
??1?$_Compressed_pair@V?$allocator@D@std@@V?$_String_val@U?$_Simple_types@D@std@@@2@$00@std@@QAE@XZ PROC ; std::_Compressed_pair<std::allocator<char>,std::_String_val<std::_Simple_types<char> >,1>::~_Compressed_pair<std::allocator<char>,std::_String_val<std::_Simple_types<char> >,1>, COMDAT
; _this$ = ecx
	push	ebp
	mov	ebp, esp
	sub	esp, 204				; 000000ccH
	push	ebx
	push	esi
	push	edi
	push	ecx
	lea	edi, DWORD PTR [ebp-204]
	mov	ecx, 51					; 00000033H
	mov	eax, -858993460				; ccccccccH
	rep stosd
	pop	ecx
	mov	DWORD PTR _this$[ebp], ecx
	mov	ecx, DWORD PTR _this$[ebp]
	call	??1?$_String_val@U?$_Simple_types@D@std@@@std@@QAE@XZ
	pop	edi
	pop	esi
	pop	ebx
	add	esp, 204				; 000000ccH
	cmp	ebp, esp
	call	__RTC_CheckEsp
	mov	esp, ebp
	pop	ebp
	ret	0
??1?$_Compressed_pair@V?$allocator@D@std@@V?$_String_val@U?$_Simple_types@D@std@@@2@$00@std@@QAE@XZ ENDP ; std::_Compressed_pair<std::allocator<char>,std::_String_val<std::_Simple_types<char> >,1>::~_Compressed_pair<std::allocator<char>,std::_String_val<std::_Simple_types<char> >,1>
_TEXT	ENDS
; Function compile flags: /Odtp /RTCsu /ZI
; File C:\Program Files (x86)\Microsoft Visual Studio\2019\Community\VC\Tools\MSVC\14.24.28314\include\xmemory
;	COMDAT ?_Get_first@?$_Compressed_pair@V?$allocator@D@std@@V?$_String_val@U?$_Simple_types@D@std@@@2@$00@std@@QBEABV?$allocator@D@2@XZ
_TEXT	SEGMENT
_this$ = -20						; size = 4
__$EHRec$ = -12						; size = 12
?_Get_first@?$_Compressed_pair@V?$allocator@D@std@@V?$_String_val@U?$_Simple_types@D@std@@@2@$00@std@@QBEABV?$allocator@D@2@XZ PROC ; std::_Compressed_pair<std::allocator<char>,std::_String_val<std::_Simple_types<char> >,1>::_Get_first, COMDAT
; _this$ = ecx

; 1339 :     const _Ty1& _Get_first() const noexcept {

	push	ebp
	mov	ebp, esp
	push	-1
	push	__ehhandler$?_Get_first@?$_Compressed_pair@V?$allocator@D@std@@V?$_String_val@U?$_Simple_types@D@std@@@2@$00@std@@QBEABV?$allocator@D@2@XZ
	mov	eax, DWORD PTR fs:0
	push	eax
	sub	esp, 204				; 000000ccH
	push	ebx
	push	esi
	push	edi
	push	ecx
	lea	edi, DWORD PTR [ebp-216]
	mov	ecx, 51					; 00000033H
	mov	eax, -858993460				; ccccccccH
	rep stosd
	pop	ecx
	mov	eax, DWORD PTR ___security_cookie
	xor	eax, ebp
	push	eax
	lea	eax, DWORD PTR __$EHRec$[ebp]
	mov	DWORD PTR fs:0, eax
	mov	DWORD PTR _this$[ebp], ecx
	mov	ecx, OFFSET __B1B75AB9_xmemory
	call	@__CheckForDebuggerJustMyCode@4

; 1340 :         return *this;

	mov	eax, DWORD PTR _this$[ebp]

; 1341 :     }

	mov	ecx, DWORD PTR __$EHRec$[ebp]
	mov	DWORD PTR fs:0, ecx
	pop	ecx
	pop	edi
	pop	esi
	pop	ebx
	add	esp, 216				; 000000d8H
	cmp	ebp, esp
	call	__RTC_CheckEsp
	mov	esp, ebp
	pop	ebp
	ret	0
_TEXT	ENDS
;	COMDAT text$x
text$x	SEGMENT
__ehhandler$?_Get_first@?$_Compressed_pair@V?$allocator@D@std@@V?$_String_val@U?$_Simple_types@D@std@@@2@$00@std@@QBEABV?$allocator@D@2@XZ:
	mov	edx, DWORD PTR [esp+8]
	lea	eax, DWORD PTR [edx+12]
	mov	ecx, DWORD PTR [edx-220]
	xor	ecx, eax
	call	@__security_check_cookie@4
	mov	eax, OFFSET __ehfuncinfo$?_Get_first@?$_Compressed_pair@V?$allocator@D@std@@V?$_String_val@U?$_Simple_types@D@std@@@2@$00@std@@QBEABV?$allocator@D@2@XZ
	jmp	___CxxFrameHandler3
text$x	ENDS
?_Get_first@?$_Compressed_pair@V?$allocator@D@std@@V?$_String_val@U?$_Simple_types@D@std@@@2@$00@std@@QBEABV?$allocator@D@2@XZ ENDP ; std::_Compressed_pair<std::allocator<char>,std::_String_val<std::_Simple_types<char> >,1>::_Get_first
; Function compile flags: /Odtp /RTCsu /ZI
; File C:\Program Files (x86)\Microsoft Visual Studio\2019\Community\VC\Tools\MSVC\14.24.28314\include\xmemory
;	COMDAT ?_Get_first@?$_Compressed_pair@V?$allocator@D@std@@V?$_String_val@U?$_Simple_types@D@std@@@2@$00@std@@QAEAAV?$allocator@D@2@XZ
_TEXT	SEGMENT
_this$ = -20						; size = 4
__$EHRec$ = -12						; size = 12
?_Get_first@?$_Compressed_pair@V?$allocator@D@std@@V?$_String_val@U?$_Simple_types@D@std@@@2@$00@std@@QAEAAV?$allocator@D@2@XZ PROC ; std::_Compressed_pair<std::allocator<char>,std::_String_val<std::_Simple_types<char> >,1>::_Get_first, COMDAT
; _this$ = ecx

; 1335 :     _Ty1& _Get_first() noexcept {

	push	ebp
	mov	ebp, esp
	push	-1
	push	__ehhandler$?_Get_first@?$_Compressed_pair@V?$allocator@D@std@@V?$_String_val@U?$_Simple_types@D@std@@@2@$00@std@@QAEAAV?$allocator@D@2@XZ
	mov	eax, DWORD PTR fs:0
	push	eax
	sub	esp, 204				; 000000ccH
	push	ebx
	push	esi
	push	edi
	push	ecx
	lea	edi, DWORD PTR [ebp-216]
	mov	ecx, 51					; 00000033H
	mov	eax, -858993460				; ccccccccH
	rep stosd
	pop	ecx
	mov	eax, DWORD PTR ___security_cookie
	xor	eax, ebp
	push	eax
	lea	eax, DWORD PTR __$EHRec$[ebp]
	mov	DWORD PTR fs:0, eax
	mov	DWORD PTR _this$[ebp], ecx
	mov	ecx, OFFSET __B1B75AB9_xmemory
	call	@__CheckForDebuggerJustMyCode@4

; 1336 :         return *this;

	mov	eax, DWORD PTR _this$[ebp]

; 1337 :     }

	mov	ecx, DWORD PTR __$EHRec$[ebp]
	mov	DWORD PTR fs:0, ecx
	pop	ecx
	pop	edi
	pop	esi
	pop	ebx
	add	esp, 216				; 000000d8H
	cmp	ebp, esp
	call	__RTC_CheckEsp
	mov	esp, ebp
	pop	ebp
	ret	0
_TEXT	ENDS
;	COMDAT text$x
text$x	SEGMENT
__ehhandler$?_Get_first@?$_Compressed_pair@V?$allocator@D@std@@V?$_String_val@U?$_Simple_types@D@std@@@2@$00@std@@QAEAAV?$allocator@D@2@XZ:
	mov	edx, DWORD PTR [esp+8]
	lea	eax, DWORD PTR [edx+12]
	mov	ecx, DWORD PTR [edx-220]
	xor	ecx, eax
	call	@__security_check_cookie@4
	mov	eax, OFFSET __ehfuncinfo$?_Get_first@?$_Compressed_pair@V?$allocator@D@std@@V?$_String_val@U?$_Simple_types@D@std@@@2@$00@std@@QAEAAV?$allocator@D@2@XZ
	jmp	___CxxFrameHandler3
text$x	ENDS
?_Get_first@?$_Compressed_pair@V?$allocator@D@std@@V?$_String_val@U?$_Simple_types@D@std@@@2@$00@std@@QAEAAV?$allocator@D@2@XZ ENDP ; std::_Compressed_pair<std::allocator<char>,std::_String_val<std::_Simple_types<char> >,1>::_Get_first
; Function compile flags: /Odtp /RTCsu /ZI
; File C:\Program Files (x86)\Microsoft Visual Studio\2019\Community\VC\Tools\MSVC\14.24.28314\include\xstring
;	COMDAT ?_Getal@?$basic_string@DU?$char_traits@D@std@@V?$allocator@D@2@@std@@ABEABV?$allocator@D@2@XZ
_TEXT	SEGMENT
_this$ = -20						; size = 4
__$EHRec$ = -12						; size = 12
?_Getal@?$basic_string@DU?$char_traits@D@std@@V?$allocator@D@2@@std@@ABEABV?$allocator@D@2@XZ PROC ; std::basic_string<char,std::char_traits<char>,std::allocator<char> >::_Getal, COMDAT
; _this$ = ecx

; 4219 :     const _Alty& _Getal() const noexcept {

	push	ebp
	mov	ebp, esp
	push	-1
	push	__ehhandler$?_Getal@?$basic_string@DU?$char_traits@D@std@@V?$allocator@D@2@@std@@ABEABV?$allocator@D@2@XZ
	mov	eax, DWORD PTR fs:0
	push	eax
	sub	esp, 204				; 000000ccH
	push	ebx
	push	esi
	push	edi
	push	ecx
	lea	edi, DWORD PTR [ebp-216]
	mov	ecx, 51					; 00000033H
	mov	eax, -858993460				; ccccccccH
	rep stosd
	pop	ecx
	mov	eax, DWORD PTR ___security_cookie
	xor	eax, ebp
	push	eax
	lea	eax, DWORD PTR __$EHRec$[ebp]
	mov	DWORD PTR fs:0, eax
	mov	DWORD PTR _this$[ebp], ecx
	mov	ecx, OFFSET __C564DC25_xstring
	call	@__CheckForDebuggerJustMyCode@4

; 4220 :         return _Mypair._Get_first();

	mov	ecx, DWORD PTR _this$[ebp]
	call	?_Get_first@?$_Compressed_pair@V?$allocator@D@std@@V?$_String_val@U?$_Simple_types@D@std@@@2@$00@std@@QBEABV?$allocator@D@2@XZ ; std::_Compressed_pair<std::allocator<char>,std::_String_val<std::_Simple_types<char> >,1>::_Get_first

; 4221 :     }

	mov	ecx, DWORD PTR __$EHRec$[ebp]
	mov	DWORD PTR fs:0, ecx
	pop	ecx
	pop	edi
	pop	esi
	pop	ebx
	add	esp, 216				; 000000d8H
	cmp	ebp, esp
	call	__RTC_CheckEsp
	mov	esp, ebp
	pop	ebp
	ret	0
_TEXT	ENDS
;	COMDAT text$x
text$x	SEGMENT
__ehhandler$?_Getal@?$basic_string@DU?$char_traits@D@std@@V?$allocator@D@2@@std@@ABEABV?$allocator@D@2@XZ:
	mov	edx, DWORD PTR [esp+8]
	lea	eax, DWORD PTR [edx+12]
	mov	ecx, DWORD PTR [edx-220]
	xor	ecx, eax
	call	@__security_check_cookie@4
	mov	eax, OFFSET __ehfuncinfo$?_Getal@?$basic_string@DU?$char_traits@D@std@@V?$allocator@D@2@@std@@ABEABV?$allocator@D@2@XZ
	jmp	___CxxFrameHandler3
text$x	ENDS
?_Getal@?$basic_string@DU?$char_traits@D@std@@V?$allocator@D@2@@std@@ABEABV?$allocator@D@2@XZ ENDP ; std::basic_string<char,std::char_traits<char>,std::allocator<char> >::_Getal
; Function compile flags: /Odtp /RTCsu /ZI
; File C:\Program Files (x86)\Microsoft Visual Studio\2019\Community\VC\Tools\MSVC\14.24.28314\include\xstring
;	COMDAT ?_Getal@?$basic_string@DU?$char_traits@D@std@@V?$allocator@D@2@@std@@AAEAAV?$allocator@D@2@XZ
_TEXT	SEGMENT
_this$ = -20						; size = 4
__$EHRec$ = -12						; size = 12
?_Getal@?$basic_string@DU?$char_traits@D@std@@V?$allocator@D@2@@std@@AAEAAV?$allocator@D@2@XZ PROC ; std::basic_string<char,std::char_traits<char>,std::allocator<char> >::_Getal, COMDAT
; _this$ = ecx

; 4215 :     _Alty& _Getal() noexcept {

	push	ebp
	mov	ebp, esp
	push	-1
	push	__ehhandler$?_Getal@?$basic_string@DU?$char_traits@D@std@@V?$allocator@D@2@@std@@AAEAAV?$allocator@D@2@XZ
	mov	eax, DWORD PTR fs:0
	push	eax
	sub	esp, 204				; 000000ccH
	push	ebx
	push	esi
	push	edi
	push	ecx
	lea	edi, DWORD PTR [ebp-216]
	mov	ecx, 51					; 00000033H
	mov	eax, -858993460				; ccccccccH
	rep stosd
	pop	ecx
	mov	eax, DWORD PTR ___security_cookie
	xor	eax, ebp
	push	eax
	lea	eax, DWORD PTR __$EHRec$[ebp]
	mov	DWORD PTR fs:0, eax
	mov	DWORD PTR _this$[ebp], ecx
	mov	ecx, OFFSET __C564DC25_xstring
	call	@__CheckForDebuggerJustMyCode@4

; 4216 :         return _Mypair._Get_first();

	mov	ecx, DWORD PTR _this$[ebp]
	call	?_Get_first@?$_Compressed_pair@V?$allocator@D@std@@V?$_String_val@U?$_Simple_types@D@std@@@2@$00@std@@QAEAAV?$allocator@D@2@XZ ; std::_Compressed_pair<std::allocator<char>,std::_String_val<std::_Simple_types<char> >,1>::_Get_first

; 4217 :     }

	mov	ecx, DWORD PTR __$EHRec$[ebp]
	mov	DWORD PTR fs:0, ecx
	pop	ecx
	pop	edi
	pop	esi
	pop	ebx
	add	esp, 216				; 000000d8H
	cmp	ebp, esp
	call	__RTC_CheckEsp
	mov	esp, ebp
	pop	ebp
	ret	0
_TEXT	ENDS
;	COMDAT text$x
text$x	SEGMENT
__ehhandler$?_Getal@?$basic_string@DU?$char_traits@D@std@@V?$allocator@D@2@@std@@AAEAAV?$allocator@D@2@XZ:
	mov	edx, DWORD PTR [esp+8]
	lea	eax, DWORD PTR [edx+12]
	mov	ecx, DWORD PTR [edx-220]
	xor	ecx, eax
	call	@__security_check_cookie@4
	mov	eax, OFFSET __ehfuncinfo$?_Getal@?$basic_string@DU?$char_traits@D@std@@V?$allocator@D@2@@std@@AAEAAV?$allocator@D@2@XZ
	jmp	___CxxFrameHandler3
text$x	ENDS
?_Getal@?$basic_string@DU?$char_traits@D@std@@V?$allocator@D@2@@std@@AAEAAV?$allocator@D@2@XZ ENDP ; std::basic_string<char,std::char_traits<char>,std::allocator<char> >::_Getal
; Function compile flags: /Odtp /RTCsu /ZI
; File C:\Program Files (x86)\Microsoft Visual Studio\2019\Community\VC\Tools\MSVC\14.24.28314\include\xstring
;	COMDAT ?_Xlen@?$basic_string@DU?$char_traits@D@std@@V?$allocator@D@2@@std@@CAXXZ
_TEXT	SEGMENT
?_Xlen@?$basic_string@DU?$char_traits@D@std@@V?$allocator@D@2@@std@@CAXXZ PROC ; std::basic_string<char,std::char_traits<char>,std::allocator<char> >::_Xlen, COMDAT

; 4201 :     [[noreturn]] static void _Xlen() {

	push	ebp
	mov	ebp, esp
	sub	esp, 192				; 000000c0H
	push	ebx
	push	esi
	push	edi
	lea	edi, DWORD PTR [ebp-192]
	mov	ecx, 48					; 00000030H
	mov	eax, -858993460				; ccccccccH
	rep stosd
	mov	ecx, OFFSET __C564DC25_xstring
	call	@__CheckForDebuggerJustMyCode@4

; 4202 :         _Xlength_error("string too long");

	push	OFFSET ??_C@_0BA@JFNIOLAK@string?5too?5long@
	call	?_Xlength_error@std@@YAXPBD@Z		; std::_Xlength_error
$LN2@Xlen:

; 4203 :     }

	pop	edi
	pop	esi
	pop	ebx
	add	esp, 192				; 000000c0H
	cmp	ebp, esp
	call	__RTC_CheckEsp
	mov	esp, ebp
	pop	ebp
	ret	0
?_Xlen@?$basic_string@DU?$char_traits@D@std@@V?$allocator@D@2@@std@@CAXXZ ENDP ; std::basic_string<char,std::char_traits<char>,std::allocator<char> >::_Xlen
_TEXT	ENDS
; Function compile flags: /Odtp /RTCsu /ZI
; File C:\Program Files (x86)\Microsoft Visual Studio\2019\Community\VC\Tools\MSVC\14.24.28314\include\xstring
;	COMDAT ?_Tidy_deallocate@?$basic_string@DU?$char_traits@D@std@@V?$allocator@D@2@@std@@AAEXXZ
_TEXT	SEGMENT
$T2 = -245						; size = 1
__Al$3 = -44						; size = 4
__Ptr$4 = -32						; size = 4
_this$ = -20						; size = 4
__$EHRec$ = -12						; size = 12
?_Tidy_deallocate@?$basic_string@DU?$char_traits@D@std@@V?$allocator@D@2@@std@@AAEXXZ PROC ; std::basic_string<char,std::char_traits<char>,std::allocator<char> >::_Tidy_deallocate, COMDAT
; _this$ = ecx

; 4185 :     void _Tidy_deallocate() noexcept { // initialize buffer, deallocating any storage

	push	ebp
	mov	ebp, esp
	push	-1
	push	__ehhandler$?_Tidy_deallocate@?$basic_string@DU?$char_traits@D@std@@V?$allocator@D@2@@std@@AAEXXZ
	mov	eax, DWORD PTR fs:0
	push	eax
	sub	esp, 240				; 000000f0H
	push	ebx
	push	esi
	push	edi
	push	ecx
	lea	edi, DWORD PTR [ebp-252]
	mov	ecx, 60					; 0000003cH
	mov	eax, -858993460				; ccccccccH
	rep stosd
	pop	ecx
	mov	eax, DWORD PTR ___security_cookie
	xor	eax, ebp
	push	eax
	lea	eax, DWORD PTR __$EHRec$[ebp]
	mov	DWORD PTR fs:0, eax
	mov	DWORD PTR _this$[ebp], ecx
	mov	ecx, OFFSET __C564DC25_xstring
	call	@__CheckForDebuggerJustMyCode@4

; 4186 :         _Mypair._Myval2._Orphan_all();

	mov	ecx, DWORD PTR _this$[ebp]
	call	?_Orphan_all@_Container_base12@std@@QAEXXZ ; std::_Container_base12::_Orphan_all

; 4187 :         if (_Mypair._Myval2._Large_string_engaged()) {

	mov	ecx, DWORD PTR _this$[ebp]
	call	?_Large_string_engaged@?$_String_val@U?$_Simple_types@D@std@@@std@@QBE_NXZ ; std::_String_val<std::_Simple_types<char> >::_Large_string_engaged
	movzx	eax, al
	test	eax, eax
	je	SHORT $LN2@Tidy_deall

; 4188 :             const pointer _Ptr = _Mypair._Myval2._Bx._Ptr;

	mov	eax, DWORD PTR _this$[ebp]
	mov	ecx, DWORD PTR [eax+4]
	mov	DWORD PTR __Ptr$4[ebp], ecx

; 4189 :             auto& _Al          = _Getal();

	mov	ecx, DWORD PTR _this$[ebp]
	call	?_Getal@?$basic_string@DU?$char_traits@D@std@@V?$allocator@D@2@@std@@AAEAAV?$allocator@D@2@XZ ; std::basic_string<char,std::char_traits<char>,std::allocator<char> >::_Getal
	mov	DWORD PTR __Al$3[ebp], eax

; 4190 :             _Destroy_in_place(_Mypair._Myval2._Bx._Ptr);

	mov	eax, DWORD PTR _this$[ebp]
	add	eax, 4
	push	eax
	call	??$_Destroy_in_place@PAD@std@@YAXAAPAD@Z ; std::_Destroy_in_place<char *>
	add	esp, 4

; 4191 :             _Al.deallocate(_Ptr, _Mypair._Myval2._Myres + 1);

	mov	eax, DWORD PTR _this$[ebp]
	mov	ecx, DWORD PTR [eax+24]
	add	ecx, 1
	push	ecx
	mov	edx, DWORD PTR __Ptr$4[ebp]
	push	edx
	mov	ecx, DWORD PTR __Al$3[ebp]
	call	?deallocate@?$allocator@D@std@@QAEXQADI@Z ; std::allocator<char>::deallocate
$LN2@Tidy_deall:

; 4192 :         }
; 4193 : 
; 4194 :         _Mypair._Myval2._Mysize = 0;

	mov	eax, DWORD PTR _this$[ebp]
	mov	DWORD PTR [eax+20], 0

; 4195 :         _Mypair._Myval2._Myres  = _BUF_SIZE - 1;

	mov	eax, DWORD PTR _this$[ebp]
	mov	DWORD PTR [eax+24], 15			; 0000000fH

; 4196 :         // the _Traits::assign is last so the codegen doesn't think the char
; 4197 :         // write can alias this
; 4198 :         _Traits::assign(_Mypair._Myval2._Bx._Buf[0], _Elem());

	mov	BYTE PTR $T2[ebp], 0
	lea	eax, DWORD PTR $T2[ebp]
	push	eax
	mov	ecx, 1
	imul	edx, ecx, 0
	mov	eax, DWORD PTR _this$[ebp]
	lea	ecx, DWORD PTR [eax+edx+4]
	push	ecx
	call	?assign@?$_Narrow_char_traits@DH@std@@SAXAADABD@Z ; std::_Narrow_char_traits<char,int>::assign
	add	esp, 8

; 4199 :     }

	mov	ecx, DWORD PTR __$EHRec$[ebp]
	mov	DWORD PTR fs:0, ecx
	pop	ecx
	pop	edi
	pop	esi
	pop	ebx
	add	esp, 252				; 000000fcH
	cmp	ebp, esp
	call	__RTC_CheckEsp
	mov	esp, ebp
	pop	ebp
	ret	0
_TEXT	ENDS
;	COMDAT text$x
text$x	SEGMENT
__ehhandler$?_Tidy_deallocate@?$basic_string@DU?$char_traits@D@std@@V?$allocator@D@2@@std@@AAEXXZ:
	mov	edx, DWORD PTR [esp+8]
	lea	eax, DWORD PTR [edx+12]
	mov	ecx, DWORD PTR [edx-256]
	xor	ecx, eax
	call	@__security_check_cookie@4
	mov	eax, OFFSET __ehfuncinfo$?_Tidy_deallocate@?$basic_string@DU?$char_traits@D@std@@V?$allocator@D@2@@std@@AAEXXZ
	jmp	___CxxFrameHandler3
text$x	ENDS
?_Tidy_deallocate@?$basic_string@DU?$char_traits@D@std@@V?$allocator@D@2@@std@@AAEXXZ ENDP ; std::basic_string<char,std::char_traits<char>,std::allocator<char> >::_Tidy_deallocate
; Function compile flags: /Odtp /RTCsu /ZI
; File C:\Program Files (x86)\Microsoft Visual Studio\2019\Community\VC\Tools\MSVC\14.24.28314\include\xstring
;	COMDAT ?_Tidy_init@?$basic_string@DU?$char_traits@D@std@@V?$allocator@D@2@@std@@AAEXXZ
_TEXT	SEGMENT
$T2 = -221						; size = 1
_this$ = -20						; size = 4
__$EHRec$ = -12						; size = 12
?_Tidy_init@?$basic_string@DU?$char_traits@D@std@@V?$allocator@D@2@@std@@AAEXXZ PROC ; std::basic_string<char,std::char_traits<char>,std::allocator<char> >::_Tidy_init, COMDAT
; _this$ = ecx

; 4177 :     void _Tidy_init() noexcept { // initialize basic_string data members

	push	ebp
	mov	ebp, esp
	push	-1
	push	__ehhandler$?_Tidy_init@?$basic_string@DU?$char_traits@D@std@@V?$allocator@D@2@@std@@AAEXXZ
	mov	eax, DWORD PTR fs:0
	push	eax
	sub	esp, 216				; 000000d8H
	push	ebx
	push	esi
	push	edi
	push	ecx
	lea	edi, DWORD PTR [ebp-228]
	mov	ecx, 54					; 00000036H
	mov	eax, -858993460				; ccccccccH
	rep stosd
	pop	ecx
	mov	eax, DWORD PTR ___security_cookie
	xor	eax, ebp
	push	eax
	lea	eax, DWORD PTR __$EHRec$[ebp]
	mov	DWORD PTR fs:0, eax
	mov	DWORD PTR _this$[ebp], ecx
	mov	ecx, OFFSET __C564DC25_xstring
	call	@__CheckForDebuggerJustMyCode@4

; 4178 :         _Mypair._Myval2._Mysize = 0;

	mov	eax, DWORD PTR _this$[ebp]
	mov	DWORD PTR [eax+20], 0

; 4179 :         _Mypair._Myval2._Myres  = _BUF_SIZE - 1;

	mov	eax, DWORD PTR _this$[ebp]
	mov	DWORD PTR [eax+24], 15			; 0000000fH

; 4180 :         // the _Traits::assign is last so the codegen doesn't think the char
; 4181 :         // write can alias this
; 4182 :         _Traits::assign(_Mypair._Myval2._Bx._Buf[0], _Elem());

	mov	BYTE PTR $T2[ebp], 0
	lea	eax, DWORD PTR $T2[ebp]
	push	eax
	mov	ecx, 1
	imul	edx, ecx, 0
	mov	eax, DWORD PTR _this$[ebp]
	lea	ecx, DWORD PTR [eax+edx+4]
	push	ecx
	call	?assign@?$_Narrow_char_traits@DH@std@@SAXAADABD@Z ; std::_Narrow_char_traits<char,int>::assign
	add	esp, 8

; 4183 :     }

	mov	ecx, DWORD PTR __$EHRec$[ebp]
	mov	DWORD PTR fs:0, ecx
	pop	ecx
	pop	edi
	pop	esi
	pop	ebx
	add	esp, 228				; 000000e4H
	cmp	ebp, esp
	call	__RTC_CheckEsp
	mov	esp, ebp
	pop	ebp
	ret	0
_TEXT	ENDS
;	COMDAT text$x
text$x	SEGMENT
__ehhandler$?_Tidy_init@?$basic_string@DU?$char_traits@D@std@@V?$allocator@D@2@@std@@AAEXXZ:
	mov	edx, DWORD PTR [esp+8]
	lea	eax, DWORD PTR [edx+12]
	mov	ecx, DWORD PTR [edx-232]
	xor	ecx, eax
	call	@__security_check_cookie@4
	mov	eax, OFFSET __ehfuncinfo$?_Tidy_init@?$basic_string@DU?$char_traits@D@std@@V?$allocator@D@2@@std@@AAEXXZ
	jmp	___CxxFrameHandler3
text$x	ENDS
?_Tidy_init@?$basic_string@DU?$char_traits@D@std@@V?$allocator@D@2@@std@@AAEXXZ ENDP ; std::basic_string<char,std::char_traits<char>,std::allocator<char> >::_Tidy_init
; Function compile flags: /Odtp /RTCsu /ZI
; File C:\Program Files (x86)\Microsoft Visual Studio\2019\Community\VC\Tools\MSVC\14.24.28314\include\xstring
;	COMDAT ?_Calculate_growth@?$basic_string@DU?$char_traits@D@std@@V?$allocator@D@2@@std@@ABEII@Z
_TEXT	SEGMENT
_this$ = -20						; size = 4
__$EHRec$ = -12						; size = 12
__Requested$ = 8					; size = 4
?_Calculate_growth@?$basic_string@DU?$char_traits@D@std@@V?$allocator@D@2@@std@@ABEII@Z PROC ; std::basic_string<char,std::char_traits<char>,std::allocator<char> >::_Calculate_growth, COMDAT
; _this$ = ecx

; 4098 :     _NODISCARD size_type _Calculate_growth(const size_type _Requested) const noexcept {

	push	ebp
	mov	ebp, esp
	push	-1
	push	__ehhandler$?_Calculate_growth@?$basic_string@DU?$char_traits@D@std@@V?$allocator@D@2@@std@@ABEII@Z
	mov	eax, DWORD PTR fs:0
	push	eax
	sub	esp, 204				; 000000ccH
	push	ebx
	push	esi
	push	edi
	push	ecx
	lea	edi, DWORD PTR [ebp-216]
	mov	ecx, 51					; 00000033H
	mov	eax, -858993460				; ccccccccH
	rep stosd
	pop	ecx
	mov	eax, DWORD PTR ___security_cookie
	xor	eax, ebp
	push	eax
	lea	eax, DWORD PTR __$EHRec$[ebp]
	mov	DWORD PTR fs:0, eax
	mov	DWORD PTR _this$[ebp], ecx
	mov	ecx, OFFSET __C564DC25_xstring
	call	@__CheckForDebuggerJustMyCode@4

; 4099 :         return _Calculate_growth(_Requested, _Mypair._Myval2._Myres, max_size());

	mov	ecx, DWORD PTR _this$[ebp]
	call	?max_size@?$basic_string@DU?$char_traits@D@std@@V?$allocator@D@2@@std@@QBEIXZ ; std::basic_string<char,std::char_traits<char>,std::allocator<char> >::max_size
	push	eax
	mov	eax, DWORD PTR _this$[ebp]
	mov	ecx, DWORD PTR [eax+24]
	push	ecx
	mov	edx, DWORD PTR __Requested$[ebp]
	push	edx
	call	?_Calculate_growth@?$basic_string@DU?$char_traits@D@std@@V?$allocator@D@2@@std@@CAIIII@Z ; std::basic_string<char,std::char_traits<char>,std::allocator<char> >::_Calculate_growth
	add	esp, 12					; 0000000cH

; 4100 :     }

	mov	ecx, DWORD PTR __$EHRec$[ebp]
	mov	DWORD PTR fs:0, ecx
	pop	ecx
	pop	edi
	pop	esi
	pop	ebx
	add	esp, 216				; 000000d8H
	cmp	ebp, esp
	call	__RTC_CheckEsp
	mov	esp, ebp
	pop	ebp
	ret	4
_TEXT	ENDS
;	COMDAT text$x
text$x	SEGMENT
__ehhandler$?_Calculate_growth@?$basic_string@DU?$char_traits@D@std@@V?$allocator@D@2@@std@@ABEII@Z:
	mov	edx, DWORD PTR [esp+8]
	lea	eax, DWORD PTR [edx+12]
	mov	ecx, DWORD PTR [edx-220]
	xor	ecx, eax
	call	@__security_check_cookie@4
	mov	eax, OFFSET __ehfuncinfo$?_Calculate_growth@?$basic_string@DU?$char_traits@D@std@@V?$allocator@D@2@@std@@ABEII@Z
	jmp	___CxxFrameHandler3
text$x	ENDS
?_Calculate_growth@?$basic_string@DU?$char_traits@D@std@@V?$allocator@D@2@@std@@ABEII@Z ENDP ; std::basic_string<char,std::char_traits<char>,std::allocator<char> >::_Calculate_growth
; Function compile flags: /Odtp /RTCsu /ZI
; File C:\Program Files (x86)\Microsoft Visual Studio\2019\Community\VC\Tools\MSVC\14.24.28314\include\xstring
;	COMDAT ?_Calculate_growth@?$basic_string@DU?$char_traits@D@std@@V?$allocator@D@2@@std@@CAIIII@Z
_TEXT	SEGMENT
$T2 = -228						; size = 4
__Masked$ = -24						; size = 4
__$ArrayPad$ = -16					; size = 4
__$EHRec$ = -12						; size = 12
__Requested$ = 8					; size = 4
__Old$ = 12						; size = 4
__Max$ = 16						; size = 4
?_Calculate_growth@?$basic_string@DU?$char_traits@D@std@@V?$allocator@D@2@@std@@CAIIII@Z PROC ; std::basic_string<char,std::char_traits<char>,std::allocator<char> >::_Calculate_growth, COMDAT

; 4085 :         const size_type _Requested, const size_type _Old, const size_type _Max) noexcept {

	push	ebp
	mov	ebp, esp
	push	-1
	push	__ehhandler$?_Calculate_growth@?$basic_string@DU?$char_traits@D@std@@V?$allocator@D@2@@std@@CAIIII@Z
	mov	eax, DWORD PTR fs:0
	push	eax
	sub	esp, 220				; 000000dcH
	push	ebx
	push	esi
	push	edi
	lea	edi, DWORD PTR [ebp-232]
	mov	ecx, 55					; 00000037H
	mov	eax, -858993460				; ccccccccH
	rep stosd
	mov	eax, DWORD PTR ___security_cookie
	xor	eax, ebp
	mov	DWORD PTR __$ArrayPad$[ebp], eax
	push	eax
	lea	eax, DWORD PTR __$EHRec$[ebp]
	mov	DWORD PTR fs:0, eax
	mov	ecx, OFFSET __C564DC25_xstring
	call	@__CheckForDebuggerJustMyCode@4

; 4086 :         const size_type _Masked = _Requested | _ALLOC_MASK;

	mov	eax, DWORD PTR __Requested$[ebp]
	or	eax, 15					; 0000000fH
	mov	DWORD PTR __Masked$[ebp], eax

; 4087 :         if (_Masked > _Max) { // the mask overflows, settle for max_size()

	mov	eax, DWORD PTR __Masked$[ebp]
	cmp	eax, DWORD PTR __Max$[ebp]
	jbe	SHORT $LN2@Calculate_

; 4088 :             return _Max;

	mov	eax, DWORD PTR __Max$[ebp]
	jmp	SHORT $LN4@Calculate_
$LN2@Calculate_:

; 4089 :         }
; 4090 : 
; 4091 :         if (_Old > _Max - _Old / 2) { // similarly, geometric overflows

	mov	eax, DWORD PTR __Old$[ebp]
	shr	eax, 1
	mov	ecx, DWORD PTR __Max$[ebp]
	sub	ecx, eax
	cmp	DWORD PTR __Old$[ebp], ecx
	jbe	SHORT $LN3@Calculate_

; 4092 :             return _Max;

	mov	eax, DWORD PTR __Max$[ebp]
	jmp	SHORT $LN4@Calculate_
$LN3@Calculate_:

; 4093 :         }
; 4094 : 
; 4095 :         return _Max_value(_Masked, _Old + _Old / 2);

	mov	eax, DWORD PTR __Old$[ebp]
	shr	eax, 1
	add	eax, DWORD PTR __Old$[ebp]
	mov	DWORD PTR $T2[ebp], eax
	lea	ecx, DWORD PTR $T2[ebp]
	push	ecx
	lea	edx, DWORD PTR __Masked$[ebp]
	push	edx
	call	??$_Max_value@I@std@@YAABIABI0@Z	; std::_Max_value<unsigned int>
	add	esp, 8
	mov	eax, DWORD PTR [eax]
$LN4@Calculate_:

; 4096 :     }

	push	edx
	mov	ecx, ebp
	push	eax
	lea	edx, DWORD PTR $LN8@Calculate_
	call	@_RTC_CheckStackVars@8
	pop	eax
	pop	edx
	mov	ecx, DWORD PTR __$EHRec$[ebp]
	mov	DWORD PTR fs:0, ecx
	pop	ecx
	pop	edi
	pop	esi
	pop	ebx
	mov	ecx, DWORD PTR __$ArrayPad$[ebp]
	xor	ecx, ebp
	call	@__security_check_cookie@4
	add	esp, 232				; 000000e8H
	cmp	ebp, esp
	call	__RTC_CheckEsp
	mov	esp, ebp
	pop	ebp
	ret	0
	npad	3
$LN8@Calculate_:
	DD	1
	DD	$LN7@Calculate_
$LN7@Calculate_:
	DD	-24					; ffffffe8H
	DD	4
	DD	$LN5@Calculate_
$LN5@Calculate_:
	DB	95					; 0000005fH
	DB	77					; 0000004dH
	DB	97					; 00000061H
	DB	115					; 00000073H
	DB	107					; 0000006bH
	DB	101					; 00000065H
	DB	100					; 00000064H
	DB	0
_TEXT	ENDS
;	COMDAT text$x
text$x	SEGMENT
__ehhandler$?_Calculate_growth@?$basic_string@DU?$char_traits@D@std@@V?$allocator@D@2@@std@@CAIIII@Z:
	mov	edx, DWORD PTR [esp+8]
	lea	eax, DWORD PTR [edx+12]
	mov	ecx, DWORD PTR [edx-236]
	xor	ecx, eax
	call	@__security_check_cookie@4
	mov	ecx, DWORD PTR [edx-4]
	xor	ecx, eax
	call	@__security_check_cookie@4
	mov	eax, OFFSET __ehfuncinfo$?_Calculate_growth@?$basic_string@DU?$char_traits@D@std@@V?$allocator@D@2@@std@@CAIIII@Z
	jmp	___CxxFrameHandler3
text$x	ENDS
?_Calculate_growth@?$basic_string@DU?$char_traits@D@std@@V?$allocator@D@2@@std@@CAIIII@Z ENDP ; std::basic_string<char,std::char_traits<char>,std::allocator<char> >::_Calculate_growth
; Function compile flags: /Odtp /RTCsu /ZI
; File C:\Program Files (x86)\Microsoft Visual Studio\2019\Community\VC\Tools\MSVC\14.24.28314\include\xstring
;	COMDAT ?max_size@?$basic_string@DU?$char_traits@D@std@@V?$allocator@D@2@@std@@QBEIXZ
_TEXT	SEGMENT
$T2 = -276						; size = 4
$T3 = -264						; size = 4
$T4 = -252						; size = 4
__Storage_max$ = -48					; size = 4
__Alloc_max$ = -36					; size = 4
_this$ = -24						; size = 4
__$ArrayPad$ = -16					; size = 4
__$EHRec$ = -12						; size = 12
?max_size@?$basic_string@DU?$char_traits@D@std@@V?$allocator@D@2@@std@@QBEIXZ PROC ; std::basic_string<char,std::char_traits<char>,std::allocator<char> >::max_size, COMDAT
; _this$ = ecx

; 3596 :     _NODISCARD size_type max_size() const noexcept {

	push	ebp
	mov	ebp, esp
	push	-1
	push	__ehhandler$?max_size@?$basic_string@DU?$char_traits@D@std@@V?$allocator@D@2@@std@@QBEIXZ
	mov	eax, DWORD PTR fs:0
	push	eax
	sub	esp, 268				; 0000010cH
	push	ebx
	push	esi
	push	edi
	push	ecx
	lea	edi, DWORD PTR [ebp-280]
	mov	ecx, 67					; 00000043H
	mov	eax, -858993460				; ccccccccH
	rep stosd
	pop	ecx
	mov	eax, DWORD PTR ___security_cookie
	xor	eax, ebp
	mov	DWORD PTR __$ArrayPad$[ebp], eax
	push	eax
	lea	eax, DWORD PTR __$EHRec$[ebp]
	mov	DWORD PTR fs:0, eax
	mov	DWORD PTR _this$[ebp], ecx
	mov	ecx, OFFSET __C564DC25_xstring
	call	@__CheckForDebuggerJustMyCode@4

; 3597 :         const size_type _Alloc_max   = _Alty_traits::max_size(_Getal());

	mov	ecx, DWORD PTR _this$[ebp]
	call	?_Getal@?$basic_string@DU?$char_traits@D@std@@V?$allocator@D@2@@std@@ABEABV?$allocator@D@2@XZ ; std::basic_string<char,std::char_traits<char>,std::allocator<char> >::_Getal
	push	eax
	call	?max_size@?$_Default_allocator_traits@V?$allocator@D@std@@@std@@SAIABV?$allocator@D@2@@Z ; std::_Default_allocator_traits<std::allocator<char> >::max_size
	add	esp, 4
	mov	DWORD PTR __Alloc_max$[ebp], eax

; 3598 :         const size_type _Storage_max = // can always store small string

	mov	DWORD PTR $T4[ebp], 16			; 00000010H
	lea	eax, DWORD PTR $T4[ebp]
	push	eax
	lea	ecx, DWORD PTR __Alloc_max$[ebp]
	push	ecx
	call	??$_Max_value@I@std@@YAABIABI0@Z	; std::_Max_value<unsigned int>
	add	esp, 8
	mov	edx, DWORD PTR [eax]
	mov	DWORD PTR __Storage_max$[ebp], edx

; 3599 :             _Max_value(_Alloc_max, static_cast<size_type>(_BUF_SIZE));
; 3600 :         return _Min_value(static_cast<size_type>((numeric_limits<difference_type>::max)()),

	mov	eax, DWORD PTR __Storage_max$[ebp]
	sub	eax, 1
	mov	DWORD PTR $T3[ebp], eax
	call	?max@?$numeric_limits@H@std@@SAHXZ	; std::numeric_limits<int>::max
	mov	DWORD PTR $T2[ebp], eax
	lea	ecx, DWORD PTR $T3[ebp]
	push	ecx
	lea	edx, DWORD PTR $T2[ebp]
	push	edx
	call	??$_Min_value@I@std@@YAABIABI0@Z	; std::_Min_value<unsigned int>
	add	esp, 8
	mov	eax, DWORD PTR [eax]

; 3601 :             _Storage_max - 1 // -1 is for null terminator and/or npos
; 3602 :         );
; 3603 :     }

	push	edx
	mov	ecx, ebp
	push	eax
	lea	edx, DWORD PTR $LN6@max_size
	call	@_RTC_CheckStackVars@8
	pop	eax
	pop	edx
	mov	ecx, DWORD PTR __$EHRec$[ebp]
	mov	DWORD PTR fs:0, ecx
	pop	ecx
	pop	edi
	pop	esi
	pop	ebx
	mov	ecx, DWORD PTR __$ArrayPad$[ebp]
	xor	ecx, ebp
	call	@__security_check_cookie@4
	add	esp, 280				; 00000118H
	cmp	ebp, esp
	call	__RTC_CheckEsp
	mov	esp, ebp
	pop	ebp
	ret	0
	npad	2
$LN6@max_size:
	DD	1
	DD	$LN5@max_size
$LN5@max_size:
	DD	-36					; ffffffdcH
	DD	4
	DD	$LN3@max_size
$LN3@max_size:
	DB	95					; 0000005fH
	DB	65					; 00000041H
	DB	108					; 0000006cH
	DB	108					; 0000006cH
	DB	111					; 0000006fH
	DB	99					; 00000063H
	DB	95					; 0000005fH
	DB	109					; 0000006dH
	DB	97					; 00000061H
	DB	120					; 00000078H
	DB	0
_TEXT	ENDS
;	COMDAT text$x
text$x	SEGMENT
__ehhandler$?max_size@?$basic_string@DU?$char_traits@D@std@@V?$allocator@D@2@@std@@QBEIXZ:
	mov	edx, DWORD PTR [esp+8]
	lea	eax, DWORD PTR [edx+12]
	mov	ecx, DWORD PTR [edx-284]
	xor	ecx, eax
	call	@__security_check_cookie@4
	mov	ecx, DWORD PTR [edx-4]
	xor	ecx, eax
	call	@__security_check_cookie@4
	mov	eax, OFFSET __ehfuncinfo$?max_size@?$basic_string@DU?$char_traits@D@std@@V?$allocator@D@2@@std@@QBEIXZ
	jmp	___CxxFrameHandler3
text$x	ENDS
?max_size@?$basic_string@DU?$char_traits@D@std@@V?$allocator@D@2@@std@@QBEIXZ ENDP ; std::basic_string<char,std::char_traits<char>,std::allocator<char> >::max_size
; Function compile flags: /Odtp /RTCsu /ZI
; File C:\Program Files (x86)\Microsoft Visual Studio\2019\Community\VC\Tools\MSVC\14.24.28314\include\xstring
;	COMDAT ?assign@?$basic_string@DU?$char_traits@D@std@@V?$allocator@D@2@@std@@QAEAAV12@QBD@Z
_TEXT	SEGMENT
_this$ = -8						; size = 4
__Ptr$ = 8						; size = 4
?assign@?$basic_string@DU?$char_traits@D@std@@V?$allocator@D@2@@std@@QAEAAV12@QBD@Z PROC ; std::basic_string<char,std::char_traits<char>,std::allocator<char> >::assign, COMDAT
; _this$ = ecx

; 2890 :     basic_string& assign(_In_z_ const _Elem* const _Ptr) {

	push	ebp
	mov	ebp, esp
	sub	esp, 204				; 000000ccH
	push	ebx
	push	esi
	push	edi
	push	ecx
	lea	edi, DWORD PTR [ebp-204]
	mov	ecx, 51					; 00000033H
	mov	eax, -858993460				; ccccccccH
	rep stosd
	pop	ecx
	mov	DWORD PTR _this$[ebp], ecx
	mov	ecx, OFFSET __C564DC25_xstring
	call	@__CheckForDebuggerJustMyCode@4

; 2891 :         return assign(_Ptr, _Convert_size<size_type>(_Traits::length(_Ptr)));

	mov	eax, DWORD PTR __Ptr$[ebp]
	push	eax
	call	?length@?$_Narrow_char_traits@DH@std@@SAIQBD@Z ; std::_Narrow_char_traits<char,int>::length
	add	esp, 4
	push	eax
	call	??$_Convert_size@I@std@@YAII@Z		; std::_Convert_size<unsigned int>
	add	esp, 4
	push	eax
	mov	ecx, DWORD PTR __Ptr$[ebp]
	push	ecx
	mov	ecx, DWORD PTR _this$[ebp]
	call	?assign@?$basic_string@DU?$char_traits@D@std@@V?$allocator@D@2@@std@@QAEAAV12@QBDI@Z ; std::basic_string<char,std::char_traits<char>,std::allocator<char> >::assign

; 2892 :     }

	pop	edi
	pop	esi
	pop	ebx
	add	esp, 204				; 000000ccH
	cmp	ebp, esp
	call	__RTC_CheckEsp
	mov	esp, ebp
	pop	ebp
	ret	4
?assign@?$basic_string@DU?$char_traits@D@std@@V?$allocator@D@2@@std@@QAEAAV12@QBD@Z ENDP ; std::basic_string<char,std::char_traits<char>,std::allocator<char> >::assign
_TEXT	ENDS
; Function compile flags: /Odtp /RTCsu /ZI
; File C:\Program Files (x86)\Microsoft Visual Studio\2019\Community\VC\Tools\MSVC\14.24.28314\include\xstring
;	COMDAT ?assign@?$basic_string@DU?$char_traits@D@std@@V?$allocator@D@2@@std@@QAEAAV12@QBDI@Z
_TEXT	SEGMENT
$T1 = -233						; size = 1
$T2 = -221						; size = 1
__Old_ptr$3 = -20					; size = 4
_this$ = -8						; size = 4
__Ptr$ = 8						; size = 4
__Count$ = 12						; size = 4
?assign@?$basic_string@DU?$char_traits@D@std@@V?$allocator@D@2@@std@@QAEAAV12@QBDI@Z PROC ; std::basic_string<char,std::char_traits<char>,std::allocator<char> >::assign, COMDAT
; _this$ = ecx

; 2871 :     basic_string& assign(_In_reads_(_Count) const _Elem* const _Ptr, _CRT_GUARDOVERFLOW const size_type _Count) {

	push	ebp
	mov	ebp, esp
	sub	esp, 240				; 000000f0H
	push	ebx
	push	esi
	push	edi
	push	ecx
	lea	edi, DWORD PTR [ebp-240]
	mov	ecx, 60					; 0000003cH
	mov	eax, -858993460				; ccccccccH
	rep stosd
	pop	ecx
	mov	DWORD PTR _this$[ebp], ecx
	mov	ecx, OFFSET __C564DC25_xstring
	call	@__CheckForDebuggerJustMyCode@4

; 2872 :         // assign [_Ptr, _Ptr + _Count)
; 2873 :         if (_Count <= _Mypair._Myval2._Myres) {

	mov	eax, DWORD PTR _this$[ebp]
	mov	ecx, DWORD PTR __Count$[ebp]
	cmp	ecx, DWORD PTR [eax+24]
	ja	SHORT $LN2@assign

; 2874 :             _Elem* const _Old_ptr   = _Mypair._Myval2._Myptr();

	mov	ecx, DWORD PTR _this$[ebp]
	call	?_Myptr@?$_String_val@U?$_Simple_types@D@std@@@std@@QAEPADXZ ; std::_String_val<std::_Simple_types<char> >::_Myptr
	mov	DWORD PTR __Old_ptr$3[ebp], eax

; 2875 :             _Mypair._Myval2._Mysize = _Count;

	mov	eax, DWORD PTR _this$[ebp]
	mov	ecx, DWORD PTR __Count$[ebp]
	mov	DWORD PTR [eax+20], ecx

; 2876 :             _Traits::move(_Old_ptr, _Ptr, _Count);

	mov	eax, DWORD PTR __Count$[ebp]
	push	eax
	mov	ecx, DWORD PTR __Ptr$[ebp]
	push	ecx
	mov	edx, DWORD PTR __Old_ptr$3[ebp]
	push	edx
	call	?move@?$_Narrow_char_traits@DH@std@@SAPADQADQBDI@Z ; std::_Narrow_char_traits<char,int>::move
	add	esp, 12					; 0000000cH

; 2877 :             _Traits::assign(_Old_ptr[_Count], _Elem());

	mov	BYTE PTR $T2[ebp], 0
	lea	eax, DWORD PTR $T2[ebp]
	push	eax
	mov	ecx, DWORD PTR __Old_ptr$3[ebp]
	add	ecx, DWORD PTR __Count$[ebp]
	push	ecx
	call	?assign@?$_Narrow_char_traits@DH@std@@SAXAADABD@Z ; std::_Narrow_char_traits<char,int>::assign
	add	esp, 8

; 2878 :             return *this;

	mov	eax, DWORD PTR _this$[ebp]
	jmp	SHORT $LN1@assign
$LN2@assign:

; 2879 :         }
; 2880 : 
; 2881 :         return _Reallocate_for(

	xor	eax, eax
	mov	BYTE PTR $T1[ebp], al
	mov	ecx, DWORD PTR __Ptr$[ebp]
	push	ecx
	movzx	edx, BYTE PTR $T1[ebp]
	push	edx
	mov	eax, DWORD PTR __Count$[ebp]
	push	eax
	mov	ecx, DWORD PTR _this$[ebp]
	call	??$_Reallocate_for@V<lambda_9366063389c5f42a00a5088cf24e69de>@@PBD@?$basic_string@DU?$char_traits@D@std@@V?$allocator@D@2@@std@@AAEAAV01@IV<lambda_9366063389c5f42a00a5088cf24e69de>@@PBD@Z ; std::basic_string<char,std::char_traits<char>,std::allocator<char> >::_Reallocate_for<<lambda_9366063389c5f42a00a5088cf24e69de>,char const *>
$LN1@assign:

; 2882 :             _Count,
; 2883 :             [](_Elem* const _New_ptr, const size_type _Count, const _Elem* const _Ptr) {
; 2884 :                 _Traits::copy(_New_ptr, _Ptr, _Count);
; 2885 :                 _Traits::assign(_New_ptr[_Count], _Elem());
; 2886 :             },
; 2887 :             _Ptr);
; 2888 :     }

	pop	edi
	pop	esi
	pop	ebx
	add	esp, 240				; 000000f0H
	cmp	ebp, esp
	call	__RTC_CheckEsp
	mov	esp, ebp
	pop	ebp
	ret	8
?assign@?$basic_string@DU?$char_traits@D@std@@V?$allocator@D@2@@std@@QAEAAV12@QBDI@Z ENDP ; std::basic_string<char,std::char_traits<char>,std::allocator<char> >::assign
_TEXT	ENDS
; Function compile flags: /Odtp /RTCsu /ZI
; File C:\Program Files (x86)\Microsoft Visual Studio\2019\Community\VC\Tools\MSVC\14.24.28314\include\xstring
;	COMDAT ??1?$basic_string@DU?$char_traits@D@std@@V?$allocator@D@2@@std@@QAE@XZ
_TEXT	SEGMENT
__To_delete$ = -60					; size = 4
_$S11$ = -45						; size = 1
__Alproxy$ = -36					; size = 4
_this$ = -24						; size = 4
__$ArrayPad$ = -16					; size = 4
__$EHRec$ = -12						; size = 12
??1?$basic_string@DU?$char_traits@D@std@@V?$allocator@D@2@@std@@QAE@XZ PROC ; std::basic_string<char,std::char_traits<char>,std::allocator<char> >::~basic_string<char,std::char_traits<char>,std::allocator<char> >, COMDAT
; _this$ = ecx

; 2627 :     ~basic_string() noexcept {

	push	ebp
	mov	ebp, esp
	push	-1
	push	__ehhandler$??1?$basic_string@DU?$char_traits@D@std@@V?$allocator@D@2@@std@@QAE@XZ
	mov	eax, DWORD PTR fs:0
	push	eax
	sub	esp, 244				; 000000f4H
	push	ebx
	push	esi
	push	edi
	push	ecx
	lea	edi, DWORD PTR [ebp-256]
	mov	ecx, 61					; 0000003dH
	mov	eax, -858993460				; ccccccccH
	rep stosd
	pop	ecx
	mov	eax, DWORD PTR ___security_cookie
	xor	eax, ebp
	mov	DWORD PTR __$ArrayPad$[ebp], eax
	push	eax
	lea	eax, DWORD PTR __$EHRec$[ebp]
	mov	DWORD PTR fs:0, eax
	mov	DWORD PTR _this$[ebp], ecx
	mov	ecx, OFFSET __C564DC25_xstring
	call	@__CheckForDebuggerJustMyCode@4

; 2628 :         _Tidy_deallocate();

	mov	ecx, DWORD PTR _this$[ebp]
	call	?_Tidy_deallocate@?$basic_string@DU?$char_traits@D@std@@V?$allocator@D@2@@std@@AAEXXZ ; std::basic_string<char,std::char_traits<char>,std::allocator<char> >::_Tidy_deallocate

; 2629 : #if _ITERATOR_DEBUG_LEVEL != 0
; 2630 :         auto&& _Alproxy          = _GET_PROXY_ALLOCATOR(_Alty, _Getal());

	mov	ecx, DWORD PTR _this$[ebp]
	call	?_Getal@?$basic_string@DU?$char_traits@D@std@@V?$allocator@D@2@@std@@AAEAAV?$allocator@D@2@XZ ; std::basic_string<char,std::char_traits<char>,std::allocator<char> >::_Getal
	push	eax
	lea	ecx, DWORD PTR _$S11$[ebp]
	call	??$?0D@?$allocator@U_Container_proxy@std@@@std@@QAE@ABV?$allocator@D@1@@Z ; std::allocator<std::_Container_proxy>::allocator<std::_Container_proxy><char>
	lea	eax, DWORD PTR _$S11$[ebp]
	mov	DWORD PTR __Alproxy$[ebp], eax

; 2631 :         const auto _To_delete    = _Mypair._Myval2._Myproxy;

	mov	eax, DWORD PTR _this$[ebp]
	mov	ecx, DWORD PTR [eax]
	mov	DWORD PTR __To_delete$[ebp], ecx

; 2632 :         _Mypair._Myval2._Myproxy = nullptr;

	mov	eax, DWORD PTR _this$[ebp]
	mov	DWORD PTR [eax], 0

; 2633 :         _Delete_plain_internal(_Alproxy, _To_delete);

	mov	eax, DWORD PTR __To_delete$[ebp]
	push	eax
	mov	ecx, DWORD PTR __Alproxy$[ebp]
	push	ecx
	call	??$_Delete_plain_internal@V?$allocator@U_Container_proxy@std@@@std@@@std@@YAXAAV?$allocator@U_Container_proxy@std@@@0@QAU_Container_proxy@0@@Z ; std::_Delete_plain_internal<std::allocator<std::_Container_proxy> >
	add	esp, 8

; 2634 : #endif // _ITERATOR_DEBUG_LEVEL != 0
; 2635 :     }

	mov	ecx, DWORD PTR _this$[ebp]
	call	??1?$_Compressed_pair@V?$allocator@D@std@@V?$_String_val@U?$_Simple_types@D@std@@@2@$00@std@@QAE@XZ
	push	edx
	mov	ecx, ebp
	push	eax
	lea	edx, DWORD PTR $LN6@basic_stri
	call	@_RTC_CheckStackVars@8
	pop	eax
	pop	edx
	mov	ecx, DWORD PTR __$EHRec$[ebp]
	mov	DWORD PTR fs:0, ecx
	pop	ecx
	pop	edi
	pop	esi
	pop	ebx
	mov	ecx, DWORD PTR __$ArrayPad$[ebp]
	xor	ecx, ebp
	call	@__security_check_cookie@4
	add	esp, 256				; 00000100H
	cmp	ebp, esp
	call	__RTC_CheckEsp
	mov	esp, ebp
	pop	ebp
	ret	0
	npad	3
$LN6@basic_stri:
	DD	1
	DD	$LN5@basic_stri
$LN5@basic_stri:
	DD	-45					; ffffffd3H
	DD	1
	DD	$LN3@basic_stri
$LN3@basic_stri:
	DB	36					; 00000024H
	DB	83					; 00000053H
	DB	49					; 00000031H
	DB	49					; 00000031H
	DB	0
_TEXT	ENDS
;	COMDAT text$x
text$x	SEGMENT
__ehhandler$??1?$basic_string@DU?$char_traits@D@std@@V?$allocator@D@2@@std@@QAE@XZ:
	mov	edx, DWORD PTR [esp+8]
	lea	eax, DWORD PTR [edx+12]
	mov	ecx, DWORD PTR [edx-260]
	xor	ecx, eax
	call	@__security_check_cookie@4
	mov	ecx, DWORD PTR [edx-4]
	xor	ecx, eax
	call	@__security_check_cookie@4
	mov	eax, OFFSET __ehfuncinfo$??1?$basic_string@DU?$char_traits@D@std@@V?$allocator@D@2@@std@@QAE@XZ
	jmp	___CxxFrameHandler3
text$x	ENDS
??1?$basic_string@DU?$char_traits@D@std@@V?$allocator@D@2@@std@@QAE@XZ ENDP ; std::basic_string<char,std::char_traits<char>,std::allocator<char> >::~basic_string<char,std::char_traits<char>,std::allocator<char> >
; Function compile flags: /Odtp /RTCsu /ZI
; File C:\Program Files (x86)\Microsoft Visual Studio\2019\Community\VC\Tools\MSVC\14.24.28314\include\xstring
;	COMDAT ??0?$basic_string@DU?$char_traits@D@std@@V?$allocator@D@2@@std@@QAE@QBD@Z
_TEXT	SEGMENT
$T2 = -265						; size = 1
__Proxy$ = -64						; size = 8
_$S13$ = -45						; size = 1
__Alproxy$ = -36					; size = 4
_this$ = -24						; size = 4
__$ArrayPad$ = -16					; size = 4
__$EHRec$ = -12						; size = 12
__Ptr$ = 8						; size = 4
??0?$basic_string@DU?$char_traits@D@std@@V?$allocator@D@2@@std@@QAE@QBD@Z PROC ; std::basic_string<char,std::char_traits<char>,std::allocator<char> >::basic_string<char,std::char_traits<char>,std::allocator<char> >, COMDAT
; _this$ = ecx

; 2333 :     basic_string(_In_z_ const _Elem* const _Ptr) : _Mypair(_Zero_then_variadic_args_t()) {

	push	ebp
	mov	ebp, esp
	push	-1
	push	__ehhandler$??0?$basic_string@DU?$char_traits@D@std@@V?$allocator@D@2@@std@@QAE@QBD@Z
	mov	eax, DWORD PTR fs:0
	push	eax
	sub	esp, 260				; 00000104H
	push	ebx
	push	esi
	push	edi
	push	ecx
	lea	edi, DWORD PTR [ebp-272]
	mov	ecx, 65					; 00000041H
	mov	eax, -858993460				; ccccccccH
	rep stosd
	pop	ecx
	mov	eax, DWORD PTR ___security_cookie
	xor	eax, ebp
	mov	DWORD PTR __$ArrayPad$[ebp], eax
	push	eax
	lea	eax, DWORD PTR __$EHRec$[ebp]
	mov	DWORD PTR fs:0, eax
	mov	DWORD PTR _this$[ebp], ecx
	mov	ecx, OFFSET __C564DC25_xstring
	call	@__CheckForDebuggerJustMyCode@4
	movzx	eax, BYTE PTR $T2[ebp]
	push	eax
	mov	ecx, DWORD PTR _this$[ebp]
	call	??$?0$$V@?$_Compressed_pair@V?$allocator@D@std@@V?$_String_val@U?$_Simple_types@D@std@@@2@$00@std@@QAE@U_Zero_then_variadic_args_t@1@@Z ; std::_Compressed_pair<std::allocator<char>,std::_String_val<std::_Simple_types<char> >,1>::_Compressed_pair<std::allocator<char>,std::_String_val<std::_Simple_types<char> >,1><>
	mov	DWORD PTR __$EHRec$[ebp+8], 0

; 2334 :         auto&& _Alproxy = _GET_PROXY_ALLOCATOR(_Alty, _Getal());

	mov	ecx, DWORD PTR _this$[ebp]
	call	?_Getal@?$basic_string@DU?$char_traits@D@std@@V?$allocator@D@2@@std@@AAEAAV?$allocator@D@2@XZ ; std::basic_string<char,std::char_traits<char>,std::allocator<char> >::_Getal
	push	eax
	lea	ecx, DWORD PTR _$S13$[ebp]
	call	??$?0D@?$allocator@U_Container_proxy@std@@@std@@QAE@ABV?$allocator@D@1@@Z ; std::allocator<std::_Container_proxy>::allocator<std::_Container_proxy><char>
	lea	eax, DWORD PTR _$S13$[ebp]
	mov	DWORD PTR __Alproxy$[ebp], eax

; 2335 :         _Container_proxy_ptr<_Alty> _Proxy(_Alproxy, _Mypair._Myval2);

	mov	eax, DWORD PTR _this$[ebp]
	push	eax
	mov	ecx, DWORD PTR __Alproxy$[ebp]
	push	ecx
	lea	ecx, DWORD PTR __Proxy$[ebp]
	call	??0?$_Container_proxy_ptr12@V?$allocator@U_Container_proxy@std@@@std@@@std@@QAE@AAV?$allocator@U_Container_proxy@std@@@1@AAU_Container_base12@1@@Z ; std::_Container_proxy_ptr12<std::allocator<std::_Container_proxy> >::_Container_proxy_ptr12<std::allocator<std::_Container_proxy> >
	mov	BYTE PTR __$EHRec$[ebp+8], 1

; 2336 :         _Tidy_init();

	mov	ecx, DWORD PTR _this$[ebp]
	call	?_Tidy_init@?$basic_string@DU?$char_traits@D@std@@V?$allocator@D@2@@std@@AAEXXZ ; std::basic_string<char,std::char_traits<char>,std::allocator<char> >::_Tidy_init

; 2337 :         assign(_Ptr);

	mov	eax, DWORD PTR __Ptr$[ebp]
	push	eax
	mov	ecx, DWORD PTR _this$[ebp]
	call	?assign@?$basic_string@DU?$char_traits@D@std@@V?$allocator@D@2@@std@@QAEAAV12@QBD@Z ; std::basic_string<char,std::char_traits<char>,std::allocator<char> >::assign

; 2338 :         _Proxy._Release();

	lea	ecx, DWORD PTR __Proxy$[ebp]
	call	?_Release@_Basic_container_proxy_ptr12@std@@QAEXXZ ; std::_Basic_container_proxy_ptr12::_Release

; 2339 :     }

	mov	BYTE PTR __$EHRec$[ebp+8], 0
	lea	ecx, DWORD PTR __Proxy$[ebp]
	call	??1?$_Container_proxy_ptr12@V?$allocator@U_Container_proxy@std@@@std@@@std@@QAE@XZ ; std::_Container_proxy_ptr12<std::allocator<std::_Container_proxy> >::~_Container_proxy_ptr12<std::allocator<std::_Container_proxy> >
	mov	DWORD PTR __$EHRec$[ebp+8], -1
	mov	eax, DWORD PTR _this$[ebp]
	push	edx
	mov	ecx, ebp
	push	eax
	lea	edx, DWORD PTR $LN9@basic_stri
	call	@_RTC_CheckStackVars@8
	pop	eax
	pop	edx
	mov	ecx, DWORD PTR __$EHRec$[ebp]
	mov	DWORD PTR fs:0, ecx
	pop	ecx
	pop	edi
	pop	esi
	pop	ebx
	mov	ecx, DWORD PTR __$ArrayPad$[ebp]
	xor	ecx, ebp
	call	@__security_check_cookie@4
	add	esp, 272				; 00000110H
	cmp	ebp, esp
	call	__RTC_CheckEsp
	mov	esp, ebp
	pop	ebp
	ret	4
	npad	1
$LN9@basic_stri:
	DD	2
	DD	$LN8@basic_stri
$LN8@basic_stri:
	DD	-45					; ffffffd3H
	DD	1
	DD	$LN5@basic_stri
	DD	-64					; ffffffc0H
	DD	8
	DD	$LN6@basic_stri
$LN6@basic_stri:
	DB	95					; 0000005fH
	DB	80					; 00000050H
	DB	114					; 00000072H
	DB	111					; 0000006fH
	DB	120					; 00000078H
	DB	121					; 00000079H
	DB	0
$LN5@basic_stri:
	DB	36					; 00000024H
	DB	83					; 00000053H
	DB	49					; 00000031H
	DB	51					; 00000033H
	DB	0
_TEXT	ENDS
;	COMDAT text$x
text$x	SEGMENT
__unwindfunclet$??0?$basic_string@DU?$char_traits@D@std@@V?$allocator@D@2@@std@@QAE@QBD@Z$0:
	mov	ecx, DWORD PTR _this$[ebp]
	jmp	??1?$_Compressed_pair@V?$allocator@D@std@@V?$_String_val@U?$_Simple_types@D@std@@@2@$00@std@@QAE@XZ
__unwindfunclet$??0?$basic_string@DU?$char_traits@D@std@@V?$allocator@D@2@@std@@QAE@QBD@Z$1:
	lea	ecx, DWORD PTR __Proxy$[ebp]
	jmp	??1?$_Container_proxy_ptr12@V?$allocator@U_Container_proxy@std@@@std@@@std@@QAE@XZ ; std::_Container_proxy_ptr12<std::allocator<std::_Container_proxy> >::~_Container_proxy_ptr12<std::allocator<std::_Container_proxy> >
__ehhandler$??0?$basic_string@DU?$char_traits@D@std@@V?$allocator@D@2@@std@@QAE@QBD@Z:
	mov	edx, DWORD PTR [esp+8]
	lea	eax, DWORD PTR [edx+12]
	mov	ecx, DWORD PTR [edx-276]
	xor	ecx, eax
	call	@__security_check_cookie@4
	mov	ecx, DWORD PTR [edx-4]
	xor	ecx, eax
	call	@__security_check_cookie@4
	mov	eax, OFFSET __ehfuncinfo$??0?$basic_string@DU?$char_traits@D@std@@V?$allocator@D@2@@std@@QAE@QBD@Z
	jmp	___CxxFrameHandler3
text$x	ENDS
??0?$basic_string@DU?$char_traits@D@std@@V?$allocator@D@2@@std@@QAE@QBD@Z ENDP ; std::basic_string<char,std::char_traits<char>,std::allocator<char> >::basic_string<char,std::char_traits<char>,std::allocator<char> >
; Function compile flags: /Odtp /RTCsu /ZI
;	COMDAT ??1?$_String_val@U?$_Simple_types@D@std@@@std@@QAE@XZ
_TEXT	SEGMENT
_this$ = -8						; size = 4
??1?$_String_val@U?$_Simple_types@D@std@@@std@@QAE@XZ PROC ; std::_String_val<std::_Simple_types<char> >::~_String_val<std::_Simple_types<char> >, COMDAT
; _this$ = ecx
	push	ebp
	mov	ebp, esp
	sub	esp, 204				; 000000ccH
	push	ebx
	push	esi
	push	edi
	push	ecx
	lea	edi, DWORD PTR [ebp-204]
	mov	ecx, 51					; 00000033H
	mov	eax, -858993460				; ccccccccH
	rep stosd
	pop	ecx
	mov	DWORD PTR _this$[ebp], ecx
	mov	ecx, DWORD PTR _this$[ebp]
	add	ecx, 4
	call	??1_Bxty@?$_String_val@U?$_Simple_types@D@std@@@std@@QAE@XZ ; std::_String_val<std::_Simple_types<char> >::_Bxty::~_Bxty
	pop	edi
	pop	esi
	pop	ebx
	add	esp, 204				; 000000ccH
	cmp	ebp, esp
	call	__RTC_CheckEsp
	mov	esp, ebp
	pop	ebp
	ret	0
??1?$_String_val@U?$_Simple_types@D@std@@@std@@QAE@XZ ENDP ; std::_String_val<std::_Simple_types<char> >::~_String_val<std::_Simple_types<char> >
_TEXT	ENDS
; Function compile flags: /Odtp /RTCsu /ZI
; File C:\Program Files (x86)\Microsoft Visual Studio\2019\Community\VC\Tools\MSVC\14.24.28314\include\xstring
;	COMDAT ??1_Bxty@?$_String_val@U?$_Simple_types@D@std@@@std@@QAE@XZ
_TEXT	SEGMENT
_this$ = -20						; size = 4
__$EHRec$ = -12						; size = 12
??1_Bxty@?$_String_val@U?$_Simple_types@D@std@@@std@@QAE@XZ PROC ; std::_String_val<std::_Simple_types<char> >::_Bxty::~_Bxty, COMDAT
; _this$ = ecx

; 2188 :         ~_Bxty() noexcept {} // user-provided, for fancy pointers

	push	ebp
	mov	ebp, esp
	push	-1
	push	__ehhandler$??1_Bxty@?$_String_val@U?$_Simple_types@D@std@@@std@@QAE@XZ
	mov	eax, DWORD PTR fs:0
	push	eax
	sub	esp, 204				; 000000ccH
	push	ebx
	push	esi
	push	edi
	push	ecx
	lea	edi, DWORD PTR [ebp-216]
	mov	ecx, 51					; 00000033H
	mov	eax, -858993460				; ccccccccH
	rep stosd
	pop	ecx
	mov	eax, DWORD PTR ___security_cookie
	xor	eax, ebp
	push	eax
	lea	eax, DWORD PTR __$EHRec$[ebp]
	mov	DWORD PTR fs:0, eax
	mov	DWORD PTR _this$[ebp], ecx
	mov	ecx, OFFSET __C564DC25_xstring
	call	@__CheckForDebuggerJustMyCode@4
	mov	ecx, DWORD PTR __$EHRec$[ebp]
	mov	DWORD PTR fs:0, ecx
	pop	ecx
	pop	edi
	pop	esi
	pop	ebx
	add	esp, 216				; 000000d8H
	cmp	ebp, esp
	call	__RTC_CheckEsp
	mov	esp, ebp
	pop	ebp
	ret	0
_TEXT	ENDS
;	COMDAT text$x
text$x	SEGMENT
__ehhandler$??1_Bxty@?$_String_val@U?$_Simple_types@D@std@@@std@@QAE@XZ:
	mov	edx, DWORD PTR [esp+8]
	lea	eax, DWORD PTR [edx+12]
	mov	ecx, DWORD PTR [edx-220]
	xor	ecx, eax
	call	@__security_check_cookie@4
	mov	eax, OFFSET __ehfuncinfo$??1_Bxty@?$_String_val@U?$_Simple_types@D@std@@@std@@QAE@XZ
	jmp	___CxxFrameHandler3
text$x	ENDS
??1_Bxty@?$_String_val@U?$_Simple_types@D@std@@@std@@QAE@XZ ENDP ; std::_String_val<std::_Simple_types<char> >::_Bxty::~_Bxty
; Function compile flags: /Odtp /RTCsu /ZI
; File C:\Program Files (x86)\Microsoft Visual Studio\2019\Community\VC\Tools\MSVC\14.24.28314\include\xstring
;	COMDAT ??0_Bxty@?$_String_val@U?$_Simple_types@D@std@@@std@@QAE@XZ
_TEXT	SEGMENT
_this$ = -8						; size = 4
??0_Bxty@?$_String_val@U?$_Simple_types@D@std@@@std@@QAE@XZ PROC ; std::_String_val<std::_Simple_types<char> >::_Bxty::_Bxty, COMDAT
; _this$ = ecx

; 2186 :         _Bxty() {} // user-provided, for fancy pointers

	push	ebp
	mov	ebp, esp
	sub	esp, 204				; 000000ccH
	push	ebx
	push	esi
	push	edi
	push	ecx
	lea	edi, DWORD PTR [ebp-204]
	mov	ecx, 51					; 00000033H
	mov	eax, -858993460				; ccccccccH
	rep stosd
	pop	ecx
	mov	DWORD PTR _this$[ebp], ecx
	mov	ecx, OFFSET __C564DC25_xstring
	call	@__CheckForDebuggerJustMyCode@4
	mov	eax, DWORD PTR _this$[ebp]
	pop	edi
	pop	esi
	pop	ebx
	add	esp, 204				; 000000ccH
	cmp	ebp, esp
	call	__RTC_CheckEsp
	mov	esp, ebp
	pop	ebp
	ret	0
??0_Bxty@?$_String_val@U?$_Simple_types@D@std@@@std@@QAE@XZ ENDP ; std::_String_val<std::_Simple_types<char> >::_Bxty::_Bxty
_TEXT	ENDS
; Function compile flags: /Odtp /RTCsu /ZI
; File C:\Program Files (x86)\Microsoft Visual Studio\2019\Community\VC\Tools\MSVC\14.24.28314\include\xstring
;	COMDAT ?_Large_string_engaged@?$_String_val@U?$_Simple_types@D@std@@@std@@QBE_NXZ
_TEXT	SEGMENT
tv66 = -208						; size = 4
_this$ = -8						; size = 4
?_Large_string_engaged@?$_String_val@U?$_Simple_types@D@std@@@std@@QBE_NXZ PROC ; std::_String_val<std::_Simple_types<char> >::_Large_string_engaged, COMDAT
; _this$ = ecx

; 2160 :     bool _Large_string_engaged() const {

	push	ebp
	mov	ebp, esp
	sub	esp, 208				; 000000d0H
	push	ebx
	push	esi
	push	edi
	push	ecx
	lea	edi, DWORD PTR [ebp-208]
	mov	ecx, 52					; 00000034H
	mov	eax, -858993460				; ccccccccH
	rep stosd
	pop	ecx
	mov	DWORD PTR _this$[ebp], ecx
	mov	ecx, OFFSET __C564DC25_xstring
	call	@__CheckForDebuggerJustMyCode@4

; 2161 :         return _BUF_SIZE <= _Myres;

	mov	eax, DWORD PTR _this$[ebp]
	cmp	DWORD PTR [eax+24], 16			; 00000010H
	jb	SHORT $LN3@Large_stri
	mov	DWORD PTR tv66[ebp], 1
	jmp	SHORT $LN4@Large_stri
$LN3@Large_stri:
	mov	DWORD PTR tv66[ebp], 0
$LN4@Large_stri:
	mov	al, BYTE PTR tv66[ebp]

; 2162 :     }

	pop	edi
	pop	esi
	pop	ebx
	add	esp, 208				; 000000d0H
	cmp	ebp, esp
	call	__RTC_CheckEsp
	mov	esp, ebp
	pop	ebp
	ret	0
?_Large_string_engaged@?$_String_val@U?$_Simple_types@D@std@@@std@@QBE_NXZ ENDP ; std::_String_val<std::_Simple_types<char> >::_Large_string_engaged
_TEXT	ENDS
; Function compile flags: /Odtp /RTCsu /ZI
; File C:\Program Files (x86)\Microsoft Visual Studio\2019\Community\VC\Tools\MSVC\14.24.28314\include\xstring
;	COMDAT ?_Myptr@?$_String_val@U?$_Simple_types@D@std@@@std@@QAEPADXZ
_TEXT	SEGMENT
__Result$ = -20						; size = 4
_this$ = -8						; size = 4
?_Myptr@?$_String_val@U?$_Simple_types@D@std@@@std@@QAEPADXZ PROC ; std::_String_val<std::_Simple_types<char> >::_Myptr, COMDAT
; _this$ = ecx

; 2142 :     value_type* _Myptr() {

	push	ebp
	mov	ebp, esp
	sub	esp, 216				; 000000d8H
	push	ebx
	push	esi
	push	edi
	push	ecx
	lea	edi, DWORD PTR [ebp-216]
	mov	ecx, 54					; 00000036H
	mov	eax, -858993460				; ccccccccH
	rep stosd
	pop	ecx
	mov	DWORD PTR _this$[ebp], ecx
	mov	ecx, OFFSET __C564DC25_xstring
	call	@__CheckForDebuggerJustMyCode@4

; 2143 :         value_type* _Result = _Bx._Buf;

	mov	eax, DWORD PTR _this$[ebp]
	add	eax, 4
	mov	DWORD PTR __Result$[ebp], eax

; 2144 :         if (_Large_string_engaged()) {

	mov	ecx, DWORD PTR _this$[ebp]
	call	?_Large_string_engaged@?$_String_val@U?$_Simple_types@D@std@@@std@@QBE_NXZ ; std::_String_val<std::_Simple_types<char> >::_Large_string_engaged
	movzx	eax, al
	test	eax, eax
	je	SHORT $LN2@Myptr

; 2145 :             _Result = _Unfancy(_Bx._Ptr);

	mov	eax, DWORD PTR _this$[ebp]
	mov	ecx, DWORD PTR [eax+4]
	push	ecx
	call	??$_Unfancy@D@std@@YAPADPAD@Z		; std::_Unfancy<char>
	add	esp, 4
	mov	DWORD PTR __Result$[ebp], eax
$LN2@Myptr:

; 2146 :         }
; 2147 : 
; 2148 :         return _Result;

	mov	eax, DWORD PTR __Result$[ebp]

; 2149 :     }

	pop	edi
	pop	esi
	pop	ebx
	add	esp, 216				; 000000d8H
	cmp	ebp, esp
	call	__RTC_CheckEsp
	mov	esp, ebp
	pop	ebp
	ret	0
?_Myptr@?$_String_val@U?$_Simple_types@D@std@@@std@@QAEPADXZ ENDP ; std::_String_val<std::_Simple_types<char> >::_Myptr
_TEXT	ENDS
; Function compile flags: /Odtp /RTCsu /ZI
; File C:\Program Files (x86)\Microsoft Visual Studio\2019\Community\VC\Tools\MSVC\14.24.28314\include\xstring
;	COMDAT ??0?$_String_val@U?$_Simple_types@D@std@@@std@@QAE@XZ
_TEXT	SEGMENT
_this$ = -8						; size = 4
??0?$_String_val@U?$_Simple_types@D@std@@@std@@QAE@XZ PROC ; std::_String_val<std::_Simple_types<char> >::_String_val<std::_Simple_types<char> >, COMDAT
; _this$ = ecx

; 2132 :     _String_val() : _Bx(), _Mysize(0), _Myres(0) {}

	push	ebp
	mov	ebp, esp
	sub	esp, 204				; 000000ccH
	push	ebx
	push	esi
	push	edi
	push	ecx
	lea	edi, DWORD PTR [ebp-204]
	mov	ecx, 51					; 00000033H
	mov	eax, -858993460				; ccccccccH
	rep stosd
	pop	ecx
	mov	DWORD PTR _this$[ebp], ecx
	mov	ecx, OFFSET __C564DC25_xstring
	call	@__CheckForDebuggerJustMyCode@4
	mov	ecx, DWORD PTR _this$[ebp]
	call	??0_Container_base12@std@@QAE@XZ	; std::_Container_base12::_Container_base12
	mov	ecx, DWORD PTR _this$[ebp]
	add	ecx, 4
	call	??0_Bxty@?$_String_val@U?$_Simple_types@D@std@@@std@@QAE@XZ ; std::_String_val<std::_Simple_types<char> >::_Bxty::_Bxty
	mov	eax, DWORD PTR _this$[ebp]
	mov	DWORD PTR [eax+20], 0
	mov	eax, DWORD PTR _this$[ebp]
	mov	DWORD PTR [eax+24], 0
	mov	eax, DWORD PTR _this$[ebp]
	pop	edi
	pop	esi
	pop	ebx
	add	esp, 204				; 000000ccH
	cmp	ebp, esp
	call	__RTC_CheckEsp
	mov	esp, ebp
	pop	ebp
	ret	0
??0?$_String_val@U?$_Simple_types@D@std@@@std@@QAE@XZ ENDP ; std::_String_val<std::_Simple_types<char> >::_String_val<std::_Simple_types<char> >
_TEXT	ENDS
; Function compile flags: /Odtp /RTCsu /ZI
; File C:\Program Files (x86)\Microsoft Visual Studio\2019\Community\VC\Tools\MSVC\14.24.28314\include\xmemory
;	COMDAT ?max_size@?$_Default_allocator_traits@V?$allocator@D@std@@@std@@SAIABV?$allocator@D@2@@Z
_TEXT	SEGMENT
__$EHRec$ = -12						; size = 12
___formal$ = 8						; size = 4
?max_size@?$_Default_allocator_traits@V?$allocator@D@std@@@std@@SAIABV?$allocator@D@2@@Z PROC ; std::_Default_allocator_traits<std::allocator<char> >::max_size, COMDAT

; 679  :     _NODISCARD static size_type max_size(const _Alloc&) noexcept {

	push	ebp
	mov	ebp, esp
	push	-1
	push	__ehhandler$?max_size@?$_Default_allocator_traits@V?$allocator@D@std@@@std@@SAIABV?$allocator@D@2@@Z
	mov	eax, DWORD PTR fs:0
	push	eax
	sub	esp, 192				; 000000c0H
	push	ebx
	push	esi
	push	edi
	lea	edi, DWORD PTR [ebp-204]
	mov	ecx, 48					; 00000030H
	mov	eax, -858993460				; ccccccccH
	rep stosd
	mov	eax, DWORD PTR ___security_cookie
	xor	eax, ebp
	push	eax
	lea	eax, DWORD PTR __$EHRec$[ebp]
	mov	DWORD PTR fs:0, eax
	mov	ecx, OFFSET __B1B75AB9_xmemory
	call	@__CheckForDebuggerJustMyCode@4

; 680  :         return static_cast<size_t>(-1) / sizeof(value_type);

	or	eax, -1

; 681  :     }

	mov	ecx, DWORD PTR __$EHRec$[ebp]
	mov	DWORD PTR fs:0, ecx
	pop	ecx
	pop	edi
	pop	esi
	pop	ebx
	add	esp, 204				; 000000ccH
	cmp	ebp, esp
	call	__RTC_CheckEsp
	mov	esp, ebp
	pop	ebp
	ret	0
_TEXT	ENDS
;	COMDAT text$x
text$x	SEGMENT
__ehhandler$?max_size@?$_Default_allocator_traits@V?$allocator@D@std@@@std@@SAIABV?$allocator@D@2@@Z:
	mov	edx, DWORD PTR [esp+8]
	lea	eax, DWORD PTR [edx+12]
	mov	ecx, DWORD PTR [edx-208]
	xor	ecx, eax
	call	@__security_check_cookie@4
	mov	eax, OFFSET __ehfuncinfo$?max_size@?$_Default_allocator_traits@V?$allocator@D@std@@@std@@SAIABV?$allocator@D@2@@Z
	jmp	___CxxFrameHandler3
text$x	ENDS
?max_size@?$_Default_allocator_traits@V?$allocator@D@std@@@std@@SAIABV?$allocator@D@2@@Z ENDP ; std::_Default_allocator_traits<std::allocator<char> >::max_size
; Function compile flags: /Odtp /RTCsu /ZI
; File C:\Program Files (x86)\Microsoft Visual Studio\2019\Community\VC\Tools\MSVC\14.24.28314\include\xmemory
;	COMDAT ?allocate@?$allocator@D@std@@QAEPADI@Z
_TEXT	SEGMENT
_this$ = -8						; size = 4
__Count$ = 8						; size = 4
?allocate@?$allocator@D@std@@QAEPADI@Z PROC		; std::allocator<char>::allocate, COMDAT
; _this$ = ecx

; 783  :     _NODISCARD _DECLSPEC_ALLOCATOR _Ty* allocate(_CRT_GUARDOVERFLOW const size_t _Count) {

	push	ebp
	mov	ebp, esp
	sub	esp, 204				; 000000ccH
	push	ebx
	push	esi
	push	edi
	push	ecx
	lea	edi, DWORD PTR [ebp-204]
	mov	ecx, 51					; 00000033H
	mov	eax, -858993460				; ccccccccH
	rep stosd
	pop	ecx
	mov	DWORD PTR _this$[ebp], ecx
	mov	ecx, OFFSET __B1B75AB9_xmemory
	call	@__CheckForDebuggerJustMyCode@4

; 784  :         return static_cast<_Ty*>(_Allocate<_New_alignof<_Ty>>(_Get_size_of_n<sizeof(_Ty)>(_Count)));

	mov	eax, DWORD PTR __Count$[ebp]
	push	eax
	call	??$_Get_size_of_n@$00@std@@YAII@Z	; std::_Get_size_of_n<1>
	add	esp, 4
	push	eax
	call	??$_Allocate@$07U_Default_allocate_traits@std@@$0A@@std@@YAPAXI@Z ; std::_Allocate<8,std::_Default_allocate_traits,0>
	add	esp, 4

; 785  :     }

	pop	edi
	pop	esi
	pop	ebx
	add	esp, 204				; 000000ccH
	cmp	ebp, esp
	call	__RTC_CheckEsp
	mov	esp, ebp
	pop	ebp
	ret	4
?allocate@?$allocator@D@std@@QAEPADI@Z ENDP		; std::allocator<char>::allocate
_TEXT	ENDS
; Function compile flags: /Odtp /RTCsu /ZI
; File C:\Program Files (x86)\Microsoft Visual Studio\2019\Community\VC\Tools\MSVC\14.24.28314\include\xmemory
;	COMDAT ?deallocate@?$allocator@D@std@@QAEXQADI@Z
_TEXT	SEGMENT
_this$ = -8						; size = 4
__Ptr$ = 8						; size = 4
__Count$ = 12						; size = 4
?deallocate@?$allocator@D@std@@QAEXQADI@Z PROC		; std::allocator<char>::deallocate, COMDAT
; _this$ = ecx

; 778  :     void deallocate(_Ty* const _Ptr, const size_t _Count) {

	push	ebp
	mov	ebp, esp
	sub	esp, 204				; 000000ccH
	push	ebx
	push	esi
	push	edi
	push	ecx
	lea	edi, DWORD PTR [ebp-204]
	mov	ecx, 51					; 00000033H
	mov	eax, -858993460				; ccccccccH
	rep stosd
	pop	ecx
	mov	DWORD PTR _this$[ebp], ecx
	mov	ecx, OFFSET __B1B75AB9_xmemory
	call	@__CheckForDebuggerJustMyCode@4

; 779  :         // no overflow check on the following multiply; we assume _Allocate did that check
; 780  :         _Deallocate<_New_alignof<_Ty>>(_Ptr, sizeof(_Ty) * _Count);

	mov	eax, DWORD PTR __Count$[ebp]
	push	eax
	mov	ecx, DWORD PTR __Ptr$[ebp]
	push	ecx
	call	??$_Deallocate@$07$0A@@std@@YAXPAXI@Z	; std::_Deallocate<8,0>
	add	esp, 8

; 781  :     }

	pop	edi
	pop	esi
	pop	ebx
	add	esp, 204				; 000000ccH
	cmp	ebp, esp
	call	__RTC_CheckEsp
	mov	esp, ebp
	pop	ebp
	ret	8
?deallocate@?$allocator@D@std@@QAEXQADI@Z ENDP		; std::allocator<char>::deallocate
_TEXT	ENDS
; Function compile flags: /Odtp /RTCsu /ZI
; File C:\Program Files (x86)\Microsoft Visual Studio\2019\Community\VC\Tools\MSVC\14.24.28314\include\xmemory
;	COMDAT ??0?$allocator@D@std@@QAE@XZ
_TEXT	SEGMENT
_this$ = -20						; size = 4
__$EHRec$ = -12						; size = 12
??0?$allocator@D@std@@QAE@XZ PROC			; std::allocator<char>::allocator<char>, COMDAT
; _this$ = ecx

; 772  :     constexpr allocator() noexcept {}

	push	ebp
	mov	ebp, esp
	push	-1
	push	__ehhandler$??0?$allocator@D@std@@QAE@XZ
	mov	eax, DWORD PTR fs:0
	push	eax
	sub	esp, 204				; 000000ccH
	push	ebx
	push	esi
	push	edi
	push	ecx
	lea	edi, DWORD PTR [ebp-216]
	mov	ecx, 51					; 00000033H
	mov	eax, -858993460				; ccccccccH
	rep stosd
	pop	ecx
	mov	eax, DWORD PTR ___security_cookie
	xor	eax, ebp
	push	eax
	lea	eax, DWORD PTR __$EHRec$[ebp]
	mov	DWORD PTR fs:0, eax
	mov	DWORD PTR _this$[ebp], ecx
	mov	ecx, OFFSET __B1B75AB9_xmemory
	call	@__CheckForDebuggerJustMyCode@4
	mov	eax, DWORD PTR _this$[ebp]
	mov	ecx, DWORD PTR __$EHRec$[ebp]
	mov	DWORD PTR fs:0, ecx
	pop	ecx
	pop	edi
	pop	esi
	pop	ebx
	add	esp, 216				; 000000d8H
	cmp	ebp, esp
	call	__RTC_CheckEsp
	mov	esp, ebp
	pop	ebp
	ret	0
_TEXT	ENDS
;	COMDAT text$x
text$x	SEGMENT
__ehhandler$??0?$allocator@D@std@@QAE@XZ:
	mov	edx, DWORD PTR [esp+8]
	lea	eax, DWORD PTR [edx+12]
	mov	ecx, DWORD PTR [edx-220]
	xor	ecx, eax
	call	@__security_check_cookie@4
	mov	eax, OFFSET __ehfuncinfo$??0?$allocator@D@std@@QAE@XZ
	jmp	___CxxFrameHandler3
text$x	ENDS
??0?$allocator@D@std@@QAE@XZ ENDP			; std::allocator<char>::allocator<char>
; Function compile flags: /Odtp /RTCsu /ZI
; File C:\Program Files (x86)\Microsoft Visual Studio\2019\Community\VC\Tools\MSVC\14.24.28314\include\utility
;	COMDAT ??$_Min_value@I@std@@YAABIABI0@Z
_TEXT	SEGMENT
tv65 = -220						; size = 4
$T2 = -212						; size = 4
__$EHRec$ = -12						; size = 12
__Left$ = 8						; size = 4
__Right$ = 12						; size = 4
??$_Min_value@I@std@@YAABIABI0@Z PROC			; std::_Min_value<unsigned int>, COMDAT

; 29   :     const _Ty& _Left, const _Ty& _Right) noexcept(noexcept(_Right < _Left)) {

	push	ebp
	mov	ebp, esp
	push	-1
	push	__ehhandler$??$_Min_value@I@std@@YAABIABI0@Z
	mov	eax, DWORD PTR fs:0
	push	eax
	sub	esp, 208				; 000000d0H
	push	ebx
	push	esi
	push	edi
	lea	edi, DWORD PTR [ebp-220]
	mov	ecx, 52					; 00000034H
	mov	eax, -858993460				; ccccccccH
	rep stosd
	mov	eax, DWORD PTR ___security_cookie
	xor	eax, ebp
	push	eax
	lea	eax, DWORD PTR __$EHRec$[ebp]
	mov	DWORD PTR fs:0, eax
	mov	ecx, OFFSET __DB22397A_utility
	call	@__CheckForDebuggerJustMyCode@4

; 30   :     return _Right < _Left ? _Right : _Left;

	mov	eax, DWORD PTR __Right$[ebp]
	mov	ecx, DWORD PTR __Left$[ebp]
	mov	edx, DWORD PTR [eax]
	cmp	edx, DWORD PTR [ecx]
	jae	SHORT $LN3@Min_value
	mov	eax, DWORD PTR __Right$[ebp]
	mov	DWORD PTR tv65[ebp], eax
	jmp	SHORT $LN4@Min_value
$LN3@Min_value:
	mov	ecx, DWORD PTR __Left$[ebp]
	mov	DWORD PTR tv65[ebp], ecx
$LN4@Min_value:
	mov	edx, DWORD PTR tv65[ebp]
	mov	DWORD PTR $T2[ebp], edx
	mov	eax, DWORD PTR $T2[ebp]

; 31   : }

	mov	ecx, DWORD PTR __$EHRec$[ebp]
	mov	DWORD PTR fs:0, ecx
	pop	ecx
	pop	edi
	pop	esi
	pop	ebx
	add	esp, 220				; 000000dcH
	cmp	ebp, esp
	call	__RTC_CheckEsp
	mov	esp, ebp
	pop	ebp
	ret	0
_TEXT	ENDS
;	COMDAT text$x
text$x	SEGMENT
__ehhandler$??$_Min_value@I@std@@YAABIABI0@Z:
	mov	edx, DWORD PTR [esp+8]
	lea	eax, DWORD PTR [edx+12]
	mov	ecx, DWORD PTR [edx-224]
	xor	ecx, eax
	call	@__security_check_cookie@4
	mov	eax, OFFSET __ehfuncinfo$??$_Min_value@I@std@@YAABIABI0@Z
	jmp	___CxxFrameHandler3
text$x	ENDS
??$_Min_value@I@std@@YAABIABI0@Z ENDP			; std::_Min_value<unsigned int>
; Function compile flags: /Odtp /RTCsu /ZI
; File C:\Program Files (x86)\Microsoft Visual Studio\2019\Community\VC\Tools\MSVC\14.24.28314\include\xstring
;	COMDAT ?eof@?$_Narrow_char_traits@DH@std@@SAHXZ
_TEXT	SEGMENT
__$EHRec$ = -12						; size = 12
?eof@?$_Narrow_char_traits@DH@std@@SAHXZ PROC		; std::_Narrow_char_traits<char,int>::eof, COMDAT

; 404  :     _NODISCARD static constexpr int_type eof() noexcept {

	push	ebp
	mov	ebp, esp
	push	-1
	push	__ehhandler$?eof@?$_Narrow_char_traits@DH@std@@SAHXZ
	mov	eax, DWORD PTR fs:0
	push	eax
	sub	esp, 192				; 000000c0H
	push	ebx
	push	esi
	push	edi
	lea	edi, DWORD PTR [ebp-204]
	mov	ecx, 48					; 00000030H
	mov	eax, -858993460				; ccccccccH
	rep stosd
	mov	eax, DWORD PTR ___security_cookie
	xor	eax, ebp
	push	eax
	lea	eax, DWORD PTR __$EHRec$[ebp]
	mov	DWORD PTR fs:0, eax
	mov	ecx, OFFSET __C564DC25_xstring
	call	@__CheckForDebuggerJustMyCode@4

; 405  :         return static_cast<int_type>(EOF);

	or	eax, -1

; 406  :     }

	mov	ecx, DWORD PTR __$EHRec$[ebp]
	mov	DWORD PTR fs:0, ecx
	pop	ecx
	pop	edi
	pop	esi
	pop	ebx
	add	esp, 204				; 000000ccH
	cmp	ebp, esp
	call	__RTC_CheckEsp
	mov	esp, ebp
	pop	ebp
	ret	0
_TEXT	ENDS
;	COMDAT text$x
text$x	SEGMENT
__ehhandler$?eof@?$_Narrow_char_traits@DH@std@@SAHXZ:
	mov	edx, DWORD PTR [esp+8]
	lea	eax, DWORD PTR [edx+12]
	mov	ecx, DWORD PTR [edx-208]
	xor	ecx, eax
	call	@__security_check_cookie@4
	mov	eax, OFFSET __ehfuncinfo$?eof@?$_Narrow_char_traits@DH@std@@SAHXZ
	jmp	___CxxFrameHandler3
text$x	ENDS
?eof@?$_Narrow_char_traits@DH@std@@SAHXZ ENDP		; std::_Narrow_char_traits<char,int>::eof
; Function compile flags: /Odtp /RTCsu /ZI
; File C:\Program Files (x86)\Microsoft Visual Studio\2019\Community\VC\Tools\MSVC\14.24.28314\include\xstring
;	COMDAT ?eq_int_type@?$_Narrow_char_traits@DH@std@@SA_NABH0@Z
_TEXT	SEGMENT
tv65 = -208						; size = 4
__$EHRec$ = -12						; size = 12
__Left$ = 8						; size = 4
__Right$ = 12						; size = 4
?eq_int_type@?$_Narrow_char_traits@DH@std@@SA_NABH0@Z PROC ; std::_Narrow_char_traits<char,int>::eq_int_type, COMDAT

; 396  :     _NODISCARD static constexpr bool eq_int_type(const int_type& _Left, const int_type& _Right) noexcept {

	push	ebp
	mov	ebp, esp
	push	-1
	push	__ehhandler$?eq_int_type@?$_Narrow_char_traits@DH@std@@SA_NABH0@Z
	mov	eax, DWORD PTR fs:0
	push	eax
	sub	esp, 196				; 000000c4H
	push	ebx
	push	esi
	push	edi
	lea	edi, DWORD PTR [ebp-208]
	mov	ecx, 49					; 00000031H
	mov	eax, -858993460				; ccccccccH
	rep stosd
	mov	eax, DWORD PTR ___security_cookie
	xor	eax, ebp
	push	eax
	lea	eax, DWORD PTR __$EHRec$[ebp]
	mov	DWORD PTR fs:0, eax
	mov	ecx, OFFSET __C564DC25_xstring
	call	@__CheckForDebuggerJustMyCode@4

; 397  :         return _Left == _Right;

	mov	eax, DWORD PTR __Left$[ebp]
	mov	ecx, DWORD PTR __Right$[ebp]
	mov	edx, DWORD PTR [eax]
	cmp	edx, DWORD PTR [ecx]
	jne	SHORT $LN3@eq_int_typ
	mov	DWORD PTR tv65[ebp], 1
	jmp	SHORT $LN4@eq_int_typ
$LN3@eq_int_typ:
	mov	DWORD PTR tv65[ebp], 0
$LN4@eq_int_typ:
	mov	al, BYTE PTR tv65[ebp]

; 398  :     }

	mov	ecx, DWORD PTR __$EHRec$[ebp]
	mov	DWORD PTR fs:0, ecx
	pop	ecx
	pop	edi
	pop	esi
	pop	ebx
	add	esp, 208				; 000000d0H
	cmp	ebp, esp
	call	__RTC_CheckEsp
	mov	esp, ebp
	pop	ebp
	ret	0
_TEXT	ENDS
;	COMDAT text$x
text$x	SEGMENT
__ehhandler$?eq_int_type@?$_Narrow_char_traits@DH@std@@SA_NABH0@Z:
	mov	edx, DWORD PTR [esp+8]
	lea	eax, DWORD PTR [edx+12]
	mov	ecx, DWORD PTR [edx-212]
	xor	ecx, eax
	call	@__security_check_cookie@4
	mov	eax, OFFSET __ehfuncinfo$?eq_int_type@?$_Narrow_char_traits@DH@std@@SA_NABH0@Z
	jmp	___CxxFrameHandler3
text$x	ENDS
?eq_int_type@?$_Narrow_char_traits@DH@std@@SA_NABH0@Z ENDP ; std::_Narrow_char_traits<char,int>::eq_int_type
; Function compile flags: /Odtp /RTCsu /ZI
; File C:\Program Files (x86)\Microsoft Visual Studio\2019\Community\VC\Tools\MSVC\14.24.28314\include\xstring
;	COMDAT ?assign@?$_Narrow_char_traits@DH@std@@SAXAADABD@Z
_TEXT	SEGMENT
__$EHRec$ = -12						; size = 12
__Left$ = 8						; size = 4
__Right$ = 12						; size = 4
?assign@?$_Narrow_char_traits@DH@std@@SAXAADABD@Z PROC	; std::_Narrow_char_traits<char,int>::assign, COMDAT

; 376  :     static _CONSTEXPR17 void assign(_Elem& _Left, const _Elem& _Right) noexcept {

	push	ebp
	mov	ebp, esp
	push	-1
	push	__ehhandler$?assign@?$_Narrow_char_traits@DH@std@@SAXAADABD@Z
	mov	eax, DWORD PTR fs:0
	push	eax
	sub	esp, 192				; 000000c0H
	push	ebx
	push	esi
	push	edi
	lea	edi, DWORD PTR [ebp-204]
	mov	ecx, 48					; 00000030H
	mov	eax, -858993460				; ccccccccH
	rep stosd
	mov	eax, DWORD PTR ___security_cookie
	xor	eax, ebp
	push	eax
	lea	eax, DWORD PTR __$EHRec$[ebp]
	mov	DWORD PTR fs:0, eax
	mov	ecx, OFFSET __C564DC25_xstring
	call	@__CheckForDebuggerJustMyCode@4

; 377  :         _Left = _Right;

	mov	eax, DWORD PTR __Left$[ebp]
	mov	ecx, DWORD PTR __Right$[ebp]
	mov	dl, BYTE PTR [ecx]
	mov	BYTE PTR [eax], dl

; 378  :     }

	mov	ecx, DWORD PTR __$EHRec$[ebp]
	mov	DWORD PTR fs:0, ecx
	pop	ecx
	pop	edi
	pop	esi
	pop	ebx
	add	esp, 204				; 000000ccH
	cmp	ebp, esp
	call	__RTC_CheckEsp
	mov	esp, ebp
	pop	ebp
	ret	0
_TEXT	ENDS
;	COMDAT text$x
text$x	SEGMENT
__ehhandler$?assign@?$_Narrow_char_traits@DH@std@@SAXAADABD@Z:
	mov	edx, DWORD PTR [esp+8]
	lea	eax, DWORD PTR [edx+12]
	mov	ecx, DWORD PTR [edx-208]
	xor	ecx, eax
	call	@__security_check_cookie@4
	mov	eax, OFFSET __ehfuncinfo$?assign@?$_Narrow_char_traits@DH@std@@SAXAADABD@Z
	jmp	___CxxFrameHandler3
text$x	ENDS
?assign@?$_Narrow_char_traits@DH@std@@SAXAADABD@Z ENDP	; std::_Narrow_char_traits<char,int>::assign
; Function compile flags: /Odtp /RTCsu /ZI
; File C:\Program Files (x86)\Microsoft Visual Studio\2019\Community\VC\Tools\MSVC\14.24.28314\include\xstring
;	COMDAT ?move@?$_Narrow_char_traits@DH@std@@SAPADQADQBDI@Z
_TEXT	SEGMENT
__$EHRec$ = -12						; size = 12
__First1$ = 8						; size = 4
__First2$ = 12						; size = 4
__Count$ = 16						; size = 4
?move@?$_Narrow_char_traits@DH@std@@SAPADQADQBDI@Z PROC	; std::_Narrow_char_traits<char,int>::move, COMDAT

; 365  :         const size_t _Count) noexcept /* strengthened */ {

	push	ebp
	mov	ebp, esp
	push	-1
	push	__ehhandler$?move@?$_Narrow_char_traits@DH@std@@SAPADQADQBDI@Z
	mov	eax, DWORD PTR fs:0
	push	eax
	sub	esp, 192				; 000000c0H
	push	ebx
	push	esi
	push	edi
	lea	edi, DWORD PTR [ebp-204]
	mov	ecx, 48					; 00000030H
	mov	eax, -858993460				; ccccccccH
	rep stosd
	mov	eax, DWORD PTR ___security_cookie
	xor	eax, ebp
	push	eax
	lea	eax, DWORD PTR __$EHRec$[ebp]
	mov	DWORD PTR fs:0, eax
	mov	ecx, OFFSET __C564DC25_xstring
	call	@__CheckForDebuggerJustMyCode@4

; 366  :         // copy [_First2, _First2 + _Count) to [_First1, ...)
; 367  :         return static_cast<_Elem*>(_CSTD memmove(_First1, _First2, _Count));

	mov	eax, DWORD PTR __Count$[ebp]
	push	eax
	mov	ecx, DWORD PTR __First2$[ebp]
	push	ecx
	mov	edx, DWORD PTR __First1$[ebp]
	push	edx
	call	_memmove
	add	esp, 12					; 0000000cH

; 368  :     }

	mov	ecx, DWORD PTR __$EHRec$[ebp]
	mov	DWORD PTR fs:0, ecx
	pop	ecx
	pop	edi
	pop	esi
	pop	ebx
	add	esp, 204				; 000000ccH
	cmp	ebp, esp
	call	__RTC_CheckEsp
	mov	esp, ebp
	pop	ebp
	ret	0
_TEXT	ENDS
;	COMDAT text$x
text$x	SEGMENT
__ehhandler$?move@?$_Narrow_char_traits@DH@std@@SAPADQADQBDI@Z:
	mov	edx, DWORD PTR [esp+8]
	lea	eax, DWORD PTR [edx+12]
	mov	ecx, DWORD PTR [edx-208]
	xor	ecx, eax
	call	@__security_check_cookie@4
	mov	eax, OFFSET __ehfuncinfo$?move@?$_Narrow_char_traits@DH@std@@SAPADQADQBDI@Z
	jmp	___CxxFrameHandler3
text$x	ENDS
?move@?$_Narrow_char_traits@DH@std@@SAPADQADQBDI@Z ENDP	; std::_Narrow_char_traits<char,int>::move
; Function compile flags: /Odtp /RTCsu /ZI
; File C:\Program Files (x86)\Microsoft Visual Studio\2019\Community\VC\Tools\MSVC\14.24.28314\include\xstring
;	COMDAT ?copy@?$_Narrow_char_traits@DH@std@@SAPADQADQBDI@Z
_TEXT	SEGMENT
__$EHRec$ = -12						; size = 12
__First1$ = 8						; size = 4
__First2$ = 12						; size = 4
__Count$ = 16						; size = 4
?copy@?$_Narrow_char_traits@DH@std@@SAPADQADQBDI@Z PROC	; std::_Narrow_char_traits<char,int>::copy, COMDAT

; 330  :         const size_t _Count) noexcept /* strengthened */ {

	push	ebp
	mov	ebp, esp
	push	-1
	push	__ehhandler$?copy@?$_Narrow_char_traits@DH@std@@SAPADQADQBDI@Z
	mov	eax, DWORD PTR fs:0
	push	eax
	sub	esp, 192				; 000000c0H
	push	ebx
	push	esi
	push	edi
	lea	edi, DWORD PTR [ebp-204]
	mov	ecx, 48					; 00000030H
	mov	eax, -858993460				; ccccccccH
	rep stosd
	mov	eax, DWORD PTR ___security_cookie
	xor	eax, ebp
	push	eax
	lea	eax, DWORD PTR __$EHRec$[ebp]
	mov	DWORD PTR fs:0, eax
	mov	ecx, OFFSET __C564DC25_xstring
	call	@__CheckForDebuggerJustMyCode@4

; 331  :         // copy [_First2, _First2 + _Count) to [_First1, ...)
; 332  :         return static_cast<_Elem*>(_CSTD memcpy(_First1, _First2, _Count));

	mov	eax, DWORD PTR __Count$[ebp]
	push	eax
	mov	ecx, DWORD PTR __First2$[ebp]
	push	ecx
	mov	edx, DWORD PTR __First1$[ebp]
	push	edx
	call	_memcpy
	add	esp, 12					; 0000000cH

; 333  :     }

	mov	ecx, DWORD PTR __$EHRec$[ebp]
	mov	DWORD PTR fs:0, ecx
	pop	ecx
	pop	edi
	pop	esi
	pop	ebx
	add	esp, 204				; 000000ccH
	cmp	ebp, esp
	call	__RTC_CheckEsp
	mov	esp, ebp
	pop	ebp
	ret	0
_TEXT	ENDS
;	COMDAT text$x
text$x	SEGMENT
__ehhandler$?copy@?$_Narrow_char_traits@DH@std@@SAPADQADQBDI@Z:
	mov	edx, DWORD PTR [esp+8]
	lea	eax, DWORD PTR [edx+12]
	mov	ecx, DWORD PTR [edx-208]
	xor	ecx, eax
	call	@__security_check_cookie@4
	mov	eax, OFFSET __ehfuncinfo$?copy@?$_Narrow_char_traits@DH@std@@SAPADQADQBDI@Z
	jmp	___CxxFrameHandler3
text$x	ENDS
?copy@?$_Narrow_char_traits@DH@std@@SAPADQADQBDI@Z ENDP	; std::_Narrow_char_traits<char,int>::copy
; Function compile flags: /Odtp /RTCsu /ZI
; File C:\Program Files (x86)\Microsoft Visual Studio\2019\Community\VC\Tools\MSVC\14.24.28314\include\xstring
;	COMDAT ?length@?$_Narrow_char_traits@DH@std@@SAIQBD@Z
_TEXT	SEGMENT
__$EHRec$ = -12						; size = 12
__First$ = 8						; size = 4
?length@?$_Narrow_char_traits@DH@std@@SAIQBD@Z PROC	; std::_Narrow_char_traits<char,int>::length, COMDAT

; 309  :     _NODISCARD static _CONSTEXPR17 size_t length(_In_z_ const _Elem* const _First) noexcept /* strengthened */ {

	push	ebp
	mov	ebp, esp
	push	-1
	push	__ehhandler$?length@?$_Narrow_char_traits@DH@std@@SAIQBD@Z
	mov	eax, DWORD PTR fs:0
	push	eax
	sub	esp, 192				; 000000c0H
	push	ebx
	push	esi
	push	edi
	lea	edi, DWORD PTR [ebp-204]
	mov	ecx, 48					; 00000030H
	mov	eax, -858993460				; ccccccccH
	rep stosd
	mov	eax, DWORD PTR ___security_cookie
	xor	eax, ebp
	push	eax
	lea	eax, DWORD PTR __$EHRec$[ebp]
	mov	DWORD PTR fs:0, eax
	mov	ecx, OFFSET __C564DC25_xstring
	call	@__CheckForDebuggerJustMyCode@4

; 310  :         // find length of null-terminated string
; 311  : #if _HAS_CXX17
; 312  : #ifdef __cpp_char8_t
; 313  :         if constexpr (is_same_v<_Elem, char8_t>) {
; 314  : #if _HAS_U8_INTRINSICS
; 315  :             return __builtin_u8strlen(_First);
; 316  : #else // ^^^ use u8 intrinsics / no u8 intrinsics vvv
; 317  :             return _Char_traits<_Elem, _Int_type>::length(_First);
; 318  : #endif // _HAS_U8_INTRINSICS
; 319  :         } else
; 320  : #endif // __cpp_char8_t
; 321  :         {
; 322  :             return __builtin_strlen(_First);
; 323  :         }
; 324  : #else // _HAS_CXX17
; 325  :         return _CSTD strlen(reinterpret_cast<const char*>(_First));

	mov	eax, DWORD PTR __First$[ebp]
	push	eax
	call	_strlen
	add	esp, 4

; 326  : #endif // _HAS_CXX17
; 327  :     }

	mov	ecx, DWORD PTR __$EHRec$[ebp]
	mov	DWORD PTR fs:0, ecx
	pop	ecx
	pop	edi
	pop	esi
	pop	ebx
	add	esp, 204				; 000000ccH
	cmp	ebp, esp
	call	__RTC_CheckEsp
	mov	esp, ebp
	pop	ebp
	ret	0
_TEXT	ENDS
;	COMDAT text$x
text$x	SEGMENT
__ehhandler$?length@?$_Narrow_char_traits@DH@std@@SAIQBD@Z:
	mov	edx, DWORD PTR [esp+8]
	lea	eax, DWORD PTR [edx+12]
	mov	ecx, DWORD PTR [edx-208]
	xor	ecx, eax
	call	@__security_check_cookie@4
	mov	eax, OFFSET __ehfuncinfo$?length@?$_Narrow_char_traits@DH@std@@SAIQBD@Z
	jmp	___CxxFrameHandler3
text$x	ENDS
?length@?$_Narrow_char_traits@DH@std@@SAIQBD@Z ENDP	; std::_Narrow_char_traits<char,int>::length
; Function compile flags: /Odtp /RTCsu /ZI
; File C:\Program Files (x86)\Microsoft Visual Studio\2019\Community\VC\Tools\MSVC\14.24.28314\include\xmemory
;	COMDAT ??$_Construct_in_place@U_Container_proxy@std@@PAU_Container_base12@2@@std@@YAXAAU_Container_proxy@0@$$QAPAU_Container_base12@0@@Z
_TEXT	SEGMENT
$T2 = -212						; size = 4
__$EHRec$ = -12						; size = 12
__Obj$ = 8						; size = 4
_<_Args_0>$ = 12					; size = 4
??$_Construct_in_place@U_Container_proxy@std@@PAU_Container_base12@2@@std@@YAXAAU_Container_proxy@0@$$QAPAU_Container_base12@0@@Z PROC ; std::_Construct_in_place<std::_Container_proxy,std::_Container_base12 *>, COMDAT

; 202  : void _Construct_in_place(_Ty& _Obj, _Types&&... _Args) noexcept(is_nothrow_constructible_v<_Ty, _Types...>) {

	push	ebp
	mov	ebp, esp
	push	-1
	push	__ehhandler$??$_Construct_in_place@U_Container_proxy@std@@PAU_Container_base12@2@@std@@YAXAAU_Container_proxy@0@$$QAPAU_Container_base12@0@@Z
	mov	eax, DWORD PTR fs:0
	push	eax
	sub	esp, 204				; 000000ccH
	push	ebx
	push	esi
	push	edi
	lea	edi, DWORD PTR [ebp-216]
	mov	ecx, 51					; 00000033H
	mov	eax, -858993460				; ccccccccH
	rep stosd
	mov	eax, DWORD PTR ___security_cookie
	xor	eax, ebp
	push	eax
	lea	eax, DWORD PTR __$EHRec$[ebp]
	mov	DWORD PTR fs:0, eax
	mov	ecx, OFFSET __B1B75AB9_xmemory
	call	@__CheckForDebuggerJustMyCode@4
	mov	eax, DWORD PTR __Obj$[ebp]
	push	eax
	call	??$addressof@U_Container_proxy@std@@@std@@YAPAU_Container_proxy@0@AAU10@@Z ; std::addressof<std::_Container_proxy>
	add	esp, 4
	push	eax
	push	8
	call	??2@YAPAXIPAX@Z				; operator new
	add	esp, 8
	mov	DWORD PTR $T2[ebp], eax
	mov	ecx, DWORD PTR _<_Args_0>$[ebp]
	push	ecx
	call	??$forward@PAU_Container_base12@std@@@std@@YA$$QAPAU_Container_base12@0@AAPAU10@@Z ; std::forward<std::_Container_base12 *>
	add	esp, 4
	mov	edx, DWORD PTR [eax]
	push	edx
	mov	ecx, DWORD PTR $T2[ebp]
	call	??0_Container_proxy@std@@QAE@PAU_Container_base12@1@@Z ; std::_Container_proxy::_Container_proxy

; 203  :     ::new (const_cast<void*>(static_cast<const volatile void*>(_STD addressof(_Obj))))
; 204  :         _Ty(_STD forward<_Types>(_Args)...);
; 205  : }

	mov	ecx, DWORD PTR __$EHRec$[ebp]
	mov	DWORD PTR fs:0, ecx
	pop	ecx
	pop	edi
	pop	esi
	pop	ebx
	add	esp, 216				; 000000d8H
	cmp	ebp, esp
	call	__RTC_CheckEsp
	mov	esp, ebp
	pop	ebp
	ret	0
_TEXT	ENDS
;	COMDAT text$x
text$x	SEGMENT
__ehhandler$??$_Construct_in_place@U_Container_proxy@std@@PAU_Container_base12@2@@std@@YAXAAU_Container_proxy@0@$$QAPAU_Container_base12@0@@Z:
	mov	edx, DWORD PTR [esp+8]
	lea	eax, DWORD PTR [edx+12]
	mov	ecx, DWORD PTR [edx-220]
	xor	ecx, eax
	call	@__security_check_cookie@4
	mov	eax, OFFSET __ehfuncinfo$??$_Construct_in_place@U_Container_proxy@std@@PAU_Container_base12@2@@std@@YAXAAU_Container_proxy@0@$$QAPAU_Container_base12@0@@Z
	jmp	___CxxFrameHandler3
text$x	ENDS
??$_Construct_in_place@U_Container_proxy@std@@PAU_Container_base12@2@@std@@YAXAAU_Container_proxy@0@$$QAPAU_Container_base12@0@@Z ENDP ; std::_Construct_in_place<std::_Container_proxy,std::_Container_base12 *>
; Function compile flags: /Odtp /RTCsu /ZI
; File C:\Program Files (x86)\Microsoft Visual Studio\2019\Community\VC\Tools\MSVC\14.24.28314\include\xstddef
;	COMDAT ??$addressof@U_Container_base12@std@@@std@@YAPAU_Container_base12@0@AAU10@@Z
_TEXT	SEGMENT
__$EHRec$ = -12						; size = 12
__Val$ = 8						; size = 4
??$addressof@U_Container_base12@std@@@std@@YAPAU_Container_base12@0@AAU10@@Z PROC ; std::addressof<std::_Container_base12>, COMDAT

; 274  : _NODISCARD constexpr _Ty* addressof(_Ty& _Val) noexcept {

	push	ebp
	mov	ebp, esp
	push	-1
	push	__ehhandler$??$addressof@U_Container_base12@std@@@std@@YAPAU_Container_base12@0@AAU10@@Z
	mov	eax, DWORD PTR fs:0
	push	eax
	sub	esp, 192				; 000000c0H
	push	ebx
	push	esi
	push	edi
	lea	edi, DWORD PTR [ebp-204]
	mov	ecx, 48					; 00000030H
	mov	eax, -858993460				; ccccccccH
	rep stosd
	mov	eax, DWORD PTR ___security_cookie
	xor	eax, ebp
	push	eax
	lea	eax, DWORD PTR __$EHRec$[ebp]
	mov	DWORD PTR fs:0, eax
	mov	ecx, OFFSET __2C3DAE68_xstddef
	call	@__CheckForDebuggerJustMyCode@4

; 275  :     return __builtin_addressof(_Val);

	mov	eax, DWORD PTR __Val$[ebp]

; 276  : }

	mov	ecx, DWORD PTR __$EHRec$[ebp]
	mov	DWORD PTR fs:0, ecx
	pop	ecx
	pop	edi
	pop	esi
	pop	ebx
	add	esp, 204				; 000000ccH
	cmp	ebp, esp
	call	__RTC_CheckEsp
	mov	esp, ebp
	pop	ebp
	ret	0
_TEXT	ENDS
;	COMDAT text$x
text$x	SEGMENT
__ehhandler$??$addressof@U_Container_base12@std@@@std@@YAPAU_Container_base12@0@AAU10@@Z:
	mov	edx, DWORD PTR [esp+8]
	lea	eax, DWORD PTR [edx+12]
	mov	ecx, DWORD PTR [edx-208]
	xor	ecx, eax
	call	@__security_check_cookie@4
	mov	eax, OFFSET __ehfuncinfo$??$addressof@U_Container_base12@std@@@std@@YAPAU_Container_base12@0@AAU10@@Z
	jmp	___CxxFrameHandler3
text$x	ENDS
??$addressof@U_Container_base12@std@@@std@@YAPAU_Container_base12@0@AAU10@@Z ENDP ; std::addressof<std::_Container_base12>
; Function compile flags: /Odtp /RTCsu /ZI
; File C:\Program Files (x86)\Microsoft Visual Studio\2019\Community\VC\Tools\MSVC\14.24.28314\include\xmemory
;	COMDAT ?_Release@_Basic_container_proxy_ptr12@std@@QAEXXZ
_TEXT	SEGMENT
_this$ = -20						; size = 4
__$EHRec$ = -12						; size = 12
?_Release@_Basic_container_proxy_ptr12@std@@QAEXXZ PROC	; std::_Basic_container_proxy_ptr12::_Release, COMDAT
; _this$ = ecx

; 1261 :     void _Release() noexcept { // disengage this _Basic_container_proxy_ptr12

	push	ebp
	mov	ebp, esp
	push	-1
	push	__ehhandler$?_Release@_Basic_container_proxy_ptr12@std@@QAEXXZ
	mov	eax, DWORD PTR fs:0
	push	eax
	sub	esp, 204				; 000000ccH
	push	ebx
	push	esi
	push	edi
	push	ecx
	lea	edi, DWORD PTR [ebp-216]
	mov	ecx, 51					; 00000033H
	mov	eax, -858993460				; ccccccccH
	rep stosd
	pop	ecx
	mov	eax, DWORD PTR ___security_cookie
	xor	eax, ebp
	push	eax
	lea	eax, DWORD PTR __$EHRec$[ebp]
	mov	DWORD PTR fs:0, eax
	mov	DWORD PTR _this$[ebp], ecx
	mov	ecx, OFFSET __B1B75AB9_xmemory
	call	@__CheckForDebuggerJustMyCode@4

; 1262 :         _Ptr = nullptr;

	mov	eax, DWORD PTR _this$[ebp]
	mov	DWORD PTR [eax], 0

; 1263 :     }

	mov	ecx, DWORD PTR __$EHRec$[ebp]
	mov	DWORD PTR fs:0, ecx
	pop	ecx
	pop	edi
	pop	esi
	pop	ebx
	add	esp, 216				; 000000d8H
	cmp	ebp, esp
	call	__RTC_CheckEsp
	mov	esp, ebp
	pop	ebp
	ret	0
_TEXT	ENDS
;	COMDAT text$x
text$x	SEGMENT
__ehhandler$?_Release@_Basic_container_proxy_ptr12@std@@QAEXXZ:
	mov	edx, DWORD PTR [esp+8]
	lea	eax, DWORD PTR [edx+12]
	mov	ecx, DWORD PTR [edx-220]
	xor	ecx, eax
	call	@__security_check_cookie@4
	mov	eax, OFFSET __ehfuncinfo$?_Release@_Basic_container_proxy_ptr12@std@@QAEXXZ
	jmp	___CxxFrameHandler3
text$x	ENDS
?_Release@_Basic_container_proxy_ptr12@std@@QAEXXZ ENDP	; std::_Basic_container_proxy_ptr12::_Release
; Function compile flags: /Odtp /RTCsu /ZI
; File C:\Program Files (x86)\Microsoft Visual Studio\2019\Community\VC\Tools\MSVC\14.24.28314\include\xmemory
;	COMDAT ?_Orphan_all@_Container_base12@std@@QAEXXZ
_TEXT	SEGMENT
__Pnext$2 = -48						; size = 4
__Lock$3 = -36						; size = 4
_this$ = -24						; size = 4
__$ArrayPad$ = -16					; size = 4
__$EHRec$ = -12						; size = 12
?_Orphan_all@_Container_base12@std@@QAEXXZ PROC		; std::_Container_base12::_Orphan_all, COMDAT
; _this$ = ecx

; 1201 : inline void _Container_base12::_Orphan_all() noexcept {

	push	ebp
	mov	ebp, esp
	push	-1
	push	__ehhandler$?_Orphan_all@_Container_base12@std@@QAEXXZ
	mov	eax, DWORD PTR fs:0
	push	eax
	sub	esp, 232				; 000000e8H
	push	ebx
	push	esi
	push	edi
	push	ecx
	lea	edi, DWORD PTR [ebp-244]
	mov	ecx, 58					; 0000003aH
	mov	eax, -858993460				; ccccccccH
	rep stosd
	pop	ecx
	mov	eax, DWORD PTR ___security_cookie
	xor	eax, ebp
	mov	DWORD PTR __$ArrayPad$[ebp], eax
	push	eax
	lea	eax, DWORD PTR __$EHRec$[ebp]
	mov	DWORD PTR fs:0, eax
	mov	DWORD PTR _this$[ebp], ecx
	mov	ecx, OFFSET __B1B75AB9_xmemory
	call	@__CheckForDebuggerJustMyCode@4

; 1202 : #if _ITERATOR_DEBUG_LEVEL == 2
; 1203 :     if (_Myproxy) { // proxy allocated, drain it

	mov	eax, DWORD PTR _this$[ebp]
	cmp	DWORD PTR [eax], 0
	je	SHORT $LN6@Orphan_all

; 1204 :         _Lockit _Lock(_LOCK_DEBUG);

	mov	esi, esp
	push	3
	lea	ecx, DWORD PTR __Lock$3[ebp]
	call	DWORD PTR __imp_??0_Lockit@std@@QAE@H@Z
	cmp	esi, esp
	call	__RTC_CheckEsp

; 1205 : 
; 1206 :         for (auto _Pnext = &_Myproxy->_Myfirstiter; *_Pnext; *_Pnext = (*_Pnext)->_Mynextiter) {

	mov	eax, DWORD PTR _this$[ebp]
	mov	ecx, DWORD PTR [eax]
	add	ecx, 4
	mov	DWORD PTR __Pnext$2[ebp], ecx
	jmp	SHORT $LN4@Orphan_all
$LN2@Orphan_all:
	mov	eax, DWORD PTR __Pnext$2[ebp]
	mov	ecx, DWORD PTR [eax]
	mov	edx, DWORD PTR __Pnext$2[ebp]
	mov	eax, DWORD PTR [ecx+4]
	mov	DWORD PTR [edx], eax
$LN4@Orphan_all:
	mov	eax, DWORD PTR __Pnext$2[ebp]
	cmp	DWORD PTR [eax], 0
	je	SHORT $LN3@Orphan_all

; 1207 :             (*_Pnext)->_Myproxy = nullptr;

	mov	eax, DWORD PTR __Pnext$2[ebp]
	mov	ecx, DWORD PTR [eax]
	mov	DWORD PTR [ecx], 0

; 1208 :         }

	jmp	SHORT $LN2@Orphan_all
$LN3@Orphan_all:

; 1209 : 
; 1210 :         _Myproxy->_Myfirstiter = nullptr;

	mov	eax, DWORD PTR _this$[ebp]
	mov	ecx, DWORD PTR [eax]
	mov	DWORD PTR [ecx+4], 0

; 1211 :     }

	mov	esi, esp
	lea	ecx, DWORD PTR __Lock$3[ebp]
	call	DWORD PTR __imp_??1_Lockit@std@@QAE@XZ
	cmp	esi, esp
	call	__RTC_CheckEsp
$LN6@Orphan_all:

; 1212 : #endif // _ITERATOR_DEBUG_LEVEL == 2
; 1213 : }

	push	edx
	mov	ecx, ebp
	push	eax
	lea	edx, DWORD PTR $LN10@Orphan_all
	call	@_RTC_CheckStackVars@8
	pop	eax
	pop	edx
	mov	ecx, DWORD PTR __$EHRec$[ebp]
	mov	DWORD PTR fs:0, ecx
	pop	ecx
	pop	edi
	pop	esi
	pop	ebx
	mov	ecx, DWORD PTR __$ArrayPad$[ebp]
	xor	ecx, ebp
	call	@__security_check_cookie@4
	add	esp, 244				; 000000f4H
	cmp	ebp, esp
	call	__RTC_CheckEsp
	mov	esp, ebp
	pop	ebp
	ret	0
	npad	2
$LN10@Orphan_all:
	DD	1
	DD	$LN9@Orphan_all
$LN9@Orphan_all:
	DD	-36					; ffffffdcH
	DD	4
	DD	$LN7@Orphan_all
$LN7@Orphan_all:
	DB	95					; 0000005fH
	DB	76					; 0000004cH
	DB	111					; 0000006fH
	DB	99					; 00000063H
	DB	107					; 0000006bH
	DB	0
_TEXT	ENDS
;	COMDAT text$x
text$x	SEGMENT
__ehhandler$?_Orphan_all@_Container_base12@std@@QAEXXZ:
	mov	edx, DWORD PTR [esp+8]
	lea	eax, DWORD PTR [edx+12]
	mov	ecx, DWORD PTR [edx-248]
	xor	ecx, eax
	call	@__security_check_cookie@4
	mov	ecx, DWORD PTR [edx-4]
	xor	ecx, eax
	call	@__security_check_cookie@4
	mov	eax, OFFSET __ehfuncinfo$?_Orphan_all@_Container_base12@std@@QAEXXZ
	jmp	___CxxFrameHandler3
text$x	ENDS
?_Orphan_all@_Container_base12@std@@QAEXXZ ENDP		; std::_Container_base12::_Orphan_all
; Function compile flags: /Odtp /RTCsu /ZI
; File C:\Program Files (x86)\Microsoft Visual Studio\2019\Community\VC\Tools\MSVC\14.24.28314\include\xmemory
;	COMDAT ??0_Container_base12@std@@QAE@XZ
_TEXT	SEGMENT
_this$ = -20						; size = 4
__$EHRec$ = -12						; size = 12
??0_Container_base12@std@@QAE@XZ PROC			; std::_Container_base12::_Container_base12, COMDAT
; _this$ = ecx

; 1088 :     _Container_base12() noexcept : _Myproxy(nullptr) {}

	push	ebp
	mov	ebp, esp
	push	-1
	push	__ehhandler$??0_Container_base12@std@@QAE@XZ
	mov	eax, DWORD PTR fs:0
	push	eax
	sub	esp, 204				; 000000ccH
	push	ebx
	push	esi
	push	edi
	push	ecx
	lea	edi, DWORD PTR [ebp-216]
	mov	ecx, 51					; 00000033H
	mov	eax, -858993460				; ccccccccH
	rep stosd
	pop	ecx
	mov	eax, DWORD PTR ___security_cookie
	xor	eax, ebp
	push	eax
	lea	eax, DWORD PTR __$EHRec$[ebp]
	mov	DWORD PTR fs:0, eax
	mov	DWORD PTR _this$[ebp], ecx
	mov	ecx, OFFSET __B1B75AB9_xmemory
	call	@__CheckForDebuggerJustMyCode@4
	mov	eax, DWORD PTR _this$[ebp]
	mov	DWORD PTR [eax], 0
	mov	eax, DWORD PTR _this$[ebp]
	mov	ecx, DWORD PTR __$EHRec$[ebp]
	mov	DWORD PTR fs:0, ecx
	pop	ecx
	pop	edi
	pop	esi
	pop	ebx
	add	esp, 216				; 000000d8H
	cmp	ebp, esp
	call	__RTC_CheckEsp
	mov	esp, ebp
	pop	ebp
	ret	0
_TEXT	ENDS
;	COMDAT text$x
text$x	SEGMENT
__ehhandler$??0_Container_base12@std@@QAE@XZ:
	mov	edx, DWORD PTR [esp+8]
	lea	eax, DWORD PTR [edx+12]
	mov	ecx, DWORD PTR [edx-220]
	xor	ecx, eax
	call	@__security_check_cookie@4
	mov	eax, OFFSET __ehfuncinfo$??0_Container_base12@std@@QAE@XZ
	jmp	___CxxFrameHandler3
text$x	ENDS
??0_Container_base12@std@@QAE@XZ ENDP			; std::_Container_base12::_Container_base12
; Function compile flags: /Odtp /RTCsu /ZI
; File C:\Program Files (x86)\Microsoft Visual Studio\2019\Community\VC\Tools\MSVC\14.24.28314\include\xmemory
;	COMDAT ??0_Container_proxy@std@@QAE@PAU_Container_base12@1@@Z
_TEXT	SEGMENT
_this$ = -20						; size = 4
__$EHRec$ = -12						; size = 12
__Mycont_$ = 8						; size = 4
??0_Container_proxy@std@@QAE@PAU_Container_base12@1@@Z PROC ; std::_Container_proxy::_Container_proxy, COMDAT
; _this$ = ecx

; 1080 :     _Container_proxy(_Container_base12* _Mycont_) noexcept : _Mycont(_Mycont_), _Myfirstiter(nullptr) {}

	push	ebp
	mov	ebp, esp
	push	-1
	push	__ehhandler$??0_Container_proxy@std@@QAE@PAU_Container_base12@1@@Z
	mov	eax, DWORD PTR fs:0
	push	eax
	sub	esp, 204				; 000000ccH
	push	ebx
	push	esi
	push	edi
	push	ecx
	lea	edi, DWORD PTR [ebp-216]
	mov	ecx, 51					; 00000033H
	mov	eax, -858993460				; ccccccccH
	rep stosd
	pop	ecx
	mov	eax, DWORD PTR ___security_cookie
	xor	eax, ebp
	push	eax
	lea	eax, DWORD PTR __$EHRec$[ebp]
	mov	DWORD PTR fs:0, eax
	mov	DWORD PTR _this$[ebp], ecx
	mov	ecx, OFFSET __B1B75AB9_xmemory
	call	@__CheckForDebuggerJustMyCode@4
	mov	eax, DWORD PTR _this$[ebp]
	mov	ecx, DWORD PTR __Mycont_$[ebp]
	mov	DWORD PTR [eax], ecx
	mov	eax, DWORD PTR _this$[ebp]
	mov	DWORD PTR [eax+4], 0
	mov	eax, DWORD PTR _this$[ebp]
	mov	ecx, DWORD PTR __$EHRec$[ebp]
	mov	DWORD PTR fs:0, ecx
	pop	ecx
	pop	edi
	pop	esi
	pop	ebx
	add	esp, 216				; 000000d8H
	cmp	ebp, esp
	call	__RTC_CheckEsp
	mov	esp, ebp
	pop	ebp
	ret	4
_TEXT	ENDS
;	COMDAT text$x
text$x	SEGMENT
__ehhandler$??0_Container_proxy@std@@QAE@PAU_Container_base12@1@@Z:
	mov	edx, DWORD PTR [esp+8]
	lea	eax, DWORD PTR [edx+12]
	mov	ecx, DWORD PTR [edx-220]
	xor	ecx, eax
	call	@__security_check_cookie@4
	mov	eax, OFFSET __ehfuncinfo$??0_Container_proxy@std@@QAE@PAU_Container_base12@1@@Z
	jmp	___CxxFrameHandler3
text$x	ENDS
??0_Container_proxy@std@@QAE@PAU_Container_base12@1@@Z ENDP ; std::_Container_proxy::_Container_proxy
; Function compile flags: /Odtp /RTCsu /ZI
; File C:\Program Files (x86)\Microsoft Visual Studio\2019\Community\VC\Tools\MSVC\14.24.28314\include\xmemory
;	COMDAT ??$_Convert_size@I@std@@YAII@Z
_TEXT	SEGMENT
__$EHRec$ = -12						; size = 12
__Len$ = 8						; size = 4
??$_Convert_size@I@std@@YAII@Z PROC			; std::_Convert_size<unsigned int>, COMDAT

; 986  : _NODISCARD constexpr size_t _Convert_size<size_t>(const size_t _Len) noexcept {

	push	ebp
	mov	ebp, esp
	push	-1
	push	__ehhandler$??$_Convert_size@I@std@@YAII@Z
	mov	eax, DWORD PTR fs:0
	push	eax
	sub	esp, 192				; 000000c0H
	push	ebx
	push	esi
	push	edi
	lea	edi, DWORD PTR [ebp-204]
	mov	ecx, 48					; 00000030H
	mov	eax, -858993460				; ccccccccH
	rep stosd
	mov	eax, DWORD PTR ___security_cookie
	xor	eax, ebp
	push	eax
	lea	eax, DWORD PTR __$EHRec$[ebp]
	mov	DWORD PTR fs:0, eax
	mov	ecx, OFFSET __B1B75AB9_xmemory
	call	@__CheckForDebuggerJustMyCode@4

; 987  :     // convert size_t to size_t, unchanged
; 988  :     return _Len;

	mov	eax, DWORD PTR __Len$[ebp]

; 989  : }

	mov	ecx, DWORD PTR __$EHRec$[ebp]
	mov	DWORD PTR fs:0, ecx
	pop	ecx
	pop	edi
	pop	esi
	pop	ebx
	add	esp, 204				; 000000ccH
	cmp	ebp, esp
	call	__RTC_CheckEsp
	mov	esp, ebp
	pop	ebp
	ret	0
_TEXT	ENDS
;	COMDAT text$x
text$x	SEGMENT
__ehhandler$??$_Convert_size@I@std@@YAII@Z:
	mov	edx, DWORD PTR [esp+8]
	lea	eax, DWORD PTR [edx+12]
	mov	ecx, DWORD PTR [edx-208]
	xor	ecx, eax
	call	@__security_check_cookie@4
	mov	eax, OFFSET __ehfuncinfo$??$_Convert_size@I@std@@YAII@Z
	jmp	___CxxFrameHandler3
text$x	ENDS
??$_Convert_size@I@std@@YAII@Z ENDP			; std::_Convert_size<unsigned int>
; Function compile flags: /Odtp /RTCsu /ZI
; File C:\Program Files (x86)\Microsoft Visual Studio\2019\Community\VC\Tools\MSVC\14.24.28314\include\xmemory
;	COMDAT ?_Adjust_manually_vector_aligned@std@@YAXAAPAXAAI@Z
_TEXT	SEGMENT
__Back_shift$ = -44					; size = 4
__Min_back_shift$ = -32					; size = 4
__Ptr_container$ = -20					; size = 4
__Ptr_user$ = -8					; size = 4
__Ptr$ = 8						; size = 4
__Bytes$ = 12						; size = 4
?_Adjust_manually_vector_aligned@std@@YAXAAPAXAAI@Z PROC ; std::_Adjust_manually_vector_aligned, COMDAT

; 106  : inline void _Adjust_manually_vector_aligned(void*& _Ptr, size_t& _Bytes) {

	push	ebp
	mov	ebp, esp
	sub	esp, 240				; 000000f0H
	push	ebx
	push	esi
	push	edi
	lea	edi, DWORD PTR [ebp-240]
	mov	ecx, 60					; 0000003cH
	mov	eax, -858993460				; ccccccccH
	rep stosd
	mov	ecx, OFFSET __B1B75AB9_xmemory
	call	@__CheckForDebuggerJustMyCode@4

; 107  :     // adjust parameters from _Allocate_manually_vector_aligned to pass to operator delete
; 108  :     _Bytes += _Non_user_size;

	mov	eax, DWORD PTR __Bytes$[ebp]
	mov	ecx, DWORD PTR [eax]
	add	ecx, 39					; 00000027H
	mov	edx, DWORD PTR __Bytes$[ebp]
	mov	DWORD PTR [edx], ecx

; 109  : 
; 110  :     const uintptr_t* const _Ptr_user = reinterpret_cast<uintptr_t*>(_Ptr);

	mov	eax, DWORD PTR __Ptr$[ebp]
	mov	ecx, DWORD PTR [eax]
	mov	DWORD PTR __Ptr_user$[ebp], ecx

; 111  :     const uintptr_t _Ptr_container   = _Ptr_user[-1];

	mov	eax, 4
	imul	ecx, eax, -1
	mov	edx, DWORD PTR __Ptr_user$[ebp]
	mov	eax, DWORD PTR [edx+ecx]
	mov	DWORD PTR __Ptr_container$[ebp], eax
$LN4@Adjust_man:

; 112  : 
; 113  :     // If the following asserts, it likely means that we are performing
; 114  :     // an aligned delete on memory coming from an unaligned allocation.
; 115  :     _STL_ASSERT(_Ptr_user[-2] == _Big_allocation_sentinel, "invalid argument");

	mov	eax, 4
	imul	ecx, eax, -2
	mov	edx, DWORD PTR __Ptr_user$[ebp]
	cmp	DWORD PTR [edx+ecx], -84215046		; fafafafaH
	jne	SHORT $LN7@Adjust_man
	jmp	SHORT $LN2@Adjust_man
$LN7@Adjust_man:
	mov	esi, esp
	push	OFFSET ??_C@_0BB@FCMFBGOM@invalid?5argument@
	push	OFFSET ??_C@_02DKCKIIND@?$CFs@
	push	0
	mov	eax, DWORD PTR ?__LINE__Var@?0??_Adjust_manually_vector_aligned@std@@YAXAAPAXAAI@Z@4JA
	add	eax, 9
	push	eax
	push	OFFSET ??_C@_0GI@JKOMEBKC@C?3?2Program?5Files?5?$CIx86?$CJ?2Microsof@
	push	2
	call	DWORD PTR __imp___CrtDbgReport
	add	esp, 24					; 00000018H
	cmp	esi, esp
	call	__RTC_CheckEsp
	cmp	eax, 1
	jne	SHORT $LN19@Adjust_man
	int	3
$LN19@Adjust_man:
	mov	esi, esp
	push	0
	mov	eax, DWORD PTR ?__LINE__Var@?0??_Adjust_manually_vector_aligned@std@@YAXAAPAXAAI@Z@4JA
	add	eax, 9
	push	eax
	push	OFFSET ??_C@_1NA@OANNLGA@?$AAC?$AA?3?$AA?2?$AAP?$AAr?$AAo?$AAg?$AAr?$AAa?$AAm?$AA?5?$AAF?$AAi?$AAl?$AAe@
	push	OFFSET ??_C@_1EK@NIFDJFDG@?$AAs?$AAt?$AAd?$AA?3?$AA?3?$AA_?$AAA?$AAd?$AAj?$AAu?$AAs?$AAt?$AA_?$AAm?$AAa@
	push	OFFSET ??_C@_1CG@JNLFBNGN@?$AA?$CC?$AAi?$AAn?$AAv?$AAa?$AAl?$AAi?$AAd?$AA?5?$AAa?$AAr?$AAg?$AAu?$AAm?$AAe@
	call	DWORD PTR __imp___invalid_parameter
	add	esp, 20					; 00000014H
	cmp	esi, esp
	call	__RTC_CheckEsp
	xor	eax, eax
	jne	SHORT $LN7@Adjust_man
$LN2@Adjust_man:
	xor	eax, eax
	jne	SHORT $LN4@Adjust_man

; 116  : 
; 117  :     // Extra paranoia on aligned allocation/deallocation; ensure _Ptr_container is
; 118  :     // in range [_Min_back_shift, _Non_user_size]
; 119  : #ifdef _DEBUG
; 120  :     constexpr uintptr_t _Min_back_shift = 2 * sizeof(void*);

	mov	DWORD PTR __Min_back_shift$[ebp], 8

; 121  : #else // ^^^ _DEBUG ^^^ // vvv !_DEBUG vvv
; 122  :     constexpr uintptr_t _Min_back_shift = sizeof(void*);
; 123  : #endif // _DEBUG
; 124  :     const uintptr_t _Back_shift = reinterpret_cast<uintptr_t>(_Ptr) - _Ptr_container;

	mov	eax, DWORD PTR __Ptr$[ebp]
	mov	ecx, DWORD PTR [eax]
	sub	ecx, DWORD PTR __Ptr_container$[ebp]
	mov	DWORD PTR __Back_shift$[ebp], ecx
$LN10@Adjust_man:

; 125  :     _STL_VERIFY(_Back_shift >= _Min_back_shift && _Back_shift <= _Non_user_size, "invalid argument");

	cmp	DWORD PTR __Back_shift$[ebp], 8
	jb	SHORT $LN13@Adjust_man
	cmp	DWORD PTR __Back_shift$[ebp], 39	; 00000027H
	ja	SHORT $LN13@Adjust_man
	jmp	SHORT $LN8@Adjust_man
$LN13@Adjust_man:
	mov	esi, esp
	push	OFFSET ??_C@_0BB@FCMFBGOM@invalid?5argument@
	push	OFFSET ??_C@_02DKCKIIND@?$CFs@
	push	0
	mov	eax, DWORD PTR ?__LINE__Var@?0??_Adjust_manually_vector_aligned@std@@YAXAAPAXAAI@Z@4JA
	add	eax, 19					; 00000013H
	push	eax
	push	OFFSET ??_C@_0GI@JKOMEBKC@C?3?2Program?5Files?5?$CIx86?$CJ?2Microsof@
	push	2
	call	DWORD PTR __imp___CrtDbgReport
	add	esp, 24					; 00000018H
	cmp	esi, esp
	call	__RTC_CheckEsp
	cmp	eax, 1
	jne	SHORT $LN20@Adjust_man
	int	3
$LN20@Adjust_man:
	mov	esi, esp
	push	0
	mov	eax, DWORD PTR ?__LINE__Var@?0??_Adjust_manually_vector_aligned@std@@YAXAAPAXAAI@Z@4JA
	add	eax, 19					; 00000013H
	push	eax
	push	OFFSET ??_C@_1NA@OANNLGA@?$AAC?$AA?3?$AA?2?$AAP?$AAr?$AAo?$AAg?$AAr?$AAa?$AAm?$AA?5?$AAF?$AAi?$AAl?$AAe@
	push	OFFSET ??_C@_1EK@NIFDJFDG@?$AAs?$AAt?$AAd?$AA?3?$AA?3?$AA_?$AAA?$AAd?$AAj?$AAu?$AAs?$AAt?$AA_?$AAm?$AAa@
	push	OFFSET ??_C@_1CG@JNLFBNGN@?$AA?$CC?$AAi?$AAn?$AAv?$AAa?$AAl?$AAi?$AAd?$AA?5?$AAa?$AAr?$AAg?$AAu?$AAm?$AAe@
	call	DWORD PTR __imp___invalid_parameter
	add	esp, 20					; 00000014H
	cmp	esi, esp
	call	__RTC_CheckEsp
	xor	eax, eax
	jne	SHORT $LN13@Adjust_man
$LN8@Adjust_man:
	xor	eax, eax
	jne	SHORT $LN10@Adjust_man

; 126  :     _Ptr = reinterpret_cast<void*>(_Ptr_container);

	mov	eax, DWORD PTR __Ptr$[ebp]
	mov	ecx, DWORD PTR __Ptr_container$[ebp]
	mov	DWORD PTR [eax], ecx

; 127  : }

	pop	edi
	pop	esi
	pop	ebx
	add	esp, 240				; 000000f0H
	cmp	ebp, esp
	call	__RTC_CheckEsp
	mov	esp, ebp
	pop	ebp
	ret	0
?_Adjust_manually_vector_aligned@std@@YAXAAPAXAAI@Z ENDP ; std::_Adjust_manually_vector_aligned
_TEXT	ENDS
; Function compile flags: /Odtp /RTCsu /ZI
; File C:\Program Files (x86)\Microsoft Visual Studio\2019\Community\VC\Tools\MSVC\14.24.28314\include\xmemory
;	COMDAT ?_Allocate@_Default_allocate_traits@std@@SAPAXI@Z
_TEXT	SEGMENT
__Bytes$ = 8						; size = 4
?_Allocate@_Default_allocate_traits@std@@SAPAXI@Z PROC	; std::_Default_allocate_traits::_Allocate, COMDAT

; 50   :     _DECLSPEC_ALLOCATOR static void* _Allocate(const size_t _Bytes) {

	push	ebp
	mov	ebp, esp
	sub	esp, 192				; 000000c0H
	push	ebx
	push	esi
	push	edi
	lea	edi, DWORD PTR [ebp-192]
	mov	ecx, 48					; 00000030H
	mov	eax, -858993460				; ccccccccH
	rep stosd
	mov	ecx, OFFSET __B1B75AB9_xmemory
	call	@__CheckForDebuggerJustMyCode@4

; 51   :         return ::operator new(_Bytes);

	mov	eax, DWORD PTR __Bytes$[ebp]
	push	eax
	call	??2@YAPAXI@Z				; operator new
	add	esp, 4

; 52   :     }

	pop	edi
	pop	esi
	pop	ebx
	add	esp, 192				; 000000c0H
	cmp	ebp, esp
	call	__RTC_CheckEsp
	mov	esp, ebp
	pop	ebp
	ret	0
?_Allocate@_Default_allocate_traits@std@@SAPAXI@Z ENDP	; std::_Default_allocate_traits::_Allocate
_TEXT	ENDS
; Function compile flags: /Odtp /RTCsu /ZI
; File C:\Program Files (x86)\Microsoft Visual Studio\2019\Community\VC\Tools\MSVC\14.24.28314\include\limits
;	COMDAT ?max@?$numeric_limits@H@std@@SAHXZ
_TEXT	SEGMENT
__$EHRec$ = -12						; size = 12
?max@?$numeric_limits@H@std@@SAHXZ PROC			; std::numeric_limits<int>::max, COMDAT

; 557  :     _NODISCARD static constexpr int(max)() noexcept {

	push	ebp
	mov	ebp, esp
	push	-1
	push	__ehhandler$?max@?$numeric_limits@H@std@@SAHXZ
	mov	eax, DWORD PTR fs:0
	push	eax
	sub	esp, 192				; 000000c0H
	push	ebx
	push	esi
	push	edi
	lea	edi, DWORD PTR [ebp-204]
	mov	ecx, 48					; 00000030H
	mov	eax, -858993460				; ccccccccH
	rep stosd
	mov	eax, DWORD PTR ___security_cookie
	xor	eax, ebp
	push	eax
	lea	eax, DWORD PTR __$EHRec$[ebp]
	mov	DWORD PTR fs:0, eax
	mov	ecx, OFFSET __CDF80030_limits
	call	@__CheckForDebuggerJustMyCode@4

; 558  :         return INT_MAX;

	mov	eax, 2147483647				; 7fffffffH

; 559  :     }

	mov	ecx, DWORD PTR __$EHRec$[ebp]
	mov	DWORD PTR fs:0, ecx
	pop	ecx
	pop	edi
	pop	esi
	pop	ebx
	add	esp, 204				; 000000ccH
	cmp	ebp, esp
	call	__RTC_CheckEsp
	mov	esp, ebp
	pop	ebp
	ret	0
_TEXT	ENDS
;	COMDAT text$x
text$x	SEGMENT
__ehhandler$?max@?$numeric_limits@H@std@@SAHXZ:
	mov	edx, DWORD PTR [esp+8]
	lea	eax, DWORD PTR [edx+12]
	mov	ecx, DWORD PTR [edx-208]
	xor	ecx, eax
	call	@__security_check_cookie@4
	mov	eax, OFFSET __ehfuncinfo$?max@?$numeric_limits@H@std@@SAHXZ
	jmp	___CxxFrameHandler3
text$x	ENDS
?max@?$numeric_limits@H@std@@SAHXZ ENDP			; std::numeric_limits<int>::max
; Function compile flags: /Odtp /RTCsu /ZI
; File C:\Program Files (x86)\Microsoft Visual Studio\2019\Community\VC\Tools\MSVC\14.24.28314\include\exception
;	COMDAT ?_Throw_bad_array_new_length@std@@YAXXZ
_TEXT	SEGMENT
$T1 = -208						; size = 12
?_Throw_bad_array_new_length@std@@YAXXZ PROC		; std::_Throw_bad_array_new_length, COMDAT

; 322  : [[noreturn]] inline void _Throw_bad_array_new_length() {

	push	ebp
	mov	ebp, esp
	sub	esp, 212				; 000000d4H
	push	ebx
	push	esi
	push	edi
	lea	edi, DWORD PTR [ebp-212]
	mov	ecx, 53					; 00000035H
	mov	eax, -858993460				; ccccccccH
	rep stosd
	mov	ecx, OFFSET __CB7CF65A_exception
	call	@__CheckForDebuggerJustMyCode@4

; 323  :     _THROW(bad_array_new_length{});

	lea	ecx, DWORD PTR $T1[ebp]
	call	??0bad_array_new_length@std@@QAE@XZ	; std::bad_array_new_length::bad_array_new_length
	push	OFFSET __TI3?AVbad_array_new_length@std@@
	lea	eax, DWORD PTR $T1[ebp]
	push	eax
	call	__CxxThrowException@8
$LN2@Throw_bad_:

; 324  : }

	pop	edi
	pop	esi
	pop	ebx
	add	esp, 212				; 000000d4H
	cmp	ebp, esp
	call	__RTC_CheckEsp
	mov	esp, ebp
	pop	ebp
	ret	0
?_Throw_bad_array_new_length@std@@YAXXZ ENDP		; std::_Throw_bad_array_new_length
_TEXT	ENDS
; Function compile flags: /Odtp /RTCsu /ZI
;	COMDAT ??_Gbad_array_new_length@std@@UAEPAXI@Z
_TEXT	SEGMENT
_this$ = -8						; size = 4
___flags$ = 8						; size = 4
??_Gbad_array_new_length@std@@UAEPAXI@Z PROC		; std::bad_array_new_length::`scalar deleting destructor', COMDAT
; _this$ = ecx
	push	ebp
	mov	ebp, esp
	sub	esp, 204				; 000000ccH
	push	ebx
	push	esi
	push	edi
	push	ecx
	lea	edi, DWORD PTR [ebp-204]
	mov	ecx, 51					; 00000033H
	mov	eax, -858993460				; ccccccccH
	rep stosd
	pop	ecx
	mov	DWORD PTR _this$[ebp], ecx
	mov	ecx, DWORD PTR _this$[ebp]
	call	??1bad_array_new_length@std@@UAE@XZ
	mov	eax, DWORD PTR ___flags$[ebp]
	and	eax, 1
	je	SHORT $LN2@scalar
	push	12					; 0000000cH
	mov	eax, DWORD PTR _this$[ebp]
	push	eax
	call	??3@YAXPAXI@Z				; operator delete
	add	esp, 8
$LN2@scalar:
	mov	eax, DWORD PTR _this$[ebp]
	pop	edi
	pop	esi
	pop	ebx
	add	esp, 204				; 000000ccH
	cmp	ebp, esp
	call	__RTC_CheckEsp
	mov	esp, ebp
	pop	ebp
	ret	4
??_Gbad_array_new_length@std@@UAEPAXI@Z ENDP		; std::bad_array_new_length::`scalar deleting destructor'
_TEXT	ENDS
; Function compile flags: /Odtp /RTCsu /ZI
;	COMDAT ??0bad_array_new_length@std@@QAE@ABV01@@Z
_TEXT	SEGMENT
_this$ = -8						; size = 4
___that$ = 8						; size = 4
??0bad_array_new_length@std@@QAE@ABV01@@Z PROC		; std::bad_array_new_length::bad_array_new_length, COMDAT
; _this$ = ecx
	push	ebp
	mov	ebp, esp
	sub	esp, 204				; 000000ccH
	push	ebx
	push	esi
	push	edi
	push	ecx
	lea	edi, DWORD PTR [ebp-204]
	mov	ecx, 51					; 00000033H
	mov	eax, -858993460				; ccccccccH
	rep stosd
	pop	ecx
	mov	DWORD PTR _this$[ebp], ecx
	mov	eax, DWORD PTR ___that$[ebp]
	push	eax
	mov	ecx, DWORD PTR _this$[ebp]
	call	??0bad_alloc@std@@QAE@ABV01@@Z
	mov	eax, DWORD PTR _this$[ebp]
	mov	DWORD PTR [eax], OFFSET ??_7bad_array_new_length@std@@6B@
	mov	eax, DWORD PTR _this$[ebp]
	pop	edi
	pop	esi
	pop	ebx
	add	esp, 204				; 000000ccH
	cmp	ebp, esp
	call	__RTC_CheckEsp
	mov	esp, ebp
	pop	ebp
	ret	4
??0bad_array_new_length@std@@QAE@ABV01@@Z ENDP		; std::bad_array_new_length::bad_array_new_length
_TEXT	ENDS
; Function compile flags: /Odtp /RTCsu /ZI
;	COMDAT ??1bad_array_new_length@std@@UAE@XZ
_TEXT	SEGMENT
_this$ = -8						; size = 4
??1bad_array_new_length@std@@UAE@XZ PROC		; std::bad_array_new_length::~bad_array_new_length, COMDAT
; _this$ = ecx
	push	ebp
	mov	ebp, esp
	sub	esp, 204				; 000000ccH
	push	ebx
	push	esi
	push	edi
	push	ecx
	lea	edi, DWORD PTR [ebp-204]
	mov	ecx, 51					; 00000033H
	mov	eax, -858993460				; ccccccccH
	rep stosd
	pop	ecx
	mov	DWORD PTR _this$[ebp], ecx
	mov	ecx, DWORD PTR _this$[ebp]
	call	??1bad_alloc@std@@UAE@XZ
	pop	edi
	pop	esi
	pop	ebx
	add	esp, 204				; 000000ccH
	cmp	ebp, esp
	call	__RTC_CheckEsp
	mov	esp, ebp
	pop	ebp
	ret	0
??1bad_array_new_length@std@@UAE@XZ ENDP		; std::bad_array_new_length::~bad_array_new_length
_TEXT	ENDS
; Function compile flags: /Odtp /RTCsu /ZI
; File C:\Program Files (x86)\Microsoft Visual Studio\2019\Community\VC\Tools\MSVC\14.24.28314\include\vcruntime_exception.h
;	COMDAT ??0bad_array_new_length@std@@QAE@XZ
_TEXT	SEGMENT
_this$ = -20						; size = 4
__$EHRec$ = -12						; size = 12
??0bad_array_new_length@std@@QAE@XZ PROC		; std::bad_array_new_length::bad_array_new_length, COMDAT
; _this$ = ecx

; 138  :     {

	push	ebp
	mov	ebp, esp
	push	-1
	push	__ehhandler$??0bad_array_new_length@std@@QAE@XZ
	mov	eax, DWORD PTR fs:0
	push	eax
	sub	esp, 204				; 000000ccH
	push	ebx
	push	esi
	push	edi
	push	ecx
	lea	edi, DWORD PTR [ebp-216]
	mov	ecx, 51					; 00000033H
	mov	eax, -858993460				; ccccccccH
	rep stosd
	pop	ecx
	mov	eax, DWORD PTR ___security_cookie
	xor	eax, ebp
	push	eax
	lea	eax, DWORD PTR __$EHRec$[ebp]
	mov	DWORD PTR fs:0, eax
	mov	DWORD PTR _this$[ebp], ecx
	mov	ecx, OFFSET __CFCEF810_vcruntime_exception@h
	call	@__CheckForDebuggerJustMyCode@4

; 137  :         : bad_alloc("bad array new length")

	push	OFFSET ??_C@_0BF@KINCDENJ@bad?5array?5new?5length@
	mov	ecx, DWORD PTR _this$[ebp]
	call	??0bad_alloc@std@@AAE@QBD@Z		; std::bad_alloc::bad_alloc

; 138  :     {

	mov	eax, DWORD PTR _this$[ebp]
	mov	DWORD PTR [eax], OFFSET ??_7bad_array_new_length@std@@6B@

; 139  :     }

	mov	eax, DWORD PTR _this$[ebp]
	mov	ecx, DWORD PTR __$EHRec$[ebp]
	mov	DWORD PTR fs:0, ecx
	pop	ecx
	pop	edi
	pop	esi
	pop	ebx
	add	esp, 216				; 000000d8H
	cmp	ebp, esp
	call	__RTC_CheckEsp
	mov	esp, ebp
	pop	ebp
	ret	0
_TEXT	ENDS
;	COMDAT text$x
text$x	SEGMENT
__ehhandler$??0bad_array_new_length@std@@QAE@XZ:
	mov	edx, DWORD PTR [esp+8]
	lea	eax, DWORD PTR [edx+12]
	mov	ecx, DWORD PTR [edx-220]
	xor	ecx, eax
	call	@__security_check_cookie@4
	mov	eax, OFFSET __ehfuncinfo$??0bad_array_new_length@std@@QAE@XZ
	jmp	___CxxFrameHandler3
text$x	ENDS
??0bad_array_new_length@std@@QAE@XZ ENDP		; std::bad_array_new_length::bad_array_new_length
; Function compile flags: /Odtp /RTCsu /ZI
;	COMDAT ??_Gbad_alloc@std@@UAEPAXI@Z
_TEXT	SEGMENT
_this$ = -8						; size = 4
___flags$ = 8						; size = 4
??_Gbad_alloc@std@@UAEPAXI@Z PROC			; std::bad_alloc::`scalar deleting destructor', COMDAT
; _this$ = ecx
	push	ebp
	mov	ebp, esp
	sub	esp, 204				; 000000ccH
	push	ebx
	push	esi
	push	edi
	push	ecx
	lea	edi, DWORD PTR [ebp-204]
	mov	ecx, 51					; 00000033H
	mov	eax, -858993460				; ccccccccH
	rep stosd
	pop	ecx
	mov	DWORD PTR _this$[ebp], ecx
	mov	ecx, DWORD PTR _this$[ebp]
	call	??1bad_alloc@std@@UAE@XZ
	mov	eax, DWORD PTR ___flags$[ebp]
	and	eax, 1
	je	SHORT $LN2@scalar
	push	12					; 0000000cH
	mov	eax, DWORD PTR _this$[ebp]
	push	eax
	call	??3@YAXPAXI@Z				; operator delete
	add	esp, 8
$LN2@scalar:
	mov	eax, DWORD PTR _this$[ebp]
	pop	edi
	pop	esi
	pop	ebx
	add	esp, 204				; 000000ccH
	cmp	ebp, esp
	call	__RTC_CheckEsp
	mov	esp, ebp
	pop	ebp
	ret	4
??_Gbad_alloc@std@@UAEPAXI@Z ENDP			; std::bad_alloc::`scalar deleting destructor'
_TEXT	ENDS
; Function compile flags: /Odtp /RTCsu /ZI
;	COMDAT ??0bad_alloc@std@@QAE@ABV01@@Z
_TEXT	SEGMENT
_this$ = -8						; size = 4
___that$ = 8						; size = 4
??0bad_alloc@std@@QAE@ABV01@@Z PROC			; std::bad_alloc::bad_alloc, COMDAT
; _this$ = ecx
	push	ebp
	mov	ebp, esp
	sub	esp, 204				; 000000ccH
	push	ebx
	push	esi
	push	edi
	push	ecx
	lea	edi, DWORD PTR [ebp-204]
	mov	ecx, 51					; 00000033H
	mov	eax, -858993460				; ccccccccH
	rep stosd
	pop	ecx
	mov	DWORD PTR _this$[ebp], ecx
	mov	eax, DWORD PTR ___that$[ebp]
	push	eax
	mov	ecx, DWORD PTR _this$[ebp]
	call	??0exception@std@@QAE@ABV01@@Z		; std::exception::exception
	mov	eax, DWORD PTR _this$[ebp]
	mov	DWORD PTR [eax], OFFSET ??_7bad_alloc@std@@6B@
	mov	eax, DWORD PTR _this$[ebp]
	pop	edi
	pop	esi
	pop	ebx
	add	esp, 204				; 000000ccH
	cmp	ebp, esp
	call	__RTC_CheckEsp
	mov	esp, ebp
	pop	ebp
	ret	4
??0bad_alloc@std@@QAE@ABV01@@Z ENDP			; std::bad_alloc::bad_alloc
_TEXT	ENDS
; Function compile flags: /Odtp /RTCsu /ZI
;	COMDAT ??1bad_alloc@std@@UAE@XZ
_TEXT	SEGMENT
_this$ = -8						; size = 4
??1bad_alloc@std@@UAE@XZ PROC				; std::bad_alloc::~bad_alloc, COMDAT
; _this$ = ecx
	push	ebp
	mov	ebp, esp
	sub	esp, 204				; 000000ccH
	push	ebx
	push	esi
	push	edi
	push	ecx
	lea	edi, DWORD PTR [ebp-204]
	mov	ecx, 51					; 00000033H
	mov	eax, -858993460				; ccccccccH
	rep stosd
	pop	ecx
	mov	DWORD PTR _this$[ebp], ecx
	mov	ecx, DWORD PTR _this$[ebp]
	call	??1exception@std@@UAE@XZ		; std::exception::~exception
	pop	edi
	pop	esi
	pop	ebx
	add	esp, 204				; 000000ccH
	cmp	ebp, esp
	call	__RTC_CheckEsp
	mov	esp, ebp
	pop	ebp
	ret	0
??1bad_alloc@std@@UAE@XZ ENDP				; std::bad_alloc::~bad_alloc
_TEXT	ENDS
; Function compile flags: /Odtp /RTCsu /ZI
; File C:\Program Files (x86)\Microsoft Visual Studio\2019\Community\VC\Tools\MSVC\14.24.28314\include\vcruntime_exception.h
;	COMDAT ??0bad_alloc@std@@AAE@QBD@Z
_TEXT	SEGMENT
_this$ = -20						; size = 4
__$EHRec$ = -12						; size = 12
__Message$ = 8						; size = 4
??0bad_alloc@std@@AAE@QBD@Z PROC			; std::bad_alloc::bad_alloc, COMDAT
; _this$ = ecx

; 127  :     {

	push	ebp
	mov	ebp, esp
	push	-1
	push	__ehhandler$??0bad_alloc@std@@AAE@QBD@Z
	mov	eax, DWORD PTR fs:0
	push	eax
	sub	esp, 204				; 000000ccH
	push	ebx
	push	esi
	push	edi
	push	ecx
	lea	edi, DWORD PTR [ebp-216]
	mov	ecx, 51					; 00000033H
	mov	eax, -858993460				; ccccccccH
	rep stosd
	pop	ecx
	mov	eax, DWORD PTR ___security_cookie
	xor	eax, ebp
	push	eax
	lea	eax, DWORD PTR __$EHRec$[ebp]
	mov	DWORD PTR fs:0, eax
	mov	DWORD PTR _this$[ebp], ecx
	mov	ecx, OFFSET __CFCEF810_vcruntime_exception@h
	call	@__CheckForDebuggerJustMyCode@4

; 126  :         : exception(_Message, 1)

	push	1
	mov	eax, DWORD PTR __Message$[ebp]
	push	eax
	mov	ecx, DWORD PTR _this$[ebp]
	call	??0exception@std@@QAE@QBDH@Z		; std::exception::exception

; 127  :     {

	mov	eax, DWORD PTR _this$[ebp]
	mov	DWORD PTR [eax], OFFSET ??_7bad_alloc@std@@6B@

; 128  :     }

	mov	eax, DWORD PTR _this$[ebp]
	mov	ecx, DWORD PTR __$EHRec$[ebp]
	mov	DWORD PTR fs:0, ecx
	pop	ecx
	pop	edi
	pop	esi
	pop	ebx
	add	esp, 216				; 000000d8H
	cmp	ebp, esp
	call	__RTC_CheckEsp
	mov	esp, ebp
	pop	ebp
	ret	4
_TEXT	ENDS
;	COMDAT text$x
text$x	SEGMENT
__ehhandler$??0bad_alloc@std@@AAE@QBD@Z:
	mov	edx, DWORD PTR [esp+8]
	lea	eax, DWORD PTR [edx+12]
	mov	ecx, DWORD PTR [edx-220]
	xor	ecx, eax
	call	@__security_check_cookie@4
	mov	eax, OFFSET __ehfuncinfo$??0bad_alloc@std@@AAE@QBD@Z
	jmp	___CxxFrameHandler3
text$x	ENDS
??0bad_alloc@std@@AAE@QBD@Z ENDP			; std::bad_alloc::bad_alloc
; Function compile flags: /Odtp /RTCsu /ZI
;	COMDAT ??_Gexception@std@@UAEPAXI@Z
_TEXT	SEGMENT
_this$ = -8						; size = 4
___flags$ = 8						; size = 4
??_Gexception@std@@UAEPAXI@Z PROC			; std::exception::`scalar deleting destructor', COMDAT
; _this$ = ecx
	push	ebp
	mov	ebp, esp
	sub	esp, 204				; 000000ccH
	push	ebx
	push	esi
	push	edi
	push	ecx
	lea	edi, DWORD PTR [ebp-204]
	mov	ecx, 51					; 00000033H
	mov	eax, -858993460				; ccccccccH
	rep stosd
	pop	ecx
	mov	DWORD PTR _this$[ebp], ecx
	mov	ecx, DWORD PTR _this$[ebp]
	call	??1exception@std@@UAE@XZ		; std::exception::~exception
	mov	eax, DWORD PTR ___flags$[ebp]
	and	eax, 1
	je	SHORT $LN2@scalar
	push	12					; 0000000cH
	mov	eax, DWORD PTR _this$[ebp]
	push	eax
	call	??3@YAXPAXI@Z				; operator delete
	add	esp, 8
$LN2@scalar:
	mov	eax, DWORD PTR _this$[ebp]
	pop	edi
	pop	esi
	pop	ebx
	add	esp, 204				; 000000ccH
	cmp	ebp, esp
	call	__RTC_CheckEsp
	mov	esp, ebp
	pop	ebp
	ret	4
??_Gexception@std@@UAEPAXI@Z ENDP			; std::exception::`scalar deleting destructor'
_TEXT	ENDS
; Function compile flags: /Odtp /RTCsu /ZI
; File C:\Program Files (x86)\Microsoft Visual Studio\2019\Community\VC\Tools\MSVC\14.24.28314\include\vcruntime_exception.h
;	COMDAT ?what@exception@std@@UBEPBDXZ
_TEXT	SEGMENT
tv69 = -208						; size = 4
_this$ = -8						; size = 4
?what@exception@std@@UBEPBDXZ PROC			; std::exception::what, COMDAT
; _this$ = ecx

; 91   :     {

	push	ebp
	mov	ebp, esp
	sub	esp, 208				; 000000d0H
	push	ebx
	push	esi
	push	edi
	push	ecx
	lea	edi, DWORD PTR [ebp-208]
	mov	ecx, 52					; 00000034H
	mov	eax, -858993460				; ccccccccH
	rep stosd
	pop	ecx
	mov	DWORD PTR _this$[ebp], ecx
	mov	ecx, OFFSET __CFCEF810_vcruntime_exception@h
	call	@__CheckForDebuggerJustMyCode@4

; 92   :         return _Data._What ? _Data._What : "Unknown exception";

	mov	eax, DWORD PTR _this$[ebp]
	cmp	DWORD PTR [eax+4], 0
	je	SHORT $LN3@what
	mov	ecx, DWORD PTR _this$[ebp]
	mov	edx, DWORD PTR [ecx+4]
	mov	DWORD PTR tv69[ebp], edx
	jmp	SHORT $LN4@what
$LN3@what:
	mov	DWORD PTR tv69[ebp], OFFSET ??_C@_0BC@EOODALEL@Unknown?5exception@
$LN4@what:
	mov	eax, DWORD PTR tv69[ebp]

; 93   :     }

	pop	edi
	pop	esi
	pop	ebx
	add	esp, 208				; 000000d0H
	cmp	ebp, esp
	call	__RTC_CheckEsp
	mov	esp, ebp
	pop	ebp
	ret	0
?what@exception@std@@UBEPBDXZ ENDP			; std::exception::what
_TEXT	ENDS
; Function compile flags: /Odtp /RTCsu /ZI
; File C:\Program Files (x86)\Microsoft Visual Studio\2019\Community\VC\Tools\MSVC\14.24.28314\include\vcruntime_exception.h
;	COMDAT ??1exception@std@@UAE@XZ
_TEXT	SEGMENT
_this$ = -20						; size = 4
__$EHRec$ = -12						; size = 12
??1exception@std@@UAE@XZ PROC				; std::exception::~exception, COMDAT
; _this$ = ecx

; 86   :     {

	push	ebp
	mov	ebp, esp
	push	-1
	push	__ehhandler$??1exception@std@@UAE@XZ
	mov	eax, DWORD PTR fs:0
	push	eax
	sub	esp, 204				; 000000ccH
	push	ebx
	push	esi
	push	edi
	push	ecx
	lea	edi, DWORD PTR [ebp-216]
	mov	ecx, 51					; 00000033H
	mov	eax, -858993460				; ccccccccH
	rep stosd
	pop	ecx
	mov	eax, DWORD PTR ___security_cookie
	xor	eax, ebp
	push	eax
	lea	eax, DWORD PTR __$EHRec$[ebp]
	mov	DWORD PTR fs:0, eax
	mov	DWORD PTR _this$[ebp], ecx
	mov	ecx, OFFSET __CFCEF810_vcruntime_exception@h
	call	@__CheckForDebuggerJustMyCode@4
	mov	eax, DWORD PTR _this$[ebp]
	mov	DWORD PTR [eax], OFFSET ??_7exception@std@@6B@

; 87   :         __std_exception_destroy(&_Data);

	mov	eax, DWORD PTR _this$[ebp]
	add	eax, 4
	push	eax
	call	___std_exception_destroy
	add	esp, 4

; 88   :     }

	mov	ecx, DWORD PTR __$EHRec$[ebp]
	mov	DWORD PTR fs:0, ecx
	pop	ecx
	pop	edi
	pop	esi
	pop	ebx
	add	esp, 216				; 000000d8H
	cmp	ebp, esp
	call	__RTC_CheckEsp
	mov	esp, ebp
	pop	ebp
	ret	0
_TEXT	ENDS
;	COMDAT text$x
text$x	SEGMENT
__ehhandler$??1exception@std@@UAE@XZ:
	mov	edx, DWORD PTR [esp+8]
	lea	eax, DWORD PTR [edx+12]
	mov	ecx, DWORD PTR [edx-220]
	xor	ecx, eax
	call	@__security_check_cookie@4
	mov	eax, OFFSET __ehfuncinfo$??1exception@std@@UAE@XZ
	jmp	___CxxFrameHandler3
text$x	ENDS
??1exception@std@@UAE@XZ ENDP				; std::exception::~exception
; Function compile flags: /Odtp /RTCsu /ZI
; File C:\Program Files (x86)\Microsoft Visual Studio\2019\Community\VC\Tools\MSVC\14.24.28314\include\vcruntime_exception.h
;	COMDAT ??0exception@std@@QAE@ABV01@@Z
_TEXT	SEGMENT
_this$ = -20						; size = 4
__$EHRec$ = -12						; size = 12
__Other$ = 8						; size = 4
??0exception@std@@QAE@ABV01@@Z PROC			; std::exception::exception, COMDAT
; _this$ = ecx

; 69   :     {

	push	ebp
	mov	ebp, esp
	push	-1
	push	__ehhandler$??0exception@std@@QAE@ABV01@@Z
	mov	eax, DWORD PTR fs:0
	push	eax
	sub	esp, 204				; 000000ccH
	push	ebx
	push	esi
	push	edi
	push	ecx
	lea	edi, DWORD PTR [ebp-216]
	mov	ecx, 51					; 00000033H
	mov	eax, -858993460				; ccccccccH
	rep stosd
	pop	ecx
	mov	eax, DWORD PTR ___security_cookie
	xor	eax, ebp
	push	eax
	lea	eax, DWORD PTR __$EHRec$[ebp]
	mov	DWORD PTR fs:0, eax
	mov	DWORD PTR _this$[ebp], ecx
	mov	ecx, OFFSET __CFCEF810_vcruntime_exception@h
	call	@__CheckForDebuggerJustMyCode@4
	mov	eax, DWORD PTR _this$[ebp]
	mov	DWORD PTR [eax], OFFSET ??_7exception@std@@6B@

; 68   :         : _Data()

	xor	eax, eax
	mov	ecx, DWORD PTR _this$[ebp]
	add	ecx, 4
	mov	DWORD PTR [ecx], eax
	mov	DWORD PTR [ecx+4], eax

; 70   :         __std_exception_copy(&_Other._Data, &_Data);

	mov	eax, DWORD PTR _this$[ebp]
	add	eax, 4
	push	eax
	mov	ecx, DWORD PTR __Other$[ebp]
	add	ecx, 4
	push	ecx
	call	___std_exception_copy
	add	esp, 8

; 71   :     }

	mov	eax, DWORD PTR _this$[ebp]
	mov	ecx, DWORD PTR __$EHRec$[ebp]
	mov	DWORD PTR fs:0, ecx
	pop	ecx
	pop	edi
	pop	esi
	pop	ebx
	add	esp, 216				; 000000d8H
	cmp	ebp, esp
	call	__RTC_CheckEsp
	mov	esp, ebp
	pop	ebp
	ret	4
_TEXT	ENDS
;	COMDAT text$x
text$x	SEGMENT
__ehhandler$??0exception@std@@QAE@ABV01@@Z:
	mov	edx, DWORD PTR [esp+8]
	lea	eax, DWORD PTR [edx+12]
	mov	ecx, DWORD PTR [edx-220]
	xor	ecx, eax
	call	@__security_check_cookie@4
	mov	eax, OFFSET __ehfuncinfo$??0exception@std@@QAE@ABV01@@Z
	jmp	___CxxFrameHandler3
text$x	ENDS
??0exception@std@@QAE@ABV01@@Z ENDP			; std::exception::exception
; Function compile flags: /Odtp /RTCsu /ZI
; File C:\Program Files (x86)\Microsoft Visual Studio\2019\Community\VC\Tools\MSVC\14.24.28314\include\vcruntime_exception.h
;	COMDAT ??0exception@std@@QAE@QBDH@Z
_TEXT	SEGMENT
_this$ = -20						; size = 4
__$EHRec$ = -12						; size = 12
__Message$ = 8						; size = 4
___formal$ = 12						; size = 4
??0exception@std@@QAE@QBDH@Z PROC			; std::exception::exception, COMDAT
; _this$ = ecx

; 63   :     {

	push	ebp
	mov	ebp, esp
	push	-1
	push	__ehhandler$??0exception@std@@QAE@QBDH@Z
	mov	eax, DWORD PTR fs:0
	push	eax
	sub	esp, 204				; 000000ccH
	push	ebx
	push	esi
	push	edi
	push	ecx
	lea	edi, DWORD PTR [ebp-216]
	mov	ecx, 51					; 00000033H
	mov	eax, -858993460				; ccccccccH
	rep stosd
	pop	ecx
	mov	eax, DWORD PTR ___security_cookie
	xor	eax, ebp
	push	eax
	lea	eax, DWORD PTR __$EHRec$[ebp]
	mov	DWORD PTR fs:0, eax
	mov	DWORD PTR _this$[ebp], ecx
	mov	ecx, OFFSET __CFCEF810_vcruntime_exception@h
	call	@__CheckForDebuggerJustMyCode@4
	mov	eax, DWORD PTR _this$[ebp]
	mov	DWORD PTR [eax], OFFSET ??_7exception@std@@6B@

; 62   :         : _Data()

	xor	eax, eax
	mov	ecx, DWORD PTR _this$[ebp]
	add	ecx, 4
	mov	DWORD PTR [ecx], eax
	mov	DWORD PTR [ecx+4], eax

; 64   :         _Data._What = _Message;

	mov	eax, DWORD PTR _this$[ebp]
	mov	ecx, DWORD PTR __Message$[ebp]
	mov	DWORD PTR [eax+4], ecx

; 65   :     }

	mov	eax, DWORD PTR _this$[ebp]
	mov	ecx, DWORD PTR __$EHRec$[ebp]
	mov	DWORD PTR fs:0, ecx
	pop	ecx
	pop	edi
	pop	esi
	pop	ebx
	add	esp, 216				; 000000d8H
	cmp	ebp, esp
	call	__RTC_CheckEsp
	mov	esp, ebp
	pop	ebp
	ret	8
_TEXT	ENDS
;	COMDAT text$x
text$x	SEGMENT
__ehhandler$??0exception@std@@QAE@QBDH@Z:
	mov	edx, DWORD PTR [esp+8]
	lea	eax, DWORD PTR [edx+12]
	mov	ecx, DWORD PTR [edx-220]
	xor	ecx, eax
	call	@__security_check_cookie@4
	mov	eax, OFFSET __ehfuncinfo$??0exception@std@@QAE@QBDH@Z
	jmp	___CxxFrameHandler3
text$x	ENDS
??0exception@std@@QAE@QBDH@Z ENDP			; std::exception::exception
; Function compile flags: /Odtp /RTCsu /ZI
; File C:\Program Files (x86)\Windows Kits\10\Include\10.0.18362.0\ucrt\stdio.h
;	COMDAT _printf
_TEXT	SEGMENT
__ArgList$ = -20					; size = 4
__Result$ = -8						; size = 4
__Format$ = 8						; size = 4
_printf	PROC						; COMDAT

; 954  :     {

	push	ebp
	mov	ebp, esp
	sub	esp, 228				; 000000e4H
	push	ebx
	push	esi
	push	edi
	lea	edi, DWORD PTR [ebp-228]
	mov	ecx, 57					; 00000039H
	mov	eax, -858993460				; ccccccccH
	rep stosd
	mov	ecx, OFFSET __AD6A91B7_stdio@h
	call	@__CheckForDebuggerJustMyCode@4

; 955  :         int _Result;
; 956  :         va_list _ArgList;
; 957  :         __crt_va_start(_ArgList, _Format);

	lea	eax, DWORD PTR __Format$[ebp+4]
	mov	DWORD PTR __ArgList$[ebp], eax

; 958  :         _Result = _vfprintf_l(stdout, _Format, NULL, _ArgList);

	mov	eax, DWORD PTR __ArgList$[ebp]
	push	eax
	push	0
	mov	ecx, DWORD PTR __Format$[ebp]
	push	ecx
	mov	esi, esp
	push	1
	call	DWORD PTR __imp____acrt_iob_func
	add	esp, 4
	cmp	esi, esp
	call	__RTC_CheckEsp
	push	eax
	call	__vfprintf_l
	add	esp, 16					; 00000010H
	mov	DWORD PTR __Result$[ebp], eax

; 959  :         __crt_va_end(_ArgList);

	mov	DWORD PTR __ArgList$[ebp], 0

; 960  :         return _Result;

	mov	eax, DWORD PTR __Result$[ebp]

; 961  :     }

	pop	edi
	pop	esi
	pop	ebx
	add	esp, 228				; 000000e4H
	cmp	ebp, esp
	call	__RTC_CheckEsp
	mov	esp, ebp
	pop	ebp
	ret	0
_printf	ENDP
_TEXT	ENDS
; Function compile flags: /Odtp /RTCsu /ZI
; File C:\Program Files (x86)\Windows Kits\10\Include\10.0.18362.0\ucrt\stdio.h
;	COMDAT __vfprintf_l
_TEXT	SEGMENT
__Stream$ = 8						; size = 4
__Format$ = 12						; size = 4
__Locale$ = 16						; size = 4
__ArgList$ = 20						; size = 4
__vfprintf_l PROC					; COMDAT

; 642  :     {

	push	ebp
	mov	ebp, esp
	sub	esp, 192				; 000000c0H
	push	ebx
	push	esi
	push	edi
	lea	edi, DWORD PTR [ebp-192]
	mov	ecx, 48					; 00000030H
	mov	eax, -858993460				; ccccccccH
	rep stosd
	mov	ecx, OFFSET __AD6A91B7_stdio@h
	call	@__CheckForDebuggerJustMyCode@4

; 643  :         return __stdio_common_vfprintf(_CRT_INTERNAL_LOCAL_PRINTF_OPTIONS, _Stream, _Format, _Locale, _ArgList);

	mov	esi, esp
	mov	eax, DWORD PTR __ArgList$[ebp]
	push	eax
	mov	ecx, DWORD PTR __Locale$[ebp]
	push	ecx
	mov	edx, DWORD PTR __Format$[ebp]
	push	edx
	mov	eax, DWORD PTR __Stream$[ebp]
	push	eax
	call	___local_stdio_printf_options
	mov	ecx, DWORD PTR [eax+4]
	push	ecx
	mov	edx, DWORD PTR [eax]
	push	edx
	call	DWORD PTR __imp____stdio_common_vfprintf
	add	esp, 24					; 00000018H
	cmp	esi, esp
	call	__RTC_CheckEsp

; 644  :     }

	pop	edi
	pop	esi
	pop	ebx
	add	esp, 192				; 000000c0H
	cmp	ebp, esp
	call	__RTC_CheckEsp
	mov	esp, ebp
	pop	ebp
	ret	0
__vfprintf_l ENDP
_TEXT	ENDS
; Function compile flags: /Odtp /RTCsu /ZI
; File C:\Program Files (x86)\Windows Kits\10\Include\10.0.18362.0\ucrt\corecrt_stdio_config.h
;	COMDAT ___local_stdio_printf_options
_TEXT	SEGMENT
___local_stdio_printf_options PROC			; COMDAT

; 86   :     {

	push	ebp
	mov	ebp, esp
	sub	esp, 192				; 000000c0H
	push	ebx
	push	esi
	push	edi
	lea	edi, DWORD PTR [ebp-192]
	mov	ecx, 48					; 00000030H
	mov	eax, -858993460				; ccccccccH
	rep stosd
	mov	ecx, OFFSET __F66CEB67_corecrt_stdio_config@h
	call	@__CheckForDebuggerJustMyCode@4

; 87   :         static unsigned __int64 _OptionsStorage;
; 88   :         return &_OptionsStorage;

	mov	eax, OFFSET ?_OptionsStorage@?1??__local_stdio_printf_options@@9@4_KA ; `__local_stdio_printf_options'::`2'::_OptionsStorage

; 89   :     }

	pop	edi
	pop	esi
	pop	ebx
	add	esp, 192				; 000000c0H
	cmp	ebp, esp
	call	__RTC_CheckEsp
	mov	esp, ebp
	pop	ebp
	ret	0
___local_stdio_printf_options ENDP
_TEXT	ENDS
; Function compile flags: /Odtp /RTCsu /ZI
; File C:\Program Files (x86)\Microsoft Visual Studio\2019\Community\VC\Tools\MSVC\14.24.28314\include\vcruntime_new.h
;	COMDAT ??2@YAPAXIPAX@Z
_TEXT	SEGMENT
__$EHRec$ = -12						; size = 12
__Size$ = 8						; size = 4
__Where$ = 12						; size = 4
??2@YAPAXIPAX@Z PROC					; operator new, COMDAT

; 168  :     {

	push	ebp
	mov	ebp, esp
	push	-1
	push	__ehhandler$??2@YAPAXIPAX@Z
	mov	eax, DWORD PTR fs:0
	push	eax
	sub	esp, 192				; 000000c0H
	push	ebx
	push	esi
	push	edi
	lea	edi, DWORD PTR [ebp-204]
	mov	ecx, 48					; 00000030H
	mov	eax, -858993460				; ccccccccH
	rep stosd
	mov	eax, DWORD PTR ___security_cookie
	xor	eax, ebp
	push	eax
	lea	eax, DWORD PTR __$EHRec$[ebp]
	mov	DWORD PTR fs:0, eax
	mov	ecx, OFFSET __BD3EDE1B_vcruntime_new@h
	call	@__CheckForDebuggerJustMyCode@4

; 169  :         (void)_Size;
; 170  :         return _Where;

	mov	eax, DWORD PTR __Where$[ebp]

; 171  :     }

	mov	ecx, DWORD PTR __$EHRec$[ebp]
	mov	DWORD PTR fs:0, ecx
	pop	ecx
	pop	edi
	pop	esi
	pop	ebx
	add	esp, 204				; 000000ccH
	cmp	ebp, esp
	call	__RTC_CheckEsp
	mov	esp, ebp
	pop	ebp
	ret	0
_TEXT	ENDS
;	COMDAT text$x
text$x	SEGMENT
__ehhandler$??2@YAPAXIPAX@Z:
	mov	edx, DWORD PTR [esp+8]
	lea	eax, DWORD PTR [edx+12]
	mov	ecx, DWORD PTR [edx-208]
	xor	ecx, eax
	call	@__security_check_cookie@4
	mov	eax, OFFSET __ehfuncinfo$??2@YAPAXIPAX@Z
	jmp	___CxxFrameHandler3
text$x	ENDS
??2@YAPAXIPAX@Z ENDP					; operator new
; Function compile flags: /Odtp /RTCsu /ZI
; File D:\Platformer\CPPGame-a38d0db726ab2ff89afdd02c18394bd0c58340c9\CPPGame-a38d0db726ab2ff89afdd02c18394bd0c58340c9\PlatformerGame\src\GameEngine\Start.cpp
;	COMDAT ?__empty_global_delete@@YAXPAXI@Z
_TEXT	SEGMENT
___formal$ = 8						; size = 4
___formal$ = 12						; size = 4
?__empty_global_delete@@YAXPAXI@Z PROC			; __empty_global_delete, COMDAT

	push	ebp
	mov	ebp, esp
	sub	esp, 192				; 000000c0H
	push	ebx
	push	esi
	push	edi
	lea	edi, DWORD PTR [ebp-192]
	mov	ecx, 48					; 00000030H
	mov	eax, -858993460				; ccccccccH
	rep stosd
	mov	ecx, OFFSET __CBA375CA_Start@cpp
	call	@__CheckForDebuggerJustMyCode@4
	pop	edi
	pop	esi
	pop	ebx
	add	esp, 192				; 000000c0H
	cmp	ebp, esp
	call	__RTC_CheckEsp
	mov	esp, ebp
	pop	ebp
	ret	0
?__empty_global_delete@@YAXPAXI@Z ENDP			; __empty_global_delete
_TEXT	ENDS
; Function compile flags: /Odtp /RTCsu /ZI
; File D:\Platformer\CPPGame-a38d0db726ab2ff89afdd02c18394bd0c58340c9\CPPGame-a38d0db726ab2ff89afdd02c18394bd0c58340c9\PlatformerGame\src\GameEngine\Start.cpp
;	COMDAT ?__empty_global_delete@@YAXPAX@Z
_TEXT	SEGMENT
___formal$ = 8						; size = 4
?__empty_global_delete@@YAXPAX@Z PROC			; __empty_global_delete, COMDAT

	push	ebp
	mov	ebp, esp
	sub	esp, 192				; 000000c0H
	push	ebx
	push	esi
	push	edi
	lea	edi, DWORD PTR [ebp-192]
	mov	ecx, 48					; 00000030H
	mov	eax, -858993460				; ccccccccH
	rep stosd
	mov	ecx, OFFSET __CBA375CA_Start@cpp
	call	@__CheckForDebuggerJustMyCode@4
	pop	edi
	pop	esi
	pop	ebx
	add	esp, 192				; 000000c0H
	cmp	ebp, esp
	call	__RTC_CheckEsp
	mov	esp, ebp
	pop	ebp
	ret	0
?__empty_global_delete@@YAXPAX@Z ENDP			; __empty_global_delete
_TEXT	ENDS
END
