; Listing generated by Microsoft (R) Optimizing Compiler Version 19.25.28614.0 

	TITLE	d:\platformer\cppgame-a38d0db726ab2ff89afdd02c18394bd0c58340c9\cppgame-a38d0db726ab2ff89afdd02c18394bd0c58340c9\platformergame\src\gameengine\terrain.cpp
	.686P
	.XMM
	include listing.inc
	.model	flat

INCLUDELIB OLDNAMES

PUBLIC	??$construct@U?$vec@$02M$0A@@glm@@$$V@?$_Default_allocator_traits@V?$allocator@U?$vec@$02M$0A@@glm@@@std@@@std@@SAXAAV?$allocator@U?$vec@$02M$0A@@glm@@@1@QAU?$vec@$02M$0A@@glm@@@Z ; std::_Default_allocator_traits<std::allocator<glm::vec<3,float,0> > >::construct<glm::vec<3,float,0> >
PUBLIC	??$construct@U?$vec@$01M$0A@@glm@@$$V@?$_Default_allocator_traits@V?$allocator@U?$vec@$01M$0A@@glm@@@std@@@std@@SAXAAV?$allocator@U?$vec@$01M$0A@@glm@@@1@QAU?$vec@$01M$0A@@glm@@@Z ; std::_Default_allocator_traits<std::allocator<glm::vec<2,float,0> > >::construct<glm::vec<2,float,0> >
PUBLIC	??$construct@U?$vec@$02I$0A@@glm@@$$V@?$_Default_allocator_traits@V?$allocator@U?$vec@$02I$0A@@glm@@@std@@@std@@SAXAAV?$allocator@U?$vec@$02I$0A@@glm@@@1@QAU?$vec@$02I$0A@@glm@@@Z ; std::_Default_allocator_traits<std::allocator<glm::vec<3,unsigned int,0> > >::construct<glm::vec<3,unsigned int,0> >
PUBLIC	??$_Emplace_back@$$V@?$_Uninitialized_backout_al@V?$allocator@U?$vec@$02M$0A@@glm@@@std@@@std@@QAEXXZ ; std::_Uninitialized_backout_al<std::allocator<glm::vec<3,float,0> > >::_Emplace_back<>
PUBLIC	??$_Emplace_back@$$V@?$_Uninitialized_backout_al@V?$allocator@U?$vec@$01M$0A@@glm@@@std@@@std@@QAEXXZ ; std::_Uninitialized_backout_al<std::allocator<glm::vec<2,float,0> > >::_Emplace_back<>
PUBLIC	??$_Emplace_back@$$V@?$_Uninitialized_backout_al@V?$allocator@U?$vec@$02I$0A@@glm@@@std@@@std@@QAEXXZ ; std::_Uninitialized_backout_al<std::allocator<glm::vec<3,unsigned int,0> > >::_Emplace_back<>
PUBLIC	??0?$_Uninitialized_backout_al@V?$allocator@U?$vec@$02I$0A@@glm@@@std@@@std@@QAE@PAU?$vec@$02I$0A@@glm@@AAV?$allocator@U?$vec@$02I$0A@@glm@@@1@@Z ; std::_Uninitialized_backout_al<std::allocator<glm::vec<3,unsigned int,0> > >::_Uninitialized_backout_al<std::allocator<glm::vec<3,unsigned int,0> > >
PUBLIC	??1?$_Uninitialized_backout_al@V?$allocator@U?$vec@$02I$0A@@glm@@@std@@@std@@QAE@XZ ; std::_Uninitialized_backout_al<std::allocator<glm::vec<3,unsigned int,0> > >::~_Uninitialized_backout_al<std::allocator<glm::vec<3,unsigned int,0> > >
PUBLIC	?_Release@?$_Uninitialized_backout_al@V?$allocator@U?$vec@$02I$0A@@glm@@@std@@@std@@QAEPAU?$vec@$02I$0A@@glm@@XZ ; std::_Uninitialized_backout_al<std::allocator<glm::vec<3,unsigned int,0> > >::_Release
PUBLIC	??0?$_Uninitialized_backout_al@V?$allocator@U?$vec@$01M$0A@@glm@@@std@@@std@@QAE@PAU?$vec@$01M$0A@@glm@@AAV?$allocator@U?$vec@$01M$0A@@glm@@@1@@Z ; std::_Uninitialized_backout_al<std::allocator<glm::vec<2,float,0> > >::_Uninitialized_backout_al<std::allocator<glm::vec<2,float,0> > >
PUBLIC	??1?$_Uninitialized_backout_al@V?$allocator@U?$vec@$01M$0A@@glm@@@std@@@std@@QAE@XZ ; std::_Uninitialized_backout_al<std::allocator<glm::vec<2,float,0> > >::~_Uninitialized_backout_al<std::allocator<glm::vec<2,float,0> > >
PUBLIC	?_Release@?$_Uninitialized_backout_al@V?$allocator@U?$vec@$01M$0A@@glm@@@std@@@std@@QAEPAU?$vec@$01M$0A@@glm@@XZ ; std::_Uninitialized_backout_al<std::allocator<glm::vec<2,float,0> > >::_Release
PUBLIC	??0?$_Uninitialized_backout_al@V?$allocator@U?$vec@$02M$0A@@glm@@@std@@@std@@QAE@PAU?$vec@$02M$0A@@glm@@AAV?$allocator@U?$vec@$02M$0A@@glm@@@1@@Z ; std::_Uninitialized_backout_al<std::allocator<glm::vec<3,float,0> > >::_Uninitialized_backout_al<std::allocator<glm::vec<3,float,0> > >
PUBLIC	??1?$_Uninitialized_backout_al@V?$allocator@U?$vec@$02M$0A@@glm@@@std@@@std@@QAE@XZ ; std::_Uninitialized_backout_al<std::allocator<glm::vec<3,float,0> > >::~_Uninitialized_backout_al<std::allocator<glm::vec<3,float,0> > >
PUBLIC	?_Release@?$_Uninitialized_backout_al@V?$allocator@U?$vec@$02M$0A@@glm@@@std@@@std@@QAEPAU?$vec@$02M$0A@@glm@@XZ ; std::_Uninitialized_backout_al<std::allocator<glm::vec<3,float,0> > >::_Release
PUBLIC	?__autoclassinit2@?$_Uninitialized_backout_al@V?$allocator@U?$vec@$02M$0A@@glm@@@std@@@std@@QAEXI@Z ; std::_Uninitialized_backout_al<std::allocator<glm::vec<3,float,0> > >::__autoclassinit2
PUBLIC	?__autoclassinit2@?$_Uninitialized_backout_al@V?$allocator@U?$vec@$01M$0A@@glm@@@std@@@std@@QAEXI@Z ; std::_Uninitialized_backout_al<std::allocator<glm::vec<2,float,0> > >::__autoclassinit2
PUBLIC	?__autoclassinit2@?$_Uninitialized_backout_al@V?$allocator@U?$vec@$02I$0A@@glm@@@std@@@std@@QAEXI@Z ; std::_Uninitialized_backout_al<std::allocator<glm::vec<3,unsigned int,0> > >::__autoclassinit2
PUBLIC	??$_Uninitialized_value_construct_n@V?$allocator@U?$vec@$02M$0A@@glm@@@std@@@std@@YAPAU?$vec@$02M$0A@@glm@@PAU12@IAAV?$allocator@U?$vec@$02M$0A@@glm@@@0@@Z ; std::_Uninitialized_value_construct_n<std::allocator<glm::vec<3,float,0> > >
PUBLIC	??$_Uninitialized_value_construct_n@V?$allocator@U?$vec@$01M$0A@@glm@@@std@@@std@@YAPAU?$vec@$01M$0A@@glm@@PAU12@IAAV?$allocator@U?$vec@$01M$0A@@glm@@@0@@Z ; std::_Uninitialized_value_construct_n<std::allocator<glm::vec<2,float,0> > >
PUBLIC	??$_Uninitialized_value_construct_n@V?$allocator@U?$vec@$02I$0A@@glm@@@std@@@std@@YAPAU?$vec@$02I$0A@@glm@@PAU12@IAAV?$allocator@U?$vec@$02I$0A@@glm@@@0@@Z ; std::_Uninitialized_value_construct_n<std::allocator<glm::vec<3,unsigned int,0> > >
PUBLIC	??$forward@ABV?$allocator@U?$vec@$02M$0A@@glm@@@std@@@std@@YAABV?$allocator@U?$vec@$02M$0A@@glm@@@0@ABV10@@Z ; std::forward<std::allocator<glm::vec<3,float,0> > const &>
PUBLIC	??$forward@ABV?$allocator@U?$vec@$01M$0A@@glm@@@std@@@std@@YAABV?$allocator@U?$vec@$01M$0A@@glm@@@0@ABV10@@Z ; std::forward<std::allocator<glm::vec<2,float,0> > const &>
PUBLIC	??$forward@ABV?$allocator@U?$vec@$02I$0A@@glm@@@std@@@std@@YAABV?$allocator@U?$vec@$02I$0A@@glm@@@0@ABV10@@Z ; std::forward<std::allocator<glm::vec<3,unsigned int,0> > const &>
PUBLIC	?_Ufill@?$vector@U?$vec@$02M$0A@@glm@@V?$allocator@U?$vec@$02M$0A@@glm@@@std@@@std@@AAEPAU?$vec@$02M$0A@@glm@@PAU34@IU_Value_init_tag@2@@Z ; std::vector<glm::vec<3,float,0>,std::allocator<glm::vec<3,float,0> > >::_Ufill
PUBLIC	?_Buy_nonzero@?$vector@U?$vec@$02M$0A@@glm@@V?$allocator@U?$vec@$02M$0A@@glm@@@std@@@std@@AAEXI@Z ; std::vector<glm::vec<3,float,0>,std::allocator<glm::vec<3,float,0> > >::_Buy_nonzero
PUBLIC	?_Ufill@?$vector@U?$vec@$01M$0A@@glm@@V?$allocator@U?$vec@$01M$0A@@glm@@@std@@@std@@AAEPAU?$vec@$01M$0A@@glm@@PAU34@IU_Value_init_tag@2@@Z ; std::vector<glm::vec<2,float,0>,std::allocator<glm::vec<2,float,0> > >::_Ufill
PUBLIC	?_Buy_nonzero@?$vector@U?$vec@$01M$0A@@glm@@V?$allocator@U?$vec@$01M$0A@@glm@@@std@@@std@@AAEXI@Z ; std::vector<glm::vec<2,float,0>,std::allocator<glm::vec<2,float,0> > >::_Buy_nonzero
PUBLIC	?_Ufill@?$vector@U?$vec@$02I$0A@@glm@@V?$allocator@U?$vec@$02I$0A@@glm@@@std@@@std@@AAEPAU?$vec@$02I$0A@@glm@@PAU34@IU_Value_init_tag@2@@Z ; std::vector<glm::vec<3,unsigned int,0>,std::allocator<glm::vec<3,unsigned int,0> > >::_Ufill
PUBLIC	?_Buy_nonzero@?$vector@U?$vec@$02I$0A@@glm@@V?$allocator@U?$vec@$02I$0A@@glm@@@std@@@std@@AAEXI@Z ; std::vector<glm::vec<3,unsigned int,0>,std::allocator<glm::vec<3,unsigned int,0> > >::_Buy_nonzero
PUBLIC	??$_Construct_n_copies_of_ty@U_Value_init_tag@std@@@?$vector@U?$vec@$02M$0A@@glm@@V?$allocator@U?$vec@$02M$0A@@glm@@@std@@@std@@AAEXIABU_Value_init_tag@1@@Z ; std::vector<glm::vec<3,float,0>,std::allocator<glm::vec<3,float,0> > >::_Construct_n_copies_of_ty<std::_Value_init_tag>
PUBLIC	??$?0ABV?$allocator@U?$vec@$02M$0A@@glm@@@std@@$$V@?$_Compressed_pair@V?$allocator@U?$vec@$02M$0A@@glm@@@std@@V?$_Vector_val@U?$_Simple_types@U?$vec@$02M$0A@@glm@@@std@@@2@$00@std@@QAE@U_One_then_variadic_args_t@1@ABV?$allocator@U?$vec@$02M$0A@@glm@@@1@@Z ; std::_Compressed_pair<std::allocator<glm::vec<3,float,0> >,std::_Vector_val<std::_Simple_types<glm::vec<3,float,0> > >,1>::_Compressed_pair<std::allocator<glm::vec<3,float,0> >,std::_Vector_val<std::_Simple_types<glm::vec<3,float,0> > >,1><std::allocator<glm::vec<3,float,0> > const &>
PUBLIC	??$_Construct_n_copies_of_ty@U_Value_init_tag@std@@@?$vector@U?$vec@$01M$0A@@glm@@V?$allocator@U?$vec@$01M$0A@@glm@@@std@@@std@@AAEXIABU_Value_init_tag@1@@Z ; std::vector<glm::vec<2,float,0>,std::allocator<glm::vec<2,float,0> > >::_Construct_n_copies_of_ty<std::_Value_init_tag>
PUBLIC	??$?0ABV?$allocator@U?$vec@$01M$0A@@glm@@@std@@$$V@?$_Compressed_pair@V?$allocator@U?$vec@$01M$0A@@glm@@@std@@V?$_Vector_val@U?$_Simple_types@U?$vec@$01M$0A@@glm@@@std@@@2@$00@std@@QAE@U_One_then_variadic_args_t@1@ABV?$allocator@U?$vec@$01M$0A@@glm@@@1@@Z ; std::_Compressed_pair<std::allocator<glm::vec<2,float,0> >,std::_Vector_val<std::_Simple_types<glm::vec<2,float,0> > >,1>::_Compressed_pair<std::allocator<glm::vec<2,float,0> >,std::_Vector_val<std::_Simple_types<glm::vec<2,float,0> > >,1><std::allocator<glm::vec<2,float,0> > const &>
PUBLIC	??$_Construct_n_copies_of_ty@U_Value_init_tag@std@@@?$vector@U?$vec@$02I$0A@@glm@@V?$allocator@U?$vec@$02I$0A@@glm@@@std@@@std@@AAEXIABU_Value_init_tag@1@@Z ; std::vector<glm::vec<3,unsigned int,0>,std::allocator<glm::vec<3,unsigned int,0> > >::_Construct_n_copies_of_ty<std::_Value_init_tag>
PUBLIC	??$?0ABV?$allocator@U?$vec@$02I$0A@@glm@@@std@@$$V@?$_Compressed_pair@V?$allocator@U?$vec@$02I$0A@@glm@@@std@@V?$_Vector_val@U?$_Simple_types@U?$vec@$02I$0A@@glm@@@std@@@2@$00@std@@QAE@U_One_then_variadic_args_t@1@ABV?$allocator@U?$vec@$02I$0A@@glm@@@1@@Z ; std::_Compressed_pair<std::allocator<glm::vec<3,unsigned int,0> >,std::_Vector_val<std::_Simple_types<glm::vec<3,unsigned int,0> > >,1>::_Compressed_pair<std::allocator<glm::vec<3,unsigned int,0> >,std::_Vector_val<std::_Simple_types<glm::vec<3,unsigned int,0> > >,1><std::allocator<glm::vec<3,unsigned int,0> > const &>
PUBLIC	??0?$vector@U?$vec@$02M$0A@@glm@@V?$allocator@U?$vec@$02M$0A@@glm@@@std@@@std@@QAE@IABV?$allocator@U?$vec@$02M$0A@@glm@@@1@@Z ; std::vector<glm::vec<3,float,0>,std::allocator<glm::vec<3,float,0> > >::vector<glm::vec<3,float,0>,std::allocator<glm::vec<3,float,0> > >
PUBLIC	??0?$vector@U?$vec@$01M$0A@@glm@@V?$allocator@U?$vec@$01M$0A@@glm@@@std@@@std@@QAE@IABV?$allocator@U?$vec@$01M$0A@@glm@@@1@@Z ; std::vector<glm::vec<2,float,0>,std::allocator<glm::vec<2,float,0> > >::vector<glm::vec<2,float,0>,std::allocator<glm::vec<2,float,0> > >
PUBLIC	??0?$vector@U?$vec@$02I$0A@@glm@@V?$allocator@U?$vec@$02I$0A@@glm@@@std@@@std@@QAE@IABV?$allocator@U?$vec@$02I$0A@@glm@@@1@@Z ; std::vector<glm::vec<3,unsigned int,0>,std::allocator<glm::vec<3,unsigned int,0> > >::vector<glm::vec<3,unsigned int,0>,std::allocator<glm::vec<3,unsigned int,0> > >
PUBLIC	?getGridZ@Terrain@@QAEMXZ			; Terrain::getGridZ
PUBLIC	?getGridx@Terrain@@QAEMXZ			; Terrain::getGridx
PUBLIC	?getModel@Terrain@@QAE?AVModel@@XZ		; Terrain::getModel
PUBLIC	?loadData@Terrain@@AAEXAAV?$vector@U?$vec@$02M$0A@@glm@@V?$allocator@U?$vec@$02M$0A@@glm@@@std@@@std@@0AAV?$vector@U?$vec@$01M$0A@@glm@@V?$allocator@U?$vec@$01M$0A@@glm@@@std@@@3@@Z ; Terrain::loadData
PUBLIC	?GenIndeces@Terrain@@AAEXAAV?$vector@U?$vec@$02I$0A@@glm@@V?$allocator@U?$vec@$02I$0A@@glm@@@std@@@std@@@Z ; Terrain::GenIndeces
PUBLIC	?__autoclassinit2@?$vector@U?$vec@$02I$0A@@glm@@V?$allocator@U?$vec@$02I$0A@@glm@@@std@@@std@@QAEXI@Z ; std::vector<glm::vec<3,unsigned int,0>,std::allocator<glm::vec<3,unsigned int,0> > >::__autoclassinit2
PUBLIC	?GenTerrain@Terrain@@AAE?AVModel@@XZ		; Terrain::GenTerrain
PUBLIC	??0Texture@@QAE@ABV0@@Z				; Texture::Texture
PUBLIC	??0Terrain@@QAE@MMVTexture@@@Z			; Terrain::Terrain
;	COMDAT xdata$x
xdata$x	SEGMENT
__ehfuncinfo$??0Terrain@@QAE@MMVTexture@@@Z DQ 00000000219930522r ; 4.45598e-314
	DD	FLAT:__unwindtable$??0Terrain@@QAE@MMVTexture@@@Z
	DQ	00000000000000000r		; 0
	DQ	00000000000000000r		; 0
	DQ	00000000100000000r		; 2.122e-314
__unwindtable$??0Terrain@@QAE@MMVTexture@@@Z DD 0ffffffffH
	DD	FLAT:__unwindfunclet$??0Terrain@@QAE@MMVTexture@@@Z$0
	DD	00H
	DD	FLAT:__unwindfunclet$??0Terrain@@QAE@MMVTexture@@@Z$1
xdata$x	ENDS
;	COMDAT xdata$x
xdata$x	SEGMENT
__ehfuncinfo$?GenTerrain@Terrain@@AAE?AVModel@@XZ DQ 00000000719930522r ; 1.5066e-313
	DD	FLAT:__unwindtable$?GenTerrain@Terrain@@AAE?AVModel@@XZ
	DQ	00000000000000000r		; 0
	DQ	00000000000000000r		; 0
	DQ	00000000100000000r		; 2.122e-314
__unwindtable$?GenTerrain@Terrain@@AAE?AVModel@@XZ DD 0ffffffffH
	DD	FLAT:__unwindfunclet$?GenTerrain@Terrain@@AAE?AVModel@@XZ$0
	DD	00H
	DD	FLAT:__unwindfunclet$?GenTerrain@Terrain@@AAE?AVModel@@XZ$1
	DD	01H
	DD	FLAT:__unwindfunclet$?GenTerrain@Terrain@@AAE?AVModel@@XZ$2
	DD	02H
	DD	FLAT:__unwindfunclet$?GenTerrain@Terrain@@AAE?AVModel@@XZ$3
	DD	03H
	DD	FLAT:__unwindfunclet$?GenTerrain@Terrain@@AAE?AVModel@@XZ$4
	DD	04H
	DD	FLAT:__unwindfunclet$?GenTerrain@Terrain@@AAE?AVModel@@XZ$5
	DD	05H
	DD	FLAT:__unwindfunclet$?GenTerrain@Terrain@@AAE?AVModel@@XZ$6
END
