; Listing generated by Microsoft (R) Optimizing Compiler Version 19.25.28614.0 

	TITLE	d:\platformer\cppgame-a38d0db726ab2ff89afdd02c18394bd0c58340c9\cppgame-a38d0db726ab2ff89afdd02c18394bd0c58340c9\platformergame\src\gameengine\texture.cpp
	.686P
	.XMM
	include listing.inc
	.model	flat

INCLUDELIB OLDNAMES

PUBLIC	??_C@_0BD@CBEDEJPH@unknown?5image?5type@	; `string'
PUBLIC	??_C@_08NOGIMCHF@outofmem@			; `string'
PUBLIC	??_C@_1BFK@ENAMFAGH@?$AAD?$AA?3?$AA?2?$AAP?$AAl?$AAa?$AAt?$AAf?$AAo?$AAr?$AAm?$AAe?$AAr?$AA?2?$AAC@ ; `string'
PUBLIC	??_C@_1DE@BAGIOALB@?$AAr?$AAi?$AA?4?$AAb?$AAi?$AAt?$AAs?$AA_?$AAp?$AAe?$AAr?$AA_?$AAc?$AAh?$AAa@ ; `string'
PUBLIC	??_C@_1DC@NDPEGMEG@?$AAr?$AAi?$AA?4?$AAb?$AAi?$AAt?$AAs?$AA_?$AAp?$AAe?$AAr?$AA_?$AAc?$AAh?$AAa@ ; `string'
PUBLIC	??_C@_02JDPG@rb@				; `string'
PUBLIC	??_C@_0M@JPDHFAGK@can?8t?5fopen@		; `string'
PUBLIC	??_C@_1DO@MABJBNAJ@?$AAr?$AAe?$AAq?$AA_?$AAc?$AAo?$AAm?$AAp?$AA?5?$AA?$DO?$AA?$DN?$AA?5?$AA1?$AA?5?$AA?$CG@ ; `string'
PUBLIC	??_C@_13COJANIEC@?$AA0@				; `string'
PUBLIC	??_C@_0BB@FOKGPEKG@bad?5code?5lengths@		; `string'
PUBLIC	??_C@_1KE@JGKPJEBO@?$AA?$CI?$AA?$CI?$AA?$CI?$AAj?$AA?9?$AA?$DO?$AAc?$AAo?$AAd?$AAe?$AA_?$AAb?$AAu?$AAf?$AAf@ ; `string'
PUBLIC	??_C@_1IA@IKCMGFNK@?$AAn?$AA?5?$AA?$DO?$AA?$DN?$AA?5?$AA0?$AA?5?$AA?$CG?$AA?$CG?$AA?5?$AAn?$AA?5?$AA?$DM?$AA?5?$AA?$CI@ ; `string'
PUBLIC	??_C@_0BB@IIMLINA@bad?5huffman?5code@		; `string'
PUBLIC	??_C@_0BG@PJBJDAGM@can?8t?5merge?5dc?5and?5ac@	; `string'
PUBLIC	??_C@_0BA@KLNDOKJD@expected?5marker@		; `string'
PUBLIC	??_C@_0M@LPHNODCG@bad?5DRI?5len@		; `string'
PUBLIC	??_C@_0N@BOFJCHAP@bad?5DQT?5type@		; `string'
PUBLIC	??_C@_0O@CNHKKDIM@bad?5DQT?5table@		; `string'
PUBLIC	??_C@_0P@JLGKOCGN@bad?5DHT?5header@		; `string'
PUBLIC	??_C@_0M@CICAFFCH@bad?5COM?5len@		; `string'
PUBLIC	??_C@_0M@EENLKPDI@bad?5APP?5len@		; `string'
PUBLIC	??_C@_0P@NNGPHMMK@unknown?5marker@		; `string'
PUBLIC	??_C@_0BI@DHFJCMBA@bad?5SOS?5component?5count@	; `string'
PUBLIC	??_C@_0M@GNEHAHOH@bad?5SOS?5len@		; `string'
PUBLIC	??_C@_0M@NOCCBFAC@bad?5DC?5huff@		; `string'
PUBLIC	??_C@_0M@JGMCBLGG@bad?5AC?5huff@		; `string'
PUBLIC	??_C@_07EEJOMGGP@bad?5SOS@			; `string'
PUBLIC	??_C@_0M@DOFMJEMP@bad?5SOF?5len@		; `string'
PUBLIC	??_C@_0L@BCINMEBJ@only?58?9bit@			; `string'
PUBLIC	??_C@_0BB@LNEGOMA@no?5header?5height@		; `string'
PUBLIC	??_C@_07BIDACDEF@0?5width@			; `string'
PUBLIC	??_C@_0BE@DAPHADHL@bad?5component?5count@	; `string'
PUBLIC	??_C@_05BLPKENEJ@bad?5H@			; `string'
PUBLIC	??_C@_05MPLLHCJG@bad?5V@			; `string'
PUBLIC	??_C@_06LJIHDFHI@bad?5TQ@			; `string'
PUBLIC	??_C@_09OJDLMMBJ@too?5large@			; `string'
PUBLIC	??_C@_06CLMBLEP@no?5SOI@			; `string'
PUBLIC	??_C@_06IFCEAHIA@no?5SOF@			; `string'
PUBLIC	??_C@_0M@EPMOIECP@bad?5DNL?5len@		; `string'
PUBLIC	??_C@_0P@PNCLKCLJ@bad?5DNL?5height@		; `string'
PUBLIC	??_C@_0N@KBPNPPBJ@bad?5req_comp@		; `string'
PUBLIC	??_C@_1BG@HKNLHECB@?$AAb?$AAi?$AAt?$AAs?$AA?5?$AA?$DM?$AA?$DN?$AA?5?$AA1?$AA6@ ; `string'
PUBLIC	??_C@_09EOHLEIKL@bad?5sizes@			; `string'
PUBLIC	??_C@_0BA@MDNKOBMC@bad?5codelengths@		; `string'
PUBLIC	??_C@_1EK@GAHNONBJ@?$AAz?$AA?9?$AA?$DO?$AAc?$AAo?$AAd?$AAe?$AA_?$AAb?$AAu?$AAf?$AAf?$AAe?$AAr?$AA?5@ ; `string'
PUBLIC	??_C@_1CA@BMLMNMFI@?$AAz?$AA?9?$AA?$DO?$AAs?$AAi?$AAz?$AAe?$AA?$FL?$AAb?$AA?$FN?$AA?5?$AA?$DN?$AA?$DN?$AA?5?$AAs@ ; `string'
PUBLIC	??_C@_0BE@IBFIPFO@output?5buffer?5limit@	; `string'
PUBLIC	??_C@_08DIAPIMGJ@bad?5dist@			; `string'
PUBLIC	??_C@_1BA@NKONKNHF@?$AAc?$AA?5?$AA?$DN?$AA?$DN?$AA?5?$AA1?$AA8@ ; `string'
PUBLIC	??_C@_1CC@BHGGCLFF@?$AAa?$AA?9?$AA?$DO?$AAn?$AAu?$AAm?$AA_?$AAb?$AAi?$AAt?$AAs?$AA?5?$AA?$DN?$AA?$DN?$AA?5@ ; `string'
PUBLIC	??_C@_0N@IECDHMDI@zlib?5corrupt@		; `string'
PUBLIC	??_C@_0BB@PIPBCKIA@read?5past?5buffer@		; `string'
PUBLIC	??_C@_0BA@OBKOPAFL@bad?5zlib?5header@		; `string'
PUBLIC	??_C@_0P@DOGMHEBI@no?5preset?5dict@		; `string'
PUBLIC	??_C@_0BA@MCNBDLPD@bad?5compression@		; `string'
PUBLIC	??_C@_0M@DMDNBACF@bad?5png?5sig@		; `string'
PUBLIC	??_C@_1FG@LGPEHEPM@?$AAo?$AAu?$AAt?$AA_?$AAn?$AA?5?$AA?$DN?$AA?$DN?$AA?5?$AAs?$AA?9?$AA?$DO?$AAi?$AAm?$AAg@ ; `string'
PUBLIC	??_C@_0BC@BHMPBBMG@not?5enough?5pixels@		; `string'
PUBLIC	??_C@_0P@FBBCPGMN@invalid?5filter@		; `string'
PUBLIC	??_C@_1CK@EJKIMPDL@?$AAi?$AAm?$AAg?$AA_?$AAw?$AAi?$AAd?$AAt?$AAh?$AA_?$AAb?$AAy?$AAt?$AAe?$AAs@ ; `string'
PUBLIC	??_C@_1CG@MFAHHIFB@?$AAi?$AAm?$AAg?$AA_?$AAn?$AA?5?$AA?$CL?$AA?5?$AA1?$AA?5?$AA?$DN?$AA?$DN?$AA?5?$AAo?$AAu@ ; `string'
PUBLIC	??_C@_1BG@FLOPDKAN@?$AAi?$AAm?$AAg?$AA_?$AAn?$AA?5?$AA?$DN?$AA?$DN?$AA?5?$AA3@ ; `string'
PUBLIC	??_C@_1DC@BMIDKOPK@?$AAo?$AAu?$AAt?$AA_?$AAn?$AA?5?$AA?$DN?$AA?$DN?$AA?5?$AA2?$AA?5?$AA?$HM?$AA?$HM?$AA?5?$AAo@ ; `string'
PUBLIC	??_C@_1CE@GKIDJEJM@?$AAs?$AA?9?$AA?$DO?$AAi?$AAm?$AAg?$AA_?$AAo?$AAu?$AAt?$AA_?$AAn?$AA?5?$AA?$DN?$AA?$DN@ ; `string'
PUBLIC	??_C@_0O@KBHBNJOK@multiple?5IHDR@		; `string'
PUBLIC	??_C@_0N@POJLKMKK@bad?5IHDR?5len@		; `string'
PUBLIC	??_C@_0BE@EJHIPKNO@1?12?14?18?116?9bit?5only@	; `string'
PUBLIC	??_C@_09MBBNGCKB@bad?5ctype@			; `string'
PUBLIC	??_C@_0BA@MDMBDDFG@bad?5comp?5method@		; `string'
PUBLIC	??_C@_0BC@GHLIKKMD@bad?5filter?5method@		; `string'
PUBLIC	??_C@_0BF@JCGDPBAA@bad?5interlace?5method@	; `string'
PUBLIC	??_C@_0O@FNFBHCOO@0?9pixel?5image@		; `string'
PUBLIC	??_C@_0P@JEAFOMAF@first?5not?5IHDR@		; `string'
PUBLIC	??_C@_0N@JCPAJAKB@invalid?5PLTE@		; `string'
PUBLIC	??_C@_0BA@PCPJHDKJ@tRNS?5after?5IDAT@		; `string'
PUBLIC	??_C@_0BB@CEDNNLBG@tRNS?5before?5PLTE@		; `string'
PUBLIC	??_C@_0N@KDLCCKCH@bad?5tRNS?5len@		; `string'
PUBLIC	??_C@_0BA@ENDPGCHB@tRNS?5with?5alpha@		; `string'
PUBLIC	??_C@_07CKIELOEH@no?5PLTE@			; `string'
PUBLIC	??_C@_09MNNCNKEO@outofdata@			; `string'
PUBLIC	??_C@_07MLPECBNA@no?5IDAT@			; `string'
PUBLIC	??_C@_1CE@LIEKLNBF@?$AAv?$AA?5?$AA?$DO?$AA?$DN?$AA?5?$AA0?$AA?5?$AA?$CG?$AA?$CG?$AA?5?$AAv?$AA?5?$AA?$DM?$AA?5?$AA2@ ; `string'
PUBLIC	??_C@_1CO@LIFEKNEP@?$AAb?$AAi?$AAt?$AAs?$AA?5?$AA?$DO?$AA?$DN?$AA?5?$AA0?$AA?5?$AA?$CG?$AA?$CG?$AA?5?$AAb?$AAi@ ; `string'
PUBLIC	??_C@_07IANEBNLB@not?5BMP@			; `string'
PUBLIC	??_C@_0M@KHBIBJBG@unknown?5BMP@			; `string'
PUBLIC	??_C@_07IEJCHBDI@bad?5BMP@			; `string'
PUBLIC	??_C@_07IMHMNOIB@BMP?5RLE@			; `string'
PUBLIC	??_C@_07MALOAKCI@invalid@			; `string'
PUBLIC	??_C@_07JNJHIMGH@bad?5bpp@			; `string'
PUBLIC	??_C@_09DAEBACAB@bad?5masks@			; `string'
PUBLIC	??_C@_0L@DMAPJJO@bad?5format@			; `string'
PUBLIC	??_C@_1CK@GOOINIO@?$AAt?$AAg?$AAa?$AA_?$AAc?$AAo?$AAm?$AAp?$AA?5?$AA?$DN?$AA?$DN?$AA?5?$AAS?$AAT?$AAB@ ; `string'
PUBLIC	??_C@_0M@ILLOCNCO@bad?5palette@			; `string'
PUBLIC	??_C@_07ECNCNLIK@not?5PSD@			; `string'
PUBLIC	??_C@_0O@CHBCDKKC@wrong?5version@		; `string'
PUBLIC	??_C@_0BE@PJBNGDBE@wrong?5channel?5count@	; `string'
PUBLIC	??_C@_0BG@NOLDLPP@unsupported?5bit?5depth@	; `string'
PUBLIC	??_C@_0BD@IOGGBMNK@wrong?5color?5format@	; `string'
PUBLIC	??_C@_07DPPMCAKL@corrupt@			; `string'
PUBLIC	??_C@_04KBFEPHFH@S?$IA?v4@			; `string'
PUBLIC	??_C@_04ELNJHLFH@PICT@				; `string'
PUBLIC	??_C@_08GGMBIFE@bad?5file@			; `string'
PUBLIC	??_C@_07KMJLPAII@not?5GIF@			; `string'
PUBLIC	??_C@_00CNPNBAHC@@				; `string'
PUBLIC	??_C@_0O@MGDACKOJ@no?5clear?5code@		; `string'
PUBLIC	??_C@_0P@GJNJCPDJ@too?5many?5codes@		; `string'
PUBLIC	??_C@_0BH@LOKBIIOJ@illegal?5code?5in?5raster@	; `string'
PUBLIC	??_C@_0BF@GIAALCNJ@bad?5Image?5Descriptor@	; `string'
PUBLIC	??_C@_0BE@NAMJKDNF@missing?5color?5table@	; `string'
PUBLIC	??_C@_0N@DJABBOOH@unknown?5code@		; `string'
PUBLIC	??_C@_0M@HOIDFNFN@?$CD?$DPRADIANCE?6@		; `string'
PUBLIC	??_C@_07KFDJIKCK@?$CD?$DPRGBE?6@		; `string'
PUBLIC	??_C@_0L@NCPEAJBD@?$CD?$DPRADIANCE@		; `string'
PUBLIC	??_C@_06NDOKKIDJ@?$CD?$DPRGBE@			; `string'
PUBLIC	??_C@_07NCIOKENI@not?5HDR@			; `string'
PUBLIC	??_C@_0BH@JFGBLLKC@FORMAT?$DN32?9bit_rle_rgbe@	; `string'
PUBLIC	??_C@_0BD@NKJFFLKL@unsupported?5format@		; `string'
PUBLIC	??_C@_03HKAKGGJN@?9Y?5@				; `string'
PUBLIC	??_C@_0BI@DCNDPIOH@unsupported?5data?5layout@	; `string'
PUBLIC	??_C@_03FOKDFDHG@?$CLX?5@			; `string'
PUBLIC	??_C@_0CA@JBEOCDFN@invalid?5decoded?5scanline?5length@ ; `string'
PUBLIC	??_C@_0BA@OLLEAHAM@max?5value?5?$DO?5255@	; `string'
PUBLIC	??_C@_0BC@MIBMIPKG@src?1res?1Textures?1@	; `string'
PUBLIC	??_C@_09LDDNJKDN@the?5file?5@			; `string'
EXTRN	__imp__malloc:PROC
EXTRN	__imp__glPixelStorei@8:PROC
EXTRN	__imp__feof:PROC
EXTRN	__imp__free:PROC
EXTRN	__imp__ldexp:PROC
EXTRN	__imp__glTexImage2D@36:PROC
EXTRN	__imp__glTexParameterf@12:PROC
EXTRN	__imp__fopen_s:PROC
EXTRN	__imp__strncmp:PROC
EXTRN	__imp__glDeleteTextures@8:PROC
EXTRN	___glewActiveTexture:DWORD
EXTRN	__imp__glTexParameteri@12:PROC
EXTRN	__imp__fseek:PROC
EXTRN	__imp__realloc:PROC
EXTRN	__imp__glGenTextures@8:PROC
EXTRN	__imp__glBindTexture@8:PROC
EXTRN	__imp__ftell:PROC
?stbi__de_iphone_flag@@3HA DD 01H DUP (?)		; stbi__de_iphone_flag
?stbi__vertically_flip_on_load@@3HA DD 01H DUP (?)	; stbi__vertically_flip_on_load
?stbi__unpremultiply_on_load@@3HA DD 01H DUP (?)	; stbi__unpremultiply_on_load
_BSS	ENDS
;	COMDAT ??_C@_09LDDNJKDN@the?5file?5@
CONST	SEGMENT
??_C@_09LDDNJKDN@the?5file?5@ DB 'the file ', 00H	; `string'
CONST	ENDS
;	COMDAT ??_C@_0BC@MIBMIPKG@src?1res?1Textures?1@
CONST	SEGMENT
??_C@_0BC@MIBMIPKG@src?1res?1Textures?1@ DB 'src/res/Textures/', 00H ; `string'
CONST	ENDS
;	COMDAT ??_C@_0BA@OLLEAHAM@max?5value?5?$DO?5255@
CONST	SEGMENT
??_C@_0BA@OLLEAHAM@max?5value?5?$DO?5255@ DB 'max value > 255', 00H ; `string'
CONST	ENDS
;	COMDAT ??_C@_0CA@JBEOCDFN@invalid?5decoded?5scanline?5length@
CONST	SEGMENT
??_C@_0CA@JBEOCDFN@invalid?5decoded?5scanline?5length@ DB 'invalid decode'
	DB	'd scanline length', 00H			; `string'
CONST	ENDS
;	COMDAT ??_C@_03FOKDFDHG@?$CLX?5@
CONST	SEGMENT
??_C@_03FOKDFDHG@?$CLX?5@ DB '+X ', 00H			; `string'
CONST	ENDS
;	COMDAT ??_C@_0BI@DCNDPIOH@unsupported?5data?5layout@
CONST	SEGMENT
??_C@_0BI@DCNDPIOH@unsupported?5data?5layout@ DB 'unsupported data layout'
	DB	00H						; `string'
CONST	ENDS
;	COMDAT ??_C@_03HKAKGGJN@?9Y?5@
CONST	SEGMENT
??_C@_03HKAKGGJN@?9Y?5@ DB '-Y ', 00H			; `string'
CONST	ENDS
;	COMDAT ??_C@_0BD@NKJFFLKL@unsupported?5format@
CONST	SEGMENT
??_C@_0BD@NKJFFLKL@unsupported?5format@ DB 'unsupported format', 00H ; `string'
CONST	ENDS
;	COMDAT ??_C@_0BH@JFGBLLKC@FORMAT?$DN32?9bit_rle_rgbe@
CONST	SEGMENT
??_C@_0BH@JFGBLLKC@FORMAT?$DN32?9bit_rle_rgbe@ DB 'FORMAT=32-bit_rle_rgbe'
	DB	00H						; `string'
CONST	ENDS
;	COMDAT ??_C@_07NCIOKENI@not?5HDR@
CONST	SEGMENT
??_C@_07NCIOKENI@not?5HDR@ DB 'not HDR', 00H		; `string'
CONST	ENDS
;	COMDAT ??_C@_06NDOKKIDJ@?$CD?$DPRGBE@
CONST	SEGMENT
??_C@_06NDOKKIDJ@?$CD?$DPRGBE@ DB '#?RGBE', 00H		; `string'
CONST	ENDS
;	COMDAT ??_C@_0L@NCPEAJBD@?$CD?$DPRADIANCE@
CONST	SEGMENT
??_C@_0L@NCPEAJBD@?$CD?$DPRADIANCE@ DB '#?RADIANCE', 00H ; `string'
CONST	ENDS
;	COMDAT ??_C@_07KFDJIKCK@?$CD?$DPRGBE?6@
CONST	SEGMENT
??_C@_07KFDJIKCK@?$CD?$DPRGBE?6@ DB '#?RGBE', 0aH, 00H	; `string'
CONST	ENDS
;	COMDAT ??_C@_0M@HOIDFNFN@?$CD?$DPRADIANCE?6@
CONST	SEGMENT
??_C@_0M@HOIDFNFN@?$CD?$DPRADIANCE?6@ DB '#?RADIANCE', 0aH, 00H ; `string'
CONST	ENDS
;	COMDAT ??_C@_0N@DJABBOOH@unknown?5code@
CONST	SEGMENT
??_C@_0N@DJABBOOH@unknown?5code@ DB 'unknown code', 00H	; `string'
CONST	ENDS
;	COMDAT ??_C@_0BE@NAMJKDNF@missing?5color?5table@
CONST	SEGMENT
??_C@_0BE@NAMJKDNF@missing?5color?5table@ DB 'missing color table', 00H ; `string'
CONST	ENDS
;	COMDAT ??_C@_0BF@GIAALCNJ@bad?5Image?5Descriptor@
CONST	SEGMENT
??_C@_0BF@GIAALCNJ@bad?5Image?5Descriptor@ DB 'bad Image Descriptor', 00H ; `string'
CONST	ENDS
;	COMDAT ??_C@_0BH@LOKBIIOJ@illegal?5code?5in?5raster@
CONST	SEGMENT
??_C@_0BH@LOKBIIOJ@illegal?5code?5in?5raster@ DB 'illegal code in raster', 00H ; `string'
CONST	ENDS
;	COMDAT ??_C@_0P@GJNJCPDJ@too?5many?5codes@
CONST	SEGMENT
??_C@_0P@GJNJCPDJ@too?5many?5codes@ DB 'too many codes', 00H ; `string'
CONST	ENDS
;	COMDAT ??_C@_0O@MGDACKOJ@no?5clear?5code@
CONST	SEGMENT
??_C@_0O@MGDACKOJ@no?5clear?5code@ DB 'no clear code', 00H ; `string'
CONST	ENDS
;	COMDAT ??_C@_00CNPNBAHC@@
CONST	SEGMENT
??_C@_00CNPNBAHC@@ DB 00H				; `string'
CONST	ENDS
;	COMDAT ??_C@_07KMJLPAII@not?5GIF@
CONST	SEGMENT
??_C@_07KMJLPAII@not?5GIF@ DB 'not GIF', 00H		; `string'
CONST	ENDS
;	COMDAT ??_C@_08GGMBIFE@bad?5file@
CONST	SEGMENT
??_C@_08GGMBIFE@bad?5file@ DB 'bad file', 00H		; `string'
CONST	ENDS
;	COMDAT ??_C@_04ELNJHLFH@PICT@
CONST	SEGMENT
??_C@_04ELNJHLFH@PICT@ DB 'PICT', 00H			; `string'
CONST	ENDS
;	COMDAT ??_C@_04KBFEPHFH@S?$IA?v4@
CONST	SEGMENT
??_C@_04KBFEPHFH@S?$IA?v4@ DB 'S', 080H, 0f6H, '4', 00H	; `string'
CONST	ENDS
;	COMDAT ??_C@_07DPPMCAKL@corrupt@
CONST	SEGMENT
??_C@_07DPPMCAKL@corrupt@ DB 'corrupt', 00H		; `string'
CONST	ENDS
;	COMDAT ??_C@_0BD@IOGGBMNK@wrong?5color?5format@
CONST	SEGMENT
??_C@_0BD@IOGGBMNK@wrong?5color?5format@ DB 'wrong color format', 00H ; `string'
CONST	ENDS
;	COMDAT ??_C@_0BG@NOLDLPP@unsupported?5bit?5depth@
CONST	SEGMENT
??_C@_0BG@NOLDLPP@unsupported?5bit?5depth@ DB 'unsupported bit depth', 00H ; `string'
CONST	ENDS
;	COMDAT ??_C@_0BE@PJBNGDBE@wrong?5channel?5count@
CONST	SEGMENT
??_C@_0BE@PJBNGDBE@wrong?5channel?5count@ DB 'wrong channel count', 00H ; `string'
CONST	ENDS
;	COMDAT ??_C@_0O@CHBCDKKC@wrong?5version@
CONST	SEGMENT
??_C@_0O@CHBCDKKC@wrong?5version@ DB 'wrong version', 00H ; `string'
CONST	ENDS
;	COMDAT ??_C@_07ECNCNLIK@not?5PSD@
CONST	SEGMENT
??_C@_07ECNCNLIK@not?5PSD@ DB 'not PSD', 00H		; `string'
CONST	ENDS
;	COMDAT ??_C@_0M@ILLOCNCO@bad?5palette@
CONST	SEGMENT
??_C@_0M@ILLOCNCO@bad?5palette@ DB 'bad palette', 00H	; `string'
CONST	ENDS
;	COMDAT ??_C@_1CK@GOOINIO@?$AAt?$AAg?$AAa?$AA_?$AAc?$AAo?$AAm?$AAp?$AA?5?$AA?$DN?$AA?$DN?$AA?5?$AAS?$AAT?$AAB@
CONST	SEGMENT
??_C@_1CK@GOOINIO@?$AAt?$AAg?$AAa?$AA_?$AAc?$AAo?$AAm?$AAp?$AA?5?$AA?$DN?$AA?$DN?$AA?5?$AAS?$AAT?$AAB@ DB 't'
	DB	00H, 'g', 00H, 'a', 00H, '_', 00H, 'c', 00H, 'o', 00H, 'm', 00H
	DB	'p', 00H, ' ', 00H, '=', 00H, '=', 00H, ' ', 00H, 'S', 00H, 'T'
	DB	00H, 'B', 00H, 'I', 00H, '_', 00H, 'r', 00H, 'g', 00H, 'b', 00H
	DB	00H, 00H					; `string'
CONST	ENDS
;	COMDAT ??_C@_0L@DMAPJJO@bad?5format@
CONST	SEGMENT
??_C@_0L@DMAPJJO@bad?5format@ DB 'bad format', 00H	; `string'
CONST	ENDS
;	COMDAT ??_C@_09DAEBACAB@bad?5masks@
CONST	SEGMENT
??_C@_09DAEBACAB@bad?5masks@ DB 'bad masks', 00H	; `string'
CONST	ENDS
;	COMDAT ??_C@_07JNJHIMGH@bad?5bpp@
CONST	SEGMENT
??_C@_07JNJHIMGH@bad?5bpp@ DB 'bad bpp', 00H		; `string'
CONST	ENDS
;	COMDAT ??_C@_07MALOAKCI@invalid@
CONST	SEGMENT
??_C@_07MALOAKCI@invalid@ DB 'invalid', 00H		; `string'
CONST	ENDS
;	COMDAT ??_C@_07IMHMNOIB@BMP?5RLE@
CONST	SEGMENT
??_C@_07IMHMNOIB@BMP?5RLE@ DB 'BMP RLE', 00H		; `string'
CONST	ENDS
;	COMDAT ??_C@_07IEJCHBDI@bad?5BMP@
CONST	SEGMENT
??_C@_07IEJCHBDI@bad?5BMP@ DB 'bad BMP', 00H		; `string'
CONST	ENDS
;	COMDAT ??_C@_0M@KHBIBJBG@unknown?5BMP@
CONST	SEGMENT
??_C@_0M@KHBIBJBG@unknown?5BMP@ DB 'unknown BMP', 00H	; `string'
CONST	ENDS
;	COMDAT ??_C@_07IANEBNLB@not?5BMP@
CONST	SEGMENT
??_C@_07IANEBNLB@not?5BMP@ DB 'not BMP', 00H		; `string'
CONST	ENDS
;	COMDAT ??_C@_1CO@LIFEKNEP@?$AAb?$AAi?$AAt?$AAs?$AA?5?$AA?$DO?$AA?$DN?$AA?5?$AA0?$AA?5?$AA?$CG?$AA?$CG?$AA?5?$AAb?$AAi@
CONST	SEGMENT
??_C@_1CO@LIFEKNEP@?$AAb?$AAi?$AAt?$AAs?$AA?5?$AA?$DO?$AA?$DN?$AA?5?$AA0?$AA?5?$AA?$CG?$AA?$CG?$AA?5?$AAb?$AAi@ DB 'b'
	DB	00H, 'i', 00H, 't', 00H, 's', 00H, ' ', 00H, '>', 00H, '=', 00H
	DB	' ', 00H, '0', 00H, ' ', 00H, '&', 00H, '&', 00H, ' ', 00H, 'b'
	DB	00H, 'i', 00H, 't', 00H, 's', 00H, ' ', 00H, '<', 00H, '=', 00H
	DB	' ', 00H, '8', 00H, 00H, 00H			; `string'
CONST	ENDS
;	COMDAT ??_C@_1CE@LIEKLNBF@?$AAv?$AA?5?$AA?$DO?$AA?$DN?$AA?5?$AA0?$AA?5?$AA?$CG?$AA?$CG?$AA?5?$AAv?$AA?5?$AA?$DM?$AA?5?$AA2@
CONST	SEGMENT
??_C@_1CE@LIEKLNBF@?$AAv?$AA?5?$AA?$DO?$AA?$DN?$AA?5?$AA0?$AA?5?$AA?$CG?$AA?$CG?$AA?5?$AAv?$AA?5?$AA?$DM?$AA?5?$AA2@ DB 'v'
	DB	00H, ' ', 00H, '>', 00H, '=', 00H, ' ', 00H, '0', 00H, ' ', 00H
	DB	'&', 00H, '&', 00H, ' ', 00H, 'v', 00H, ' ', 00H, '<', 00H, ' '
	DB	00H, '2', 00H, '5', 00H, '6', 00H, 00H, 00H	; `string'
CONST	ENDS
;	COMDAT ??_C@_07MLPECBNA@no?5IDAT@
CONST	SEGMENT
??_C@_07MLPECBNA@no?5IDAT@ DB 'no IDAT', 00H		; `string'
CONST	ENDS
;	COMDAT ??_C@_09MNNCNKEO@outofdata@
CONST	SEGMENT
??_C@_09MNNCNKEO@outofdata@ DB 'outofdata', 00H		; `string'
CONST	ENDS
;	COMDAT ??_C@_07CKIELOEH@no?5PLTE@
CONST	SEGMENT
??_C@_07CKIELOEH@no?5PLTE@ DB 'no PLTE', 00H		; `string'
CONST	ENDS
;	COMDAT ??_C@_0BA@ENDPGCHB@tRNS?5with?5alpha@
CONST	SEGMENT
??_C@_0BA@ENDPGCHB@tRNS?5with?5alpha@ DB 'tRNS with alpha', 00H ; `string'
CONST	ENDS
;	COMDAT ??_C@_0N@KDLCCKCH@bad?5tRNS?5len@
CONST	SEGMENT
??_C@_0N@KDLCCKCH@bad?5tRNS?5len@ DB 'bad tRNS len', 00H ; `string'
CONST	ENDS
;	COMDAT ??_C@_0BB@CEDNNLBG@tRNS?5before?5PLTE@
CONST	SEGMENT
??_C@_0BB@CEDNNLBG@tRNS?5before?5PLTE@ DB 'tRNS before PLTE', 00H ; `string'
CONST	ENDS
;	COMDAT ??_C@_0BA@PCPJHDKJ@tRNS?5after?5IDAT@
CONST	SEGMENT
??_C@_0BA@PCPJHDKJ@tRNS?5after?5IDAT@ DB 'tRNS after IDAT', 00H ; `string'
CONST	ENDS
;	COMDAT ??_C@_0N@JCPAJAKB@invalid?5PLTE@
CONST	SEGMENT
??_C@_0N@JCPAJAKB@invalid?5PLTE@ DB 'invalid PLTE', 00H	; `string'
CONST	ENDS
;	COMDAT ??_C@_0P@JEAFOMAF@first?5not?5IHDR@
CONST	SEGMENT
??_C@_0P@JEAFOMAF@first?5not?5IHDR@ DB 'first not IHDR', 00H ; `string'
CONST	ENDS
;	COMDAT ??_C@_0O@FNFBHCOO@0?9pixel?5image@
CONST	SEGMENT
??_C@_0O@FNFBHCOO@0?9pixel?5image@ DB '0-pixel image', 00H ; `string'
CONST	ENDS
;	COMDAT ??_C@_0BF@JCGDPBAA@bad?5interlace?5method@
CONST	SEGMENT
??_C@_0BF@JCGDPBAA@bad?5interlace?5method@ DB 'bad interlace method', 00H ; `string'
CONST	ENDS
;	COMDAT ??_C@_0BC@GHLIKKMD@bad?5filter?5method@
CONST	SEGMENT
??_C@_0BC@GHLIKKMD@bad?5filter?5method@ DB 'bad filter method', 00H ; `string'
CONST	ENDS
;	COMDAT ??_C@_0BA@MDMBDDFG@bad?5comp?5method@
CONST	SEGMENT
??_C@_0BA@MDMBDDFG@bad?5comp?5method@ DB 'bad comp method', 00H ; `string'
CONST	ENDS
;	COMDAT ??_C@_09MBBNGCKB@bad?5ctype@
CONST	SEGMENT
??_C@_09MBBNGCKB@bad?5ctype@ DB 'bad ctype', 00H	; `string'
CONST	ENDS
;	COMDAT ??_C@_0BE@EJHIPKNO@1?12?14?18?116?9bit?5only@
CONST	SEGMENT
??_C@_0BE@EJHIPKNO@1?12?14?18?116?9bit?5only@ DB '1/2/4/8/16-bit only', 00H ; `string'
CONST	ENDS
;	COMDAT ??_C@_0N@POJLKMKK@bad?5IHDR?5len@
CONST	SEGMENT
??_C@_0N@POJLKMKK@bad?5IHDR?5len@ DB 'bad IHDR len', 00H ; `string'
CONST	ENDS
;	COMDAT ??_C@_0O@KBHBNJOK@multiple?5IHDR@
CONST	SEGMENT
??_C@_0O@KBHBNJOK@multiple?5IHDR@ DB 'multiple IHDR', 00H ; `string'
CONST	ENDS
;	COMDAT ??_C@_1CE@GKIDJEJM@?$AAs?$AA?9?$AA?$DO?$AAi?$AAm?$AAg?$AA_?$AAo?$AAu?$AAt?$AA_?$AAn?$AA?5?$AA?$DN?$AA?$DN@
CONST	SEGMENT
??_C@_1CE@GKIDJEJM@?$AAs?$AA?9?$AA?$DO?$AAi?$AAm?$AAg?$AA_?$AAo?$AAu?$AAt?$AA_?$AAn?$AA?5?$AA?$DN?$AA?$DN@ DB 's'
	DB	00H, '-', 00H, '>', 00H, 'i', 00H, 'm', 00H, 'g', 00H, '_', 00H
	DB	'o', 00H, 'u', 00H, 't', 00H, '_', 00H, 'n', 00H, ' ', 00H, '='
	DB	00H, '=', 00H, ' ', 00H, '4', 00H, 00H, 00H	; `string'
CONST	ENDS
;	COMDAT ??_C@_1DC@BMIDKOPK@?$AAo?$AAu?$AAt?$AA_?$AAn?$AA?5?$AA?$DN?$AA?$DN?$AA?5?$AA2?$AA?5?$AA?$HM?$AA?$HM?$AA?5?$AAo@
CONST	SEGMENT
??_C@_1DC@BMIDKOPK@?$AAo?$AAu?$AAt?$AA_?$AAn?$AA?5?$AA?$DN?$AA?$DN?$AA?5?$AA2?$AA?5?$AA?$HM?$AA?$HM?$AA?5?$AAo@ DB 'o'
	DB	00H, 'u', 00H, 't', 00H, '_', 00H, 'n', 00H, ' ', 00H, '=', 00H
	DB	'=', 00H, ' ', 00H, '2', 00H, ' ', 00H, '|', 00H, '|', 00H, ' '
	DB	00H, 'o', 00H, 'u', 00H, 't', 00H, '_', 00H, 'n', 00H, ' ', 00H
	DB	'=', 00H, '=', 00H, ' ', 00H, '4', 00H, 00H, 00H ; `string'
CONST	ENDS
;	COMDAT ??_C@_1BG@FLOPDKAN@?$AAi?$AAm?$AAg?$AA_?$AAn?$AA?5?$AA?$DN?$AA?$DN?$AA?5?$AA3@
CONST	SEGMENT
??_C@_1BG@FLOPDKAN@?$AAi?$AAm?$AAg?$AA_?$AAn?$AA?5?$AA?$DN?$AA?$DN?$AA?5?$AA3@ DB 'i'
	DB	00H, 'm', 00H, 'g', 00H, '_', 00H, 'n', 00H, ' ', 00H, '=', 00H
	DB	'=', 00H, ' ', 00H, '3', 00H, 00H, 00H	; `string'
CONST	ENDS
;	COMDAT ??_C@_1CG@MFAHHIFB@?$AAi?$AAm?$AAg?$AA_?$AAn?$AA?5?$AA?$CL?$AA?5?$AA1?$AA?5?$AA?$DN?$AA?$DN?$AA?5?$AAo?$AAu@
CONST	SEGMENT
??_C@_1CG@MFAHHIFB@?$AAi?$AAm?$AAg?$AA_?$AAn?$AA?5?$AA?$CL?$AA?5?$AA1?$AA?5?$AA?$DN?$AA?$DN?$AA?5?$AAo?$AAu@ DB 'i'
	DB	00H, 'm', 00H, 'g', 00H, '_', 00H, 'n', 00H, ' ', 00H, '+', 00H
	DB	' ', 00H, '1', 00H, ' ', 00H, '=', 00H, '=', 00H, ' ', 00H, 'o'
	DB	00H, 'u', 00H, 't', 00H, '_', 00H, 'n', 00H, 00H, 00H ; `string'
CONST	ENDS
;	COMDAT ??_C@_1CK@EJKIMPDL@?$AAi?$AAm?$AAg?$AA_?$AAw?$AAi?$AAd?$AAt?$AAh?$AA_?$AAb?$AAy?$AAt?$AAe?$AAs@
CONST	SEGMENT
??_C@_1CK@EJKIMPDL@?$AAi?$AAm?$AAg?$AA_?$AAw?$AAi?$AAd?$AAt?$AAh?$AA_?$AAb?$AAy?$AAt?$AAe?$AAs@ DB 'i'
	DB	00H, 'm', 00H, 'g', 00H, '_', 00H, 'w', 00H, 'i', 00H, 'd', 00H
	DB	't', 00H, 'h', 00H, '_', 00H, 'b', 00H, 'y', 00H, 't', 00H, 'e'
	DB	00H, 's', 00H, ' ', 00H, '<', 00H, '=', 00H, ' ', 00H, 'x', 00H
	DB	00H, 00H					; `string'
CONST	ENDS
;	COMDAT ??_C@_0P@FBBCPGMN@invalid?5filter@
CONST	SEGMENT
??_C@_0P@FBBCPGMN@invalid?5filter@ DB 'invalid filter', 00H ; `string'
CONST	ENDS
;	COMDAT ??_C@_0BC@BHMPBBMG@not?5enough?5pixels@
CONST	SEGMENT
??_C@_0BC@BHMPBBMG@not?5enough?5pixels@ DB 'not enough pixels', 00H ; `string'
CONST	ENDS
;	COMDAT ??_C@_1FG@LGPEHEPM@?$AAo?$AAu?$AAt?$AA_?$AAn?$AA?5?$AA?$DN?$AA?$DN?$AA?5?$AAs?$AA?9?$AA?$DO?$AAi?$AAm?$AAg@
CONST	SEGMENT
??_C@_1FG@LGPEHEPM@?$AAo?$AAu?$AAt?$AA_?$AAn?$AA?5?$AA?$DN?$AA?$DN?$AA?5?$AAs?$AA?9?$AA?$DO?$AAi?$AAm?$AAg@ DB 'o'
	DB	00H, 'u', 00H, 't', 00H, '_', 00H, 'n', 00H, ' ', 00H, '=', 00H
	DB	'=', 00H, ' ', 00H, 's', 00H, '-', 00H, '>', 00H, 'i', 00H, 'm'
	DB	00H, 'g', 00H, '_', 00H, 'n', 00H, ' ', 00H, '|', 00H, '|', 00H
	DB	' ', 00H, 'o', 00H, 'u', 00H, 't', 00H, '_', 00H, 'n', 00H, ' '
	DB	00H, '=', 00H, '=', 00H, ' ', 00H, 's', 00H, '-', 00H, '>', 00H
	DB	'i', 00H, 'm', 00H, 'g', 00H, '_', 00H, 'n', 00H, ' ', 00H, '+'
	DB	00H, ' ', 00H, '1', 00H, 00H, 00H		; `string'
CONST	ENDS
;	COMDAT ??_C@_0M@DMDNBACF@bad?5png?5sig@
CONST	SEGMENT
??_C@_0M@DMDNBACF@bad?5png?5sig@ DB 'bad png sig', 00H	; `string'
CONST	ENDS
;	COMDAT ??_C@_0BA@MCNBDLPD@bad?5compression@
CONST	SEGMENT
??_C@_0BA@MCNBDLPD@bad?5compression@ DB 'bad compression', 00H ; `string'
CONST	ENDS
;	COMDAT ??_C@_0P@DOGMHEBI@no?5preset?5dict@
CONST	SEGMENT
??_C@_0P@DOGMHEBI@no?5preset?5dict@ DB 'no preset dict', 00H ; `string'
CONST	ENDS
;	COMDAT ??_C@_0BA@OBKOPAFL@bad?5zlib?5header@
CONST	SEGMENT
??_C@_0BA@OBKOPAFL@bad?5zlib?5header@ DB 'bad zlib header', 00H ; `string'
CONST	ENDS
;	COMDAT ??_C@_0BB@PIPBCKIA@read?5past?5buffer@
CONST	SEGMENT
??_C@_0BB@PIPBCKIA@read?5past?5buffer@ DB 'read past buffer', 00H ; `string'
CONST	ENDS
;	COMDAT ??_C@_0N@IECDHMDI@zlib?5corrupt@
CONST	SEGMENT
??_C@_0N@IECDHMDI@zlib?5corrupt@ DB 'zlib corrupt', 00H	; `string'
CONST	ENDS
;	COMDAT ??_C@_1CC@BHGGCLFF@?$AAa?$AA?9?$AA?$DO?$AAn?$AAu?$AAm?$AA_?$AAb?$AAi?$AAt?$AAs?$AA?5?$AA?$DN?$AA?$DN?$AA?5@
CONST	SEGMENT
??_C@_1CC@BHGGCLFF@?$AAa?$AA?9?$AA?$DO?$AAn?$AAu?$AAm?$AA_?$AAb?$AAi?$AAt?$AAs?$AA?5?$AA?$DN?$AA?$DN?$AA?5@ DB 'a'
	DB	00H, '-', 00H, '>', 00H, 'n', 00H, 'u', 00H, 'm', 00H, '_', 00H
	DB	'b', 00H, 'i', 00H, 't', 00H, 's', 00H, ' ', 00H, '=', 00H, '='
	DB	00H, ' ', 00H, '0', 00H, 00H, 00H		; `string'
CONST	ENDS
;	COMDAT ??_C@_1BA@NKONKNHF@?$AAc?$AA?5?$AA?$DN?$AA?$DN?$AA?5?$AA1?$AA8@
CONST	SEGMENT
??_C@_1BA@NKONKNHF@?$AAc?$AA?5?$AA?$DN?$AA?$DN?$AA?5?$AA1?$AA8@ DB 'c', 00H
	DB	' ', 00H, '=', 00H, '=', 00H, ' ', 00H, '1', 00H, '8', 00H, 00H
	DB	00H						; `string'
CONST	ENDS
;	COMDAT ??_C@_08DIAPIMGJ@bad?5dist@
CONST	SEGMENT
??_C@_08DIAPIMGJ@bad?5dist@ DB 'bad dist', 00H		; `string'
CONST	ENDS
;	COMDAT ??_C@_0BE@IBFIPFO@output?5buffer?5limit@
CONST	SEGMENT
??_C@_0BE@IBFIPFO@output?5buffer?5limit@ DB 'output buffer limit', 00H ; `string'
CONST	ENDS
;	COMDAT ??_C@_1CA@BMLMNMFI@?$AAz?$AA?9?$AA?$DO?$AAs?$AAi?$AAz?$AAe?$AA?$FL?$AAb?$AA?$FN?$AA?5?$AA?$DN?$AA?$DN?$AA?5?$AAs@
CONST	SEGMENT
??_C@_1CA@BMLMNMFI@?$AAz?$AA?9?$AA?$DO?$AAs?$AAi?$AAz?$AAe?$AA?$FL?$AAb?$AA?$FN?$AA?5?$AA?$DN?$AA?$DN?$AA?5?$AAs@ DB 'z'
	DB	00H, '-', 00H, '>', 00H, 's', 00H, 'i', 00H, 'z', 00H, 'e', 00H
	DB	'[', 00H, 'b', 00H, ']', 00H, ' ', 00H, '=', 00H, '=', 00H, ' '
	DB	00H, 's', 00H, 00H, 00H			; `string'
CONST	ENDS
;	COMDAT ??_C@_1EK@GAHNONBJ@?$AAz?$AA?9?$AA?$DO?$AAc?$AAo?$AAd?$AAe?$AA_?$AAb?$AAu?$AAf?$AAf?$AAe?$AAr?$AA?5@
CONST	SEGMENT
??_C@_1EK@GAHNONBJ@?$AAz?$AA?9?$AA?$DO?$AAc?$AAo?$AAd?$AAe?$AA_?$AAb?$AAu?$AAf?$AAf?$AAe?$AAr?$AA?5@ DB 'z'
	DB	00H, '-', 00H, '>', 00H, 'c', 00H, 'o', 00H, 'd', 00H, 'e', 00H
	DB	'_', 00H, 'b', 00H, 'u', 00H, 'f', 00H, 'f', 00H, 'e', 00H, 'r'
	DB	00H, ' ', 00H, '<', 00H, ' ', 00H, '(', 00H, '1', 00H, 'U', 00H
	DB	' ', 00H, '<', 00H, '<', 00H, ' ', 00H, 'z', 00H, '-', 00H, '>'
	DB	00H, 'n', 00H, 'u', 00H, 'm', 00H, '_', 00H, 'b', 00H, 'i', 00H
	DB	't', 00H, 's', 00H, ')', 00H, 00H, 00H	; `string'
CONST	ENDS
;	COMDAT ??_C@_0BA@MDNKOBMC@bad?5codelengths@
CONST	SEGMENT
??_C@_0BA@MDNKOBMC@bad?5codelengths@ DB 'bad codelengths', 00H ; `string'
CONST	ENDS
;	COMDAT ??_C@_09EOHLEIKL@bad?5sizes@
CONST	SEGMENT
??_C@_09EOHLEIKL@bad?5sizes@ DB 'bad sizes', 00H	; `string'
CONST	ENDS
;	COMDAT ??_C@_1BG@HKNLHECB@?$AAb?$AAi?$AAt?$AAs?$AA?5?$AA?$DM?$AA?$DN?$AA?5?$AA1?$AA6@
CONST	SEGMENT
??_C@_1BG@HKNLHECB@?$AAb?$AAi?$AAt?$AAs?$AA?5?$AA?$DM?$AA?$DN?$AA?5?$AA1?$AA6@ DB 'b'
	DB	00H, 'i', 00H, 't', 00H, 's', 00H, ' ', 00H, '<', 00H, '=', 00H
	DB	' ', 00H, '1', 00H, '6', 00H, 00H, 00H	; `string'
CONST	ENDS
;	COMDAT ??_C@_0N@KBPNPPBJ@bad?5req_comp@
CONST	SEGMENT
??_C@_0N@KBPNPPBJ@bad?5req_comp@ DB 'bad req_comp', 00H	; `string'
CONST	ENDS
;	COMDAT ??_C@_0P@PNCLKCLJ@bad?5DNL?5height@
CONST	SEGMENT
??_C@_0P@PNCLKCLJ@bad?5DNL?5height@ DB 'bad DNL height', 00H ; `string'
CONST	ENDS
;	COMDAT ??_C@_0M@EPMOIECP@bad?5DNL?5len@
CONST	SEGMENT
??_C@_0M@EPMOIECP@bad?5DNL?5len@ DB 'bad DNL len', 00H	; `string'
CONST	ENDS
;	COMDAT ??_C@_06IFCEAHIA@no?5SOF@
CONST	SEGMENT
??_C@_06IFCEAHIA@no?5SOF@ DB 'no SOF', 00H		; `string'
CONST	ENDS
;	COMDAT ??_C@_06CLMBLEP@no?5SOI@
CONST	SEGMENT
??_C@_06CLMBLEP@no?5SOI@ DB 'no SOI', 00H		; `string'
CONST	ENDS
;	COMDAT ??_C@_09OJDLMMBJ@too?5large@
CONST	SEGMENT
??_C@_09OJDLMMBJ@too?5large@ DB 'too large', 00H	; `string'
CONST	ENDS
;	COMDAT ??_C@_06LJIHDFHI@bad?5TQ@
CONST	SEGMENT
??_C@_06LJIHDFHI@bad?5TQ@ DB 'bad TQ', 00H		; `string'
CONST	ENDS
;	COMDAT ??_C@_05MPLLHCJG@bad?5V@
CONST	SEGMENT
??_C@_05MPLLHCJG@bad?5V@ DB 'bad V', 00H		; `string'
CONST	ENDS
;	COMDAT ??_C@_05BLPKENEJ@bad?5H@
CONST	SEGMENT
??_C@_05BLPKENEJ@bad?5H@ DB 'bad H', 00H		; `string'
CONST	ENDS
;	COMDAT ??_C@_0BE@DAPHADHL@bad?5component?5count@
CONST	SEGMENT
??_C@_0BE@DAPHADHL@bad?5component?5count@ DB 'bad component count', 00H ; `string'
CONST	ENDS
;	COMDAT ??_C@_07BIDACDEF@0?5width@
CONST	SEGMENT
??_C@_07BIDACDEF@0?5width@ DB '0 width', 00H		; `string'
CONST	ENDS
;	COMDAT ??_C@_0BB@LNEGOMA@no?5header?5height@
CONST	SEGMENT
??_C@_0BB@LNEGOMA@no?5header?5height@ DB 'no header height', 00H ; `string'
CONST	ENDS
;	COMDAT ??_C@_0L@BCINMEBJ@only?58?9bit@
CONST	SEGMENT
??_C@_0L@BCINMEBJ@only?58?9bit@ DB 'only 8-bit', 00H	; `string'
CONST	ENDS
;	COMDAT ??_C@_0M@DOFMJEMP@bad?5SOF?5len@
CONST	SEGMENT
??_C@_0M@DOFMJEMP@bad?5SOF?5len@ DB 'bad SOF len', 00H	; `string'
CONST	ENDS
;	COMDAT ??_C@_07EEJOMGGP@bad?5SOS@
CONST	SEGMENT
??_C@_07EEJOMGGP@bad?5SOS@ DB 'bad SOS', 00H		; `string'
CONST	ENDS
;	COMDAT ??_C@_0M@JGMCBLGG@bad?5AC?5huff@
CONST	SEGMENT
??_C@_0M@JGMCBLGG@bad?5AC?5huff@ DB 'bad AC huff', 00H	; `string'
CONST	ENDS
;	COMDAT ??_C@_0M@NOCCBFAC@bad?5DC?5huff@
CONST	SEGMENT
??_C@_0M@NOCCBFAC@bad?5DC?5huff@ DB 'bad DC huff', 00H	; `string'
CONST	ENDS
;	COMDAT ??_C@_0M@GNEHAHOH@bad?5SOS?5len@
CONST	SEGMENT
??_C@_0M@GNEHAHOH@bad?5SOS?5len@ DB 'bad SOS len', 00H	; `string'
CONST	ENDS
;	COMDAT ??_C@_0BI@DHFJCMBA@bad?5SOS?5component?5count@
CONST	SEGMENT
??_C@_0BI@DHFJCMBA@bad?5SOS?5component?5count@ DB 'bad SOS component coun'
	DB	't', 00H					; `string'
CONST	ENDS
;	COMDAT ??_C@_0P@NNGPHMMK@unknown?5marker@
CONST	SEGMENT
??_C@_0P@NNGPHMMK@unknown?5marker@ DB 'unknown marker', 00H ; `string'
CONST	ENDS
;	COMDAT ??_C@_0M@EENLKPDI@bad?5APP?5len@
CONST	SEGMENT
??_C@_0M@EENLKPDI@bad?5APP?5len@ DB 'bad APP len', 00H	; `string'
CONST	ENDS
;	COMDAT ??_C@_0M@CICAFFCH@bad?5COM?5len@
CONST	SEGMENT
??_C@_0M@CICAFFCH@bad?5COM?5len@ DB 'bad COM len', 00H	; `string'
CONST	ENDS
;	COMDAT ??_C@_0P@JLGKOCGN@bad?5DHT?5header@
CONST	SEGMENT
??_C@_0P@JLGKOCGN@bad?5DHT?5header@ DB 'bad DHT header', 00H ; `string'
CONST	ENDS
;	COMDAT ??_C@_0O@CNHKKDIM@bad?5DQT?5table@
CONST	SEGMENT
??_C@_0O@CNHKKDIM@bad?5DQT?5table@ DB 'bad DQT table', 00H ; `string'
CONST	ENDS
;	COMDAT ??_C@_0N@BOFJCHAP@bad?5DQT?5type@
CONST	SEGMENT
??_C@_0N@BOFJCHAP@bad?5DQT?5type@ DB 'bad DQT type', 00H ; `string'
CONST	ENDS
;	COMDAT ??_C@_0M@LPHNODCG@bad?5DRI?5len@
CONST	SEGMENT
??_C@_0M@LPHNODCG@bad?5DRI?5len@ DB 'bad DRI len', 00H	; `string'
CONST	ENDS
;	COMDAT ??_C@_0BA@KLNDOKJD@expected?5marker@
CONST	SEGMENT
??_C@_0BA@KLNDOKJD@expected?5marker@ DB 'expected marker', 00H ; `string'
CONST	ENDS
;	COMDAT ??_C@_0BG@PJBJDAGM@can?8t?5merge?5dc?5and?5ac@
CONST	SEGMENT
??_C@_0BG@PJBJDAGM@can?8t?5merge?5dc?5and?5ac@ DB 'can''t merge dc and ac'
	DB	00H						; `string'
CONST	ENDS
;	COMDAT ??_C@_0BB@IIMLINA@bad?5huffman?5code@
CONST	SEGMENT
??_C@_0BB@IIMLINA@bad?5huffman?5code@ DB 'bad huffman code', 00H ; `string'
CONST	ENDS
;	COMDAT ??_C@_1IA@IKCMGFNK@?$AAn?$AA?5?$AA?$DO?$AA?$DN?$AA?5?$AA0?$AA?5?$AA?$CG?$AA?$CG?$AA?5?$AAn?$AA?5?$AA?$DM?$AA?5?$AA?$CI@
CONST	SEGMENT
??_C@_1IA@IKCMGFNK@?$AAn?$AA?5?$AA?$DO?$AA?$DN?$AA?5?$AA0?$AA?5?$AA?$CG?$AA?$CG?$AA?5?$AAn?$AA?5?$AA?$DM?$AA?5?$AA?$CI@ DB 'n'
	DB	00H, ' ', 00H, '>', 00H, '=', 00H, ' ', 00H, '0', 00H, ' ', 00H
	DB	'&', 00H, '&', 00H, ' ', 00H, 'n', 00H, ' ', 00H, '<', 00H, ' '
	DB	00H, '(', 00H, 'i', 00H, 'n', 00H, 't', 00H, ')', 00H, '(', 00H
	DB	's', 00H, 'i', 00H, 'z', 00H, 'e', 00H, 'o', 00H, 'f', 00H, '('
	DB	00H, 's', 00H, 't', 00H, 'b', 00H, 'i', 00H, '_', 00H, '_', 00H
	DB	'b', 00H, 'm', 00H, 'a', 00H, 's', 00H, 'k', 00H, ')', 00H, ' '
	DB	00H, '/', 00H, ' ', 00H, 's', 00H, 'i', 00H, 'z', 00H, 'e', 00H
	DB	'o', 00H, 'f', 00H, '(', 00H, '*', 00H, 's', 00H, 't', 00H, 'b'
	DB	00H, 'i', 00H, '_', 00H, '_', 00H, 'b', 00H, 'm', 00H, 'a', 00H
	DB	's', 00H, 'k', 00H, ')', 00H, ')', 00H, 00H, 00H ; `string'
CONST	ENDS
;	COMDAT ??_C@_1KE@JGKPJEBO@?$AA?$CI?$AA?$CI?$AA?$CI?$AAj?$AA?9?$AA?$DO?$AAc?$AAo?$AAd?$AAe?$AA_?$AAb?$AAu?$AAf?$AAf@
CONST	SEGMENT
??_C@_1KE@JGKPJEBO@?$AA?$CI?$AA?$CI?$AA?$CI?$AAj?$AA?9?$AA?$DO?$AAc?$AAo?$AAd?$AAe?$AA_?$AAb?$AAu?$AAf?$AAf@ DB '('
	DB	00H, '(', 00H, '(', 00H, 'j', 00H, '-', 00H, '>', 00H, 'c', 00H
	DB	'o', 00H, 'd', 00H, 'e', 00H, '_', 00H, 'b', 00H, 'u', 00H, 'f'
	DB	00H, 'f', 00H, 'e', 00H, 'r', 00H, ')', 00H, ' ', 00H, '>', 00H
	DB	'>', 00H, ' ', 00H, '(', 00H, '3', 00H, '2', 00H, ' ', 00H, '-'
	DB	00H, ' ', 00H, 'h', 00H, '-', 00H, '>', 00H, 's', 00H, 'i', 00H
	DB	'z', 00H, 'e', 00H, '[', 00H, 'c', 00H, ']', 00H, ')', 00H, ')'
	DB	00H, ' ', 00H, '&', 00H, ' ', 00H, 's', 00H, 't', 00H, 'b', 00H
	DB	'i', 00H, '_', 00H, '_', 00H, 'b', 00H, 'm', 00H, 'a', 00H, 's'
	DB	00H, 'k', 00H, '[', 00H, 'h', 00H, '-', 00H, '>', 00H, 's', 00H
	DB	'i', 00H, 'z', 00H, 'e', 00H, '[', 00H, 'c', 00H, ']', 00H, ']'
	DB	00H, ')', 00H, ' ', 00H, '=', 00H, '=', 00H, ' ', 00H, 'h', 00H
	DB	'-', 00H, '>', 00H, 'c', 00H, 'o', 00H, 'd', 00H, 'e', 00H, '['
	DB	00H, 'c', 00H, ']', 00H, 00H, 00H		; `string'
CONST	ENDS
;	COMDAT ??_C@_0BB@FOKGPEKG@bad?5code?5lengths@
CONST	SEGMENT
??_C@_0BB@FOKGPEKG@bad?5code?5lengths@ DB 'bad code lengths', 00H ; `string'
CONST	ENDS
;	COMDAT ??_C@_13COJANIEC@?$AA0@
CONST	SEGMENT
??_C@_13COJANIEC@?$AA0@ DB '0', 00H, 00H, 00H		; `string'
CONST	ENDS
;	COMDAT ??_C@_1DO@MABJBNAJ@?$AAr?$AAe?$AAq?$AA_?$AAc?$AAo?$AAm?$AAp?$AA?5?$AA?$DO?$AA?$DN?$AA?5?$AA1?$AA?5?$AA?$CG@
CONST	SEGMENT
??_C@_1DO@MABJBNAJ@?$AAr?$AAe?$AAq?$AA_?$AAc?$AAo?$AAm?$AAp?$AA?5?$AA?$DO?$AA?$DN?$AA?5?$AA1?$AA?5?$AA?$CG@ DB 'r'
	DB	00H, 'e', 00H, 'q', 00H, '_', 00H, 'c', 00H, 'o', 00H, 'm', 00H
	DB	'p', 00H, ' ', 00H, '>', 00H, '=', 00H, ' ', 00H, '1', 00H, ' '
	DB	00H, '&', 00H, '&', 00H, ' ', 00H, 'r', 00H, 'e', 00H, 'q', 00H
	DB	'_', 00H, 'c', 00H, 'o', 00H, 'm', 00H, 'p', 00H, ' ', 00H, '<'
	DB	00H, '=', 00H, ' ', 00H, '4', 00H, 00H, 00H	; `string'
CONST	ENDS
;	COMDAT ??_C@_0M@JPDHFAGK@can?8t?5fopen@
CONST	SEGMENT
??_C@_0M@JPDHFAGK@can?8t?5fopen@ DB 'can''t fopen', 00H	; `string'
CONST	ENDS
;	COMDAT ??_C@_02JDPG@rb@
CONST	SEGMENT
??_C@_02JDPG@rb@ DB 'rb', 00H				; `string'
CONST	ENDS
;	COMDAT ??_C@_1DC@NDPEGMEG@?$AAr?$AAi?$AA?4?$AAb?$AAi?$AAt?$AAs?$AA_?$AAp?$AAe?$AAr?$AA_?$AAc?$AAh?$AAa@
CONST	SEGMENT
??_C@_1DC@NDPEGMEG@?$AAr?$AAi?$AA?4?$AAb?$AAi?$AAt?$AAs?$AA_?$AAp?$AAe?$AAr?$AA_?$AAc?$AAh?$AAa@ DB 'r'
	DB	00H, 'i', 00H, '.', 00H, 'b', 00H, 'i', 00H, 't', 00H, 's', 00H
	DB	'_', 00H, 'p', 00H, 'e', 00H, 'r', 00H, '_', 00H, 'c', 00H, 'h'
	DB	00H, 'a', 00H, 'n', 00H, 'n', 00H, 'e', 00H, 'l', 00H, ' ', 00H
	DB	'=', 00H, '=', 00H, ' ', 00H, '8', 00H, 00H, 00H ; `string'
CONST	ENDS
;	COMDAT ??_C@_1DE@BAGIOALB@?$AAr?$AAi?$AA?4?$AAb?$AAi?$AAt?$AAs?$AA_?$AAp?$AAe?$AAr?$AA_?$AAc?$AAh?$AAa@
CONST	SEGMENT
??_C@_1DE@BAGIOALB@?$AAr?$AAi?$AA?4?$AAb?$AAi?$AAt?$AAs?$AA_?$AAp?$AAe?$AAr?$AA_?$AAc?$AAh?$AAa@ DB 'r'
	DB	00H, 'i', 00H, '.', 00H, 'b', 00H, 'i', 00H, 't', 00H, 's', 00H
	DB	'_', 00H, 'p', 00H, 'e', 00H, 'r', 00H, '_', 00H, 'c', 00H, 'h'
	DB	00H, 'a', 00H, 'n', 00H, 'n', 00H, 'e', 00H, 'l', 00H, ' ', 00H
	DB	'=', 00H, '=', 00H, ' ', 00H, '1', 00H, '6', 00H, 00H, 00H ; `string'
CONST	ENDS
;	COMDAT ??_C@_1BFK@ENAMFAGH@?$AAD?$AA?3?$AA?2?$AAP?$AAl?$AAa?$AAt?$AAf?$AAo?$AAr?$AAm?$AAe?$AAr?$AA?2?$AAC@
CONST	SEGMENT
??_C@_1BFK@ENAMFAGH@?$AAD?$AA?3?$AA?2?$AAP?$AAl?$AAa?$AAt?$AAf?$AAo?$AAr?$AAm?$AAe?$AAr?$AA?2?$AAC@ DB 'D'
	DB	00H, ':', 00H, '\', 00H, 'P', 00H, 'l', 00H, 'a', 00H, 't', 00H
	DB	'f', 00H, 'o', 00H, 'r', 00H, 'm', 00H, 'e', 00H, 'r', 00H, '\'
	DB	00H, 'C', 00H, 'P', 00H, 'P', 00H, 'G', 00H, 'a', 00H, 'm', 00H
	DB	'e', 00H, '-', 00H, 'a', 00H, '3', 00H, '8', 00H, 'd', 00H, '0'
	DB	00H, 'd', 00H, 'b', 00H, '7', 00H, '2', 00H, '6', 00H, 'a', 00H
	DB	'b', 00H, '2', 00H, 'f', 00H, 'f', 00H, '8', 00H, '9', 00H, 'a'
	DB	00H, 'f', 00H, 'd', 00H, 'd', 00H, '0', 00H, '2', 00H, 'c', 00H
	DB	'1', 00H, '8', 00H, '3', 00H, '9', 00H, '4', 00H, 'b', 00H, 'd'
	DB	00H, '0', 00H, 'c', 00H, '5', 00H, '8', 00H, '3', 00H, '4', 00H
	DB	'0', 00H, 'c', 00H, '9', 00H, '\', 00H, 'C', 00H, 'P', 00H, 'P'
	DB	00H, 'G', 00H, 'a', 00H, 'm', 00H, 'e', 00H, '-', 00H, 'a', 00H
	DB	'3', 00H, '8', 00H, 'd', 00H, '0', 00H, 'd', 00H, 'b', 00H, '7'
	DB	00H, '2', 00H, '6', 00H, 'a', 00H, 'b', 00H, '2', 00H, 'f', 00H
	DB	'f', 00H, '8', 00H, '9', 00H, 'a', 00H, 'f', 00H, 'd', 00H, 'd'
	DB	00H, '0', 00H, '2', 00H, 'c', 00H, '1', 00H, '8', 00H, '3', 00H
	DB	'9', 00H, '4', 00H, 'b', 00H, 'd', 00H, '0', 00H, 'c', 00H, '5'
	DB	00H, '8', 00H, '3', 00H, '4', 00H, '0', 00H, 'c', 00H, '9', 00H
	DB	'\', 00H, 'P', 00H, 'l', 00H, 'a', 00H, 't', 00H, 'f', 00H, 'o'
	DB	00H, 'r', 00H, 'm', 00H, 'e', 00H, 'r', 00H, 'G', 00H, 'a', 00H
	DB	'm', 00H, 'e', 00H, '\', 00H, 's', 00H, 'r', 00H, 'c', 00H, '\'
	DB	00H, 'G', 00H, 'a', 00H, 'm', 00H, 'e', 00H, 'E', 00H, 'n', 00H
	DB	'g', 00H, 'i', 00H, 'n', 00H, 'e', 00H, '\', 00H, 'H', 00H, 'e'
	DB	00H, 'a', 00H, 'd', 00H, 'e', 00H, 'r', 00H, 'F', 00H, 'i', 00H
	DB	'l', 00H, 'e', 00H, 's', 00H, '\', 00H, 'V', 00H, 'e', 00H, 'n'
	DB	00H, 'd', 00H, 'o', 00H, 'r', 00H, '\', 00H, 's', 00H, 't', 00H
	DB	'b', 00H, '_', 00H, 'i', 00H, 'm', 00H, 'a', 00H, 'g', 00H, 'e'
	DB	00H, '.', 00H, 'h', 00H, 00H, 00H		; `string'
CONST	ENDS
;	COMDAT ??_C@_08NOGIMCHF@outofmem@
CONST	SEGMENT
??_C@_08NOGIMCHF@outofmem@ DB 'outofmem', 00H		; `string'
CONST	ENDS
;	COMDAT ??_C@_0BD@CBEDEJPH@unknown?5image?5type@
CONST	SEGMENT
??_C@_0BD@CBEDEJPH@unknown?5image?5type@ DB 'unknown image type', 00H ; `string'
CONST	ENDS
;	COMDAT ?shift_table@?1??stbi__shiftsigned@@YAHIHH@Z@4PAIA
CONST	SEGMENT
?shift_table@?1??stbi__shiftsigned@@YAHIHH@Z@4PAIA DD 00H ; `stbi__shiftsigned'::`2'::shift_table
	DD	00H
	DD	00H
	DD	01H
	DD	00H
	DD	02H
	DD	04H
	DD	06H
	DD	00H
CONST	ENDS
;	COMDAT ?invalid_chunk@?JH@??stbi__parse_png_file@@YAHPAUstbi__png@@HH@Z@4PADA
_DATA	SEGMENT
?invalid_chunk@?JH@??stbi__parse_png_file@@YAHPAUstbi__png@@HH@Z@4PADA DB 'X'
	DB	'XXX PNG chunk not known', 00H		; `stbi__parse_png_file'::`151'::invalid_chunk
_DATA	ENDS
;	COMDAT ?length_dezigzag@?1??stbi__compute_huffman_codes@@YAHPAUstbi__zbuf@@@Z@4QBEB
CONST	SEGMENT
?length_dezigzag@?1??stbi__compute_huffman_codes@@YAHPAUstbi__zbuf@@@Z@4QBEB DB 010H ; `stbi__compute_huffman_codes'::`2'::length_dezigzag
	DB	011H
	DB	012H
	DB	00H
	DB	08H
	DB	07H
	DB	09H
	DB	06H
	DB	0aH
	DB	05H
	DB	0bH
	DB	04H
	DB	0cH
	DB	03H
	DB	0dH
	DB	02H
	DB	0eH
	DB	01H
	DB	0fH
CONST	ENDS
;	COMDAT ?rgb@?BC@??stbi__process_frame_header@@YAHPAUstbi__jpeg@@H@Z@4QBEB
CONST	SEGMENT
?rgb@?BC@??stbi__process_frame_header@@YAHPAUstbi__jpeg@@H@Z@4QBEB DB 052H ; `stbi__process_frame_header'::`18'::rgb
	DB	047H
	DB	042H
CONST	ENDS
;	COMDAT ?png_sig@?1??stbi__check_png_header@@YAHPAUstbi__context@@@Z@4QBEB
CONST	SEGMENT
?png_sig@?1??stbi__check_png_header@@YAHPAUstbi__context@@@Z@4QBEB DB 089H ; `stbi__check_png_header'::`2'::png_sig
	DB	050H
	DB	04eH
	DB	047H
	DB	0dH
	DB	0aH
	DB	01aH
	DB	0aH
CONST	ENDS
;	COMDAT ?mul_table@?1??stbi__shiftsigned@@YAHIHH@Z@4PAIA
CONST	SEGMENT
?mul_table@?1??stbi__shiftsigned@@YAHIHH@Z@4PAIA DD 00H	; `stbi__shiftsigned'::`2'::mul_table
	DD	0ffH
	DD	055H
	DD	049H
	DD	011H
	DD	021H
	DD	041H
	DD	081H
	DD	01H
CONST	ENDS
;	COMDAT ?tag@?DE@??stbi__process_marker@@YAHPAUstbi__jpeg@@H@Z@4QBEB
CONST	SEGMENT
?tag@?DE@??stbi__process_marker@@YAHPAUstbi__jpeg@@H@Z@4QBEB DB 041H ; `stbi__process_marker'::`52'::tag
	DB	064H
	DB	06fH
	DB	062H
	DB	065H
	DB	00H
CONST	ENDS
;	COMDAT ?tag@?CL@??stbi__process_marker@@YAHPAUstbi__jpeg@@H@Z@4QBEB
CONST	SEGMENT
?tag@?CL@??stbi__process_marker@@YAHPAUstbi__jpeg@@H@Z@4QBEB DB 04aH ; `stbi__process_marker'::`43'::tag
	DB	046H
	DB	049H
	DB	046H
	DB	00H
?stbi__depth_scale_table@@3QBEB DB 00H			; stbi__depth_scale_table
	DB	0ffH
	DB	055H
	DB	00H
	DB	011H
	DB	00H
	DB	00H
	DB	00H
	DB	01H
?stbi__jbias@@3QBHB DD 00H				; stbi__jbias
	DD	0ffffffffH
	DD	0fffffffdH
	DD	0fffffff9H
	DD	0fffffff1H
	DD	0ffffffe1H
	DD	0ffffffc1H
	DD	0ffffff81H
	DD	0ffffff01H
	DD	0fffffe01H
	DD	0fffffc01H
	DD	0fffff801H
	DD	0fffff001H
	DD	0ffffe001H
	DD	0ffffc001H
	DD	0ffff8001H
?stbi__zdefault_length@@3QBEB DB 08H			; stbi__zdefault_length
	DB	08H
	DB	08H
	DB	08H
	DB	08H
	DB	08H
	DB	08H
	DB	08H
	DB	08H
	DB	08H
	DB	08H
	DB	08H
	DB	08H
	DB	08H
	DB	08H
	DB	08H
	DB	08H
	DB	08H
	DB	08H
	DB	08H
	DB	08H
	DB	08H
	DB	08H
	DB	08H
	DB	08H
	DB	08H
	DB	08H
	DB	08H
	DB	08H
	DB	08H
	DB	08H
	DB	08H
	DB	08H
	DB	08H
	DB	08H
	DB	08H
	DB	08H
	DB	08H
	DB	08H
	DB	08H
	DB	08H
	DB	08H
	DB	08H
	DB	08H
	DB	08H
	DB	08H
	DB	08H
	DB	08H
	DB	08H
	DB	08H
	DB	08H
	DB	08H
	DB	08H
	DB	08H
	DB	08H
	DB	08H
	DB	08H
	DB	08H
	DB	08H
	DB	08H
	DB	08H
	DB	08H
	DB	08H
	DB	08H
	DB	08H
	DB	08H
	DB	08H
	DB	08H
	DB	08H
	DB	08H
	DB	08H
	DB	08H
	DB	08H
	DB	08H
	DB	08H
	DB	08H
	DB	08H
	DB	08H
	DB	08H
	DB	08H
	DB	08H
	DB	08H
	DB	08H
	DB	08H
	DB	08H
	DB	08H
	DB	08H
	DB	08H
	DB	08H
	DB	08H
	DB	08H
	DB	08H
	DB	08H
	DB	08H
	DB	08H
	DB	08H
	DB	08H
	DB	08H
	DB	08H
	DB	08H
	DB	08H
	DB	08H
	DB	08H
	DB	08H
	DB	08H
	DB	08H
	DB	08H
	DB	08H
	DB	08H
	DB	08H
	DB	08H
	DB	08H
	DB	08H
	DB	08H
	DB	08H
	DB	08H
	DB	08H
	DB	08H
	DB	08H
	DB	08H
	DB	08H
	DB	08H
	DB	08H
	DB	08H
	DB	08H
	DB	08H
	DB	08H
	DB	08H
	DB	08H
	DB	08H
	DB	08H
	DB	08H
	DB	08H
	DB	08H
	DB	08H
	DB	08H
	DB	08H
	DB	08H
	DB	08H
	DB	08H
	DB	08H
	DB	08H
	DB	08H
	DB	08H
	DB	09H
	DB	09H
	DB	09H
	DB	09H
	DB	09H
	DB	09H
	DB	09H
	DB	09H
	DB	09H
	DB	09H
	DB	09H
	DB	09H
	DB	09H
	DB	09H
	DB	09H
	DB	09H
	DB	09H
	DB	09H
	DB	09H
	DB	09H
	DB	09H
	DB	09H
	DB	09H
	DB	09H
	DB	09H
	DB	09H
	DB	09H
	DB	09H
	DB	09H
	DB	09H
	DB	09H
	DB	09H
	DB	09H
	DB	09H
	DB	09H
	DB	09H
	DB	09H
	DB	09H
	DB	09H
	DB	09H
	DB	09H
	DB	09H
	DB	09H
	DB	09H
	DB	09H
	DB	09H
	DB	09H
	DB	09H
	DB	09H
	DB	09H
	DB	09H
	DB	09H
	DB	09H
	DB	09H
	DB	09H
	DB	09H
	DB	09H
	DB	09H
	DB	09H
	DB	09H
	DB	09H
	DB	09H
	DB	09H
	DB	09H
	DB	09H
	DB	09H
	DB	09H
	DB	09H
	DB	09H
	DB	09H
	DB	09H
	DB	09H
	DB	09H
	DB	09H
	DB	09H
	DB	09H
	DB	09H
	DB	09H
	DB	09H
	DB	09H
	DB	09H
	DB	09H
	DB	09H
	DB	09H
	DB	09H
	DB	09H
	DB	09H
	DB	09H
	DB	09H
	DB	09H
	DB	09H
	DB	09H
	DB	09H
	DB	09H
	DB	09H
	DB	09H
	DB	09H
	DB	09H
	DB	09H
	DB	09H
	DB	09H
	DB	09H
	DB	09H
	DB	09H
	DB	09H
	DB	09H
	DB	09H
	DB	09H
	DB	09H
	DB	09H
	DB	09H
	DB	09H
	DB	07H
	DB	07H
	DB	07H
	DB	07H
	DB	07H
	DB	07H
	DB	07H
	DB	07H
	DB	07H
	DB	07H
	DB	07H
	DB	07H
	DB	07H
	DB	07H
	DB	07H
	DB	07H
	DB	07H
	DB	07H
	DB	07H
	DB	07H
	DB	07H
	DB	07H
	DB	07H
	DB	07H
	DB	08H
	DB	08H
	DB	08H
	DB	08H
	DB	08H
	DB	08H
	DB	08H
	DB	08H
?stbi__jpeg_dezigzag@@3QBEB DB 00H			; stbi__jpeg_dezigzag
	DB	01H
	DB	08H
	DB	010H
	DB	09H
	DB	02H
	DB	03H
	DB	0aH
	DB	011H
	DB	018H
	DB	020H
	DB	019H
	DB	012H
	DB	0bH
	DB	04H
	DB	05H
	DB	0cH
	DB	013H
	DB	01aH
	DB	021H
	DB	028H
	DB	030H
	DB	029H
	DB	022H
	DB	01bH
	DB	014H
	DB	0dH
	DB	06H
	DB	07H
	DB	0eH
	DB	015H
	DB	01cH
	DB	023H
	DB	02aH
	DB	031H
	DB	038H
	DB	039H
	DB	032H
	DB	02bH
	DB	024H
	DB	01dH
	DB	016H
	DB	0fH
	DB	017H
	DB	01eH
	DB	025H
	DB	02cH
	DB	033H
	DB	03aH
	DB	03bH
	DB	034H
	DB	02dH
	DB	026H
	DB	01fH
	DB	027H
	DB	02eH
	DB	035H
	DB	03cH
	DB	03dH
	DB	036H
	DB	02fH
	DB	037H
	DB	03eH
	DB	03fH
	DB	03fH
	DB	03fH
	DB	03fH
	DB	03fH
	DB	03fH
	DB	03fH
	DB	03fH
	DB	03fH
	DB	03fH
	DB	03fH
	DB	03fH
	DB	03fH
	DB	03fH
	DB	03fH
	DB	03fH
	ORG $+1
?stbi__zlength_base@@3QBHB DD 03H			; stbi__zlength_base
	DD	04H
	DD	05H
	DD	06H
	DD	07H
	DD	08H
	DD	09H
	DD	0aH
	DD	0bH
	DD	0dH
	DD	0fH
	DD	011H
	DD	013H
	DD	017H
	DD	01bH
	DD	01fH
	DD	023H
	DD	02bH
	DD	033H
	DD	03bH
	DD	043H
	DD	053H
	DD	063H
	DD	073H
	DD	083H
	DD	0a3H
	DD	0c3H
	DD	0e3H
	DD	0102H
	DD	00H
	DD	00H
?stbi__h2l_gamma_i@@3MA DD 03ee8ba2er		; 0.454545 ; stbi__h2l_gamma_i
?stbi__zdist_base@@3QBHB DD 01H				; stbi__zdist_base
	DD	02H
	DD	03H
	DD	04H
	DD	05H
	DD	07H
	DD	09H
	DD	0dH
	DD	011H
	DD	019H
	DD	021H
	DD	031H
	DD	041H
	DD	061H
	DD	081H
	DD	0c1H
	DD	0101H
	DD	0181H
	DD	0201H
	DD	0301H
	DD	0401H
	DD	0601H
	DD	0801H
	DD	0c01H
	DD	01001H
	DD	01801H
	DD	02001H
	DD	03001H
	DD	04001H
	DD	06001H
	DD	00H
	DD	00H
?stbi__bmask@@3QBIB DD 00H				; stbi__bmask
	DD	01H
	DD	03H
	DD	07H
	DD	0fH
	DD	01fH
	DD	03fH
	DD	07fH
	DD	0ffH
	DD	01ffH
	DD	03ffH
	DD	07ffH
	DD	0fffH
	DD	01fffH
	DD	03fffH
	DD	07fffH
	DD	0ffffH
?stbi__h2l_scale_i@@3MA DD 03f800000r		; 1	; stbi__h2l_scale_i
?stbi__zlength_extra@@3QBHB DD 00H			; stbi__zlength_extra
	DD	00H
	DD	00H
	DD	00H
	DD	00H
	DD	00H
	DD	00H
	DD	00H
	DD	01H
	DD	01H
	DD	01H
	DD	01H
	DD	02H
	DD	02H
	DD	02H
	DD	02H
	DD	03H
	DD	03H
	DD	03H
	DD	03H
	DD	04H
	DD	04H
	DD	04H
	DD	04H
	DD	05H
	DD	05H
	DD	05H
	DD	05H
	DD	00H
	DD	00H
	DD	00H
?first_row_filter@@3PAEA DB 00H				; first_row_filter
	DB	01H
	DB	00H
	DB	05H
	DB	06H
	ORG $+3
?stbi__zdefault_distance@@3QBEB DB 05H			; stbi__zdefault_distance
	DB	05H
	DB	05H
	DB	05H
	DB	05H
	DB	05H
	DB	05H
	DB	05H
	DB	05H
	DB	05H
	DB	05H
	DB	05H
	DB	05H
	DB	05H
	DB	05H
	DB	05H
	DB	05H
	DB	05H
	DB	05H
	DB	05H
	DB	05H
	DB	05H
	DB	05H
	DB	05H
	DB	05H
	DB	05H
	DB	05H
	DB	05H
	DB	05H
	DB	05H
	DB	05H
	DB	05H
	ORG $+4
?stbi__zdist_extra@@3QBHB DD 00H			; stbi__zdist_extra
	DD	00H
	DD	00H
	DD	00H
	DD	01H
	DD	01H
	DD	02H
	DD	02H
	DD	03H
	DD	03H
	DD	04H
	DD	04H
	DD	05H
	DD	05H
	DD	06H
	DD	06H
	DD	07H
	DD	07H
	DD	08H
	DD	08H
	DD	09H
	DD	09H
	DD	0aH
	DD	0aH
	DD	0bH
	DD	0bH
	DD	0cH
	DD	0cH
	DD	0dH
	DD	0dH
	ORG $+8
PUBLIC	_stbi_zlib_decode_malloc_guesssize_headerflag
PUBLIC	_stbi_load_from_file
PUBLIC	_stbi_image_free
PUBLIC	?Bind@Texture@@QAEXI@Z				; Texture::Bind
PUBLIC	??0Texture@@QAE@V?$basic_string@DU?$char_traits@D@std@@V?$allocator@D@2@@std@@@Z ; Texture::Texture
PUBLIC	_stbi_load
PUBLIC	??1Texture@@QAE@XZ				; Texture::~Texture
?stbi__stdio_callbacks@@3Ustbi_io_callbacks@@A DD FLAT:?stbi__stdio_read@@YAHPAXPADH@Z ; stbi__stdio_callbacks
	DD	FLAT:?stbi__stdio_skip@@YAXPAXH@Z
	DD	FLAT:?stbi__stdio_eof@@YAHPAX@Z
_DATA	ENDS
;	COMDAT xdata$x
xdata$x	SEGMENT
__ehfuncinfo$??0Texture@@QAE@V?$basic_string@DU?$char_traits@D@std@@V?$allocator@D@2@@std@@@Z DQ 00000000919930522r ; 1.93099e-313
	DD	FLAT:__unwindtable$??0Texture@@QAE@V?$basic_string@DU?$char_traits@D@std@@V?$allocator@D@2@@std@@@Z
	DQ	00000000000000000r		; 0
	DQ	00000000000000000r		; 0
	DQ	00000000100000000r		; 2.122e-314
	ORG $+4
__unwindtable$??0Texture@@QAE@V?$basic_string@DU?$char_traits@D@std@@V?$allocator@D@2@@std@@@Z DD 0ffffffffH
	DD	FLAT:__unwindfunclet$??0Texture@@QAE@V?$basic_string@DU?$char_traits@D@std@@V?$allocator@D@2@@std@@@Z$0
	DD	00H
	DD	FLAT:__unwindfunclet$??0Texture@@QAE@V?$basic_string@DU?$char_traits@D@std@@V?$allocator@D@2@@std@@@Z$1
	DD	01H
	DD	FLAT:__unwindfunclet$??0Texture@@QAE@V?$basic_string@DU?$char_traits@D@std@@V?$allocator@D@2@@std@@@Z$2
	DD	02H
	DD	FLAT:__unwindfunclet$??0Texture@@QAE@V?$basic_string@DU?$char_traits@D@std@@V?$allocator@D@2@@std@@@Z$3
	DD	03H
	DD	FLAT:__unwindfunclet$??0Texture@@QAE@V?$basic_string@DU?$char_traits@D@std@@V?$allocator@D@2@@std@@@Z$4
	DD	04H
	DD	FLAT:__unwindfunclet$??0Texture@@QAE@V?$basic_string@DU?$char_traits@D@std@@V?$allocator@D@2@@std@@@Z$5
	DD	03H
	DD	FLAT:__unwindfunclet$??0Texture@@QAE@V?$basic_string@DU?$char_traits@D@std@@V?$allocator@D@2@@std@@@Z$5
	DD	06H
	DD	FLAT:__unwindfunclet$??0Texture@@QAE@V?$basic_string@DU?$char_traits@D@std@@V?$allocator@D@2@@std@@@Z$6
	DD	07H
	DD	FLAT:__unwindfunclet$??0Texture@@QAE@V?$basic_string@DU?$char_traits@D@std@@V?$allocator@D@2@@std@@@Z$7
END
