; Listing generated by Microsoft (R) Optimizing Compiler Version 19.25.28614.0 

	TITLE	d:\platformer\cppgame-a38d0db726ab2ff89afdd02c18394bd0c58340c9\cppgame-a38d0db726ab2ff89afdd02c18394bd0c58340c9\platformergame\src\gameengine\window.cpp
	.686P
	.XMM
	include listing.inc
	.model	flat

INCLUDELIB OLDNAMES

PUBLIC	??_C@_03LABEMFEH@API@				; `string'
PUBLIC	??_C@_0O@FIELJJPJ@WINDOW?5SYSTEM@		; `string'
PUBLIC	??_C@_0BA@NFGHGLCE@SHADER?5COMPILER@		; `string'
PUBLIC	??_C@_0M@IDGIMOAO@THIRD?5PARTY@			; `string'
PUBLIC	??_C@_0M@GPGGNAFB@APPLICATION@			; `string'
PUBLIC	??_C@_07NFANNNEC@UNKNOWN@			; `string'
PUBLIC	??_C@_05MBDEGLCK@ERROR@				; `string'
PUBLIC	??_C@_0BE@GJGNALGE@DEPRECATED?5BEHAVIOR@	; `string'
PUBLIC	??_C@_0BC@NDCNFKKK@UDEFINED?5BEHAVIOR@		; `string'
PUBLIC	??_C@_0M@KJJPHLD@PORTABILITY@			; `string'
PUBLIC	??_C@_0M@BJJMBNIK@PERFORMANCE@			; `string'
PUBLIC	??_C@_05NNNMIPMB@OTHER@				; `string'
PUBLIC	??_C@_06HDFBNOJL@MARKER@			; `string'
PUBLIC	??_C@_04PKDHFCJF@HIGH@				; `string'
PUBLIC	??_C@_06HMBFJLMK@MEDIUM@			; `string'
PUBLIC	??_C@_03IBEFMGAI@LOW@				; `string'
PUBLIC	??_C@_0N@ELNBENIH@NOTIFICATION@			; `string'
PUBLIC	??_C@_0BD@BBBAJKBE@?$CFd?3?$CI?$CFs?0?5?$CFs?0?$CFs?$CJ?6?$CFs?6@ ; `string'
PUBLIC	??_C@_07LIJFLNDM@problem@			; `string'
PUBLIC	?_OptionsStorage@?1??__local_stdio_printf_options@@9@4_KA ; `__local_stdio_printf_options'::`2'::_OptionsStorage
PUBLIC	?callback@@3P6AXPAUGLFWwindow@@HHHH@ZA		; callback
PUBLIC	?_Min_buckets@?$_Hash@V?$_Umap_traits@HEV?$_Uhash_compare@HU?$hash@H@std@@U?$equal_to@H@2@@std@@V?$allocator@U?$pair@$$CBHE@std@@@2@$0A@@std@@@std@@2IB ; std::_Hash<std::_Umap_traits<int,unsigned char,std::_Uhash_compare<int,std::hash<int>,std::equal_to<int> >,std::allocator<std::pair<int const ,unsigned char> >,0> >::_Min_buckets
EXTRN	_glewInit@0:PROC
EXTRN	_glfwWindowShouldClose:PROC
EXTRN	__imp__glClearColor@16:PROC
EXTRN	_glfwDestroyWindow:PROC
EXTRN	_glfwMakeContextCurrent:PROC
EXTRN	_glfwWindowHint:PROC
EXTRN	__imp____stdio_common_vfprintf:PROC
EXTRN	__imp__glBlendFunc@8:PROC
EXTRN	_glfwCreateWindow:PROC
EXTRN	_atexit:PROC
EXTRN	_glfwSetKeyCallback:PROC
EXTRN	_glfwInit:PROC
EXTRN	_glfwPollEvents:PROC
EXTRN	_glfwTerminate:PROC
EXTRN	__imp__glEnable@4:PROC
EXTRN	__imp____acrt_iob_func:PROC
EXTRN	___glewDebugMessageCallback:DWORD
EXTRN	__imp__glClear@4:PROC
EXTRN	_glfwSwapInterval:PROC
EXTRN	_glfwSwapBuffers:PROC
;	COMDAT ?_OptionsStorage@?1??__local_stdio_printf_options@@9@4_KA
_BSS	SEGMENT
?_OptionsStorage@?1??__local_stdio_printf_options@@9@4_KA DQ 01H DUP (?) ; `__local_stdio_printf_options'::`2'::_OptionsStorage
_BSS	ENDS
;	COMDAT ?_Min_buckets@?$_Hash@V?$_Umap_traits@HEV?$_Uhash_compare@HU?$hash@H@std@@U?$equal_to@H@2@@std@@V?$allocator@U?$pair@$$CBHE@std@@@2@$0A@@std@@@std@@2IB
CONST	SEGMENT
?_Min_buckets@?$_Hash@V?$_Umap_traits@HEV?$_Uhash_compare@HU?$hash@H@std@@U?$equal_to@H@2@@std@@V?$allocator@U?$pair@$$CBHE@std@@@2@$0A@@std@@@std@@2IB DD 08H ; std::_Hash<std::_Umap_traits<int,unsigned char,std::_Uhash_compare<int,std::hash<int>,std::equal_to<int> >,std::allocator<std::pair<int const ,unsigned char> >,0> >::_Min_buckets
CONST	ENDS
;	COMDAT ??_C@_07LIJFLNDM@problem@
CONST	SEGMENT
??_C@_07LIJFLNDM@problem@ DB 'problem', 00H		; `string'
CONST	ENDS
;	COMDAT ??_C@_0BD@BBBAJKBE@?$CFd?3?$CI?$CFs?0?5?$CFs?0?$CFs?$CJ?6?$CFs?6@
CONST	SEGMENT
??_C@_0BD@BBBAJKBE@?$CFd?3?$CI?$CFs?0?5?$CFs?0?$CFs?$CJ?6?$CFs?6@ DB '%d:'
	DB	'(%s, %s,%s)', 0aH, '%s', 0aH, 00H		; `string'
CONST	ENDS
;	COMDAT ??_C@_0N@ELNBENIH@NOTIFICATION@
CONST	SEGMENT
??_C@_0N@ELNBENIH@NOTIFICATION@ DB 'NOTIFICATION', 00H	; `string'
CONST	ENDS
;	COMDAT ??_C@_03IBEFMGAI@LOW@
CONST	SEGMENT
??_C@_03IBEFMGAI@LOW@ DB 'LOW', 00H			; `string'
CONST	ENDS
;	COMDAT ??_C@_06HMBFJLMK@MEDIUM@
CONST	SEGMENT
??_C@_06HMBFJLMK@MEDIUM@ DB 'MEDIUM', 00H		; `string'
CONST	ENDS
;	COMDAT ??_C@_04PKDHFCJF@HIGH@
CONST	SEGMENT
??_C@_04PKDHFCJF@HIGH@ DB 'HIGH', 00H			; `string'
CONST	ENDS
;	COMDAT ??_C@_06HDFBNOJL@MARKER@
CONST	SEGMENT
??_C@_06HDFBNOJL@MARKER@ DB 'MARKER', 00H		; `string'
CONST	ENDS
;	COMDAT ??_C@_05NNNMIPMB@OTHER@
CONST	SEGMENT
??_C@_05NNNMIPMB@OTHER@ DB 'OTHER', 00H			; `string'
CONST	ENDS
;	COMDAT ??_C@_0M@BJJMBNIK@PERFORMANCE@
CONST	SEGMENT
??_C@_0M@BJJMBNIK@PERFORMANCE@ DB 'PERFORMANCE', 00H	; `string'
CONST	ENDS
;	COMDAT ??_C@_0M@KJJPHLD@PORTABILITY@
CONST	SEGMENT
??_C@_0M@KJJPHLD@PORTABILITY@ DB 'PORTABILITY', 00H	; `string'
CONST	ENDS
;	COMDAT ??_C@_0BC@NDCNFKKK@UDEFINED?5BEHAVIOR@
CONST	SEGMENT
??_C@_0BC@NDCNFKKK@UDEFINED?5BEHAVIOR@ DB 'UDEFINED BEHAVIOR', 00H ; `string'
CONST	ENDS
;	COMDAT ??_C@_0BE@GJGNALGE@DEPRECATED?5BEHAVIOR@
CONST	SEGMENT
??_C@_0BE@GJGNALGE@DEPRECATED?5BEHAVIOR@ DB 'DEPRECATED BEHAVIOR', 00H ; `string'
CONST	ENDS
;	COMDAT ??_C@_05MBDEGLCK@ERROR@
CONST	SEGMENT
??_C@_05MBDEGLCK@ERROR@ DB 'ERROR', 00H			; `string'
CONST	ENDS
;	COMDAT ??_C@_07NFANNNEC@UNKNOWN@
CONST	SEGMENT
??_C@_07NFANNNEC@UNKNOWN@ DB 'UNKNOWN', 00H		; `string'
CONST	ENDS
;	COMDAT ??_C@_0M@GPGGNAFB@APPLICATION@
CONST	SEGMENT
??_C@_0M@GPGGNAFB@APPLICATION@ DB 'APPLICATION', 00H	; `string'
CONST	ENDS
;	COMDAT ??_C@_0M@IDGIMOAO@THIRD?5PARTY@
CONST	SEGMENT
??_C@_0M@IDGIMOAO@THIRD?5PARTY@ DB 'THIRD PARTY', 00H	; `string'
CONST	ENDS
;	COMDAT ??_C@_0BA@NFGHGLCE@SHADER?5COMPILER@
CONST	SEGMENT
??_C@_0BA@NFGHGLCE@SHADER?5COMPILER@ DB 'SHADER COMPILER', 00H ; `string'
CONST	ENDS
;	COMDAT ??_C@_0O@FIELJJPJ@WINDOW?5SYSTEM@
CONST	SEGMENT
??_C@_0O@FIELJJPJ@WINDOW?5SYSTEM@ DB 'WINDOW SYSTEM', 00H ; `string'
CONST	ENDS
;	COMDAT ??_C@_03LABEMFEH@API@
CONST	SEGMENT
??_C@_03LABEMFEH@API@ DB 'API', 00H			; `string'
?piecewise_construct@std@@3Upiecewise_construct_t@1@B	ORG $+1 ; std::piecewise_construct
	ORG $+2
?callback@@3P6AXPAUGLFWwindow@@HHHH@ZA DD FLAT:?key_callback@@YAXPAUGLFWwindow@@HHHH@Z ; callback
PUBLIC	??$?0V?$tuple@ABH@std@@V?$tuple@$$V@1@$0A@$$Z$S@?$pair@$$CBHE@std@@QAE@AAV?$tuple@ABH@1@AAV?$tuple@$$V@1@U?$integer_sequence@I$0A@@1@U?$integer_sequence@I$S@1@@Z ; std::pair<int const ,unsigned char>::pair<int const ,unsigned char><std::tuple<int const &>,std::tuple<>,0>
PUBLIC	??$addressof@V?$_List_unchecked_iterator@V?$_List_val@U?$_List_simple_types@U?$pair@$$CBHE@std@@@std@@@std@@@std@@@std@@YAPAV?$_List_unchecked_iterator@V?$_List_val@U?$_List_simple_types@U?$pair@$$CBHE@std@@@std@@@std@@@0@AAV10@@Z ; std::addressof<std::_List_unchecked_iterator<std::_List_val<std::_List_simple_types<std::pair<int const ,unsigned char> > > > >
PUBLIC	??$?0ABH$$Z$$V@?$pair@$$CBHE@std@@QAE@Upiecewise_construct_t@1@V?$tuple@ABH@1@V?$tuple@$$V@1@@Z ; std::pair<int const ,unsigned char>::pair<int const ,unsigned char><int const &>
PUBLIC	??$forward@ABQAU?$_List_node@U?$pair@$$CBHE@std@@PAX@std@@@std@@YAABQAU?$_List_node@U?$pair@$$CBHE@std@@PAX@0@ABQAU10@@Z ; std::forward<std::_List_node<std::pair<int const ,unsigned char>,void *> * const &>
PUBLIC	??$_Construct_in_place@V?$_List_unchecked_iterator@V?$_List_val@U?$_List_simple_types@U?$pair@$$CBHE@std@@@std@@@std@@@std@@ABV12@@std@@YAXAAV?$_List_unchecked_iterator@V?$_List_val@U?$_List_simple_types@U?$pair@$$CBHE@std@@@std@@@std@@@0@ABV10@@Z ; std::_Construct_in_place<std::_List_unchecked_iterator<std::_List_val<std::_List_simple_types<std::pair<int const ,unsigned char> > > >,std::_List_unchecked_iterator<std::_List_val<std::_List_simple_types<std::pair<int const ,unsigned char> > > > const &>
PUBLIC	??$forward@ABV?$_List_unchecked_iterator@V?$_List_val@U?$_List_simple_types@U?$pair@$$CBHE@std@@@std@@@std@@@std@@@std@@YAABV?$_List_unchecked_iterator@V?$_List_val@U?$_List_simple_types@U?$pair@$$CBHE@std@@@std@@@std@@@0@ABV10@@Z ; std::forward<std::_List_unchecked_iterator<std::_List_val<std::_List_simple_types<std::pair<int const ,unsigned char> > > > const &>
PUBLIC	??$forward@PAU?$_List_node@U?$pair@$$CBHE@std@@PAX@std@@@std@@YA$$QAPAU?$_List_node@U?$pair@$$CBHE@std@@PAX@0@AAPAU10@@Z ; std::forward<std::_List_node<std::pair<int const ,unsigned char>,void *> *>
PUBLIC	??$construct@U?$pair@$$CBHE@std@@ABUpiecewise_construct_t@2@V?$tuple@ABH@2@V?$tuple@$$V@2@@?$_Default_allocator_traits@V?$allocator@U?$_List_node@U?$pair@$$CBHE@std@@PAX@std@@@std@@@std@@SAXAAV?$allocator@U?$_List_node@U?$pair@$$CBHE@std@@PAX@std@@@1@QAU?$pair@$$CBHE@1@ABUpiecewise_construct_t@1@$$QAV?$tuple@ABH@1@$$QAV?$tuple@$$V@1@@Z ; std::_Default_allocator_traits<std::allocator<std::_List_node<std::pair<int const ,unsigned char>,void *> > >::construct<std::pair<int const ,unsigned char>,std::piecewise_construct_t const &,std::tuple<int const &>,std::tuple<> >
PUBLIC	??$?0U?$pair@$$CBHE@std@@@?$allocator@V?$_List_unchecked_iterator@V?$_List_val@U?$_List_simple_types@U?$pair@$$CBHE@std@@@std@@@std@@@std@@@std@@QAE@ABV?$allocator@U?$pair@$$CBHE@std@@@1@@Z ; std::allocator<std::_List_unchecked_iterator<std::_List_val<std::_List_simple_types<std::pair<int const ,unsigned char> > > > >::allocator<std::_List_unchecked_iterator<std::_List_val<std::_List_simple_types<std::pair<int const ,unsigned char> > > > ><std::pair<int const ,unsigned char> >
PUBLIC	??0?$_Vector_val@U?$_Simple_types@V?$_List_unchecked_iterator@V?$_List_val@U?$_List_simple_types@U?$pair@$$CBHE@std@@@std@@@std@@@std@@@std@@@std@@QAE@XZ ; std::_Vector_val<std::_Simple_types<std::_List_unchecked_iterator<std::_List_val<std::_List_simple_types<std::pair<int const ,unsigned char> > > > > >::_Vector_val<std::_Simple_types<std::_List_unchecked_iterator<std::_List_val<std::_List_simple_types<std::pair<int const ,unsigned char> > > > > >
PUBLIC	??0?$_Alloc_construct_ptr@V?$allocator@U?$_List_node@U?$pair@$$CBHE@std@@PAX@std@@@std@@@std@@QAE@AAV?$allocator@U?$_List_node@U?$pair@$$CBHE@std@@PAX@std@@@1@@Z ; std::_Alloc_construct_ptr<std::allocator<std::_List_node<std::pair<int const ,unsigned char>,void *> > >::_Alloc_construct_ptr<std::allocator<std::_List_node<std::pair<int const ,unsigned char>,void *> > >
PUBLIC	?_Allocate@?$_Alloc_construct_ptr@V?$allocator@U?$_List_node@U?$pair@$$CBHE@std@@PAX@std@@@std@@@std@@QAEXXZ ; std::_Alloc_construct_ptr<std::allocator<std::_List_node<std::pair<int const ,unsigned char>,void *> > >::_Allocate
PUBLIC	??$_Construct_in_place@PAU?$_List_node@U?$pair@$$CBHE@std@@PAX@std@@ABQAU12@@std@@YAXAAPAU?$_List_node@U?$pair@$$CBHE@std@@PAX@0@ABQAU10@@Z ; std::_Construct_in_place<std::_List_node<std::pair<int const ,unsigned char>,void *> *,std::_List_node<std::pair<int const ,unsigned char>,void *> * const &>
PUBLIC	??$exchange@PAU?$_List_node@U?$pair@$$CBHE@std@@PAX@std@@$$T@std@@YAPAU?$_List_node@U?$pair@$$CBHE@std@@PAX@0@AAPAU10@$$QA$$T@Z ; std::exchange<std::_List_node<std::pair<int const ,unsigned char>,void *> *,std::nullptr_t>
PUBLIC	??$destroy@U?$pair@$$CBHE@std@@@?$_Default_allocator_traits@V?$allocator@U?$_List_node@U?$pair@$$CBHE@std@@PAX@std@@@std@@@std@@SAXAAV?$allocator@U?$_List_node@U?$pair@$$CBHE@std@@PAX@std@@@1@QAU?$pair@$$CBHE@1@@Z ; std::_Default_allocator_traits<std::allocator<std::_List_node<std::pair<int const ,unsigned char>,void *> > >::destroy<std::pair<int const ,unsigned char> >
PUBLIC	??$addressof@U?$pair@$$CBHE@std@@@std@@YAPAU?$pair@$$CBHE@0@AAU10@@Z ; std::addressof<std::pair<int const ,unsigned char> >
PUBLIC	??$forward@AAPAU?$_List_node@U?$pair@$$CBHE@std@@PAX@std@@@std@@YAAAPAU?$_List_node@U?$pair@$$CBHE@std@@PAX@0@AAPAU10@@Z ; std::forward<std::_List_node<std::pair<int const ,unsigned char>,void *> * &>
PUBLIC	??$addressof@PAU?$_List_node@U?$pair@$$CBHE@std@@PAX@std@@@std@@YAPAPAU?$_List_node@U?$pair@$$CBHE@std@@PAX@0@AAPAU10@@Z ; std::addressof<std::_List_node<std::pair<int const ,unsigned char>,void *> *>
PUBLIC	??$_Emplace_back@ABV?$_List_unchecked_iterator@V?$_List_val@U?$_List_simple_types@U?$pair@$$CBHE@std@@@std@@@std@@@std@@@?$_Uninitialized_backout@PAV?$_List_unchecked_iterator@V?$_List_val@U?$_List_simple_types@U?$pair@$$CBHE@std@@@std@@@std@@@std@@@std@@QAEXABV?$_List_unchecked_iterator@V?$_List_val@U?$_List_simple_types@U?$pair@$$CBHE@std@@@std@@@std@@@1@@Z ; std::_Uninitialized_backout<std::_List_unchecked_iterator<std::_List_val<std::_List_simple_types<std::pair<int const ,unsigned char> > > > *>::_Emplace_back<std::_List_unchecked_iterator<std::_List_val<std::_List_simple_types<std::pair<int const ,unsigned char> > > > const &>
PUBLIC	??$_Adl_verify_range@PAV?$_List_unchecked_iterator@V?$_List_val@U?$_List_simple_types@U?$pair@$$CBHE@std@@@std@@@std@@@std@@PAV12@@std@@YAXABQAV?$_List_unchecked_iterator@V?$_List_val@U?$_List_simple_types@U?$pair@$$CBHE@std@@@std@@@std@@@0@0@Z ; std::_Adl_verify_range<std::_List_unchecked_iterator<std::_List_val<std::_List_simple_types<std::pair<int const ,unsigned char> > > > *,std::_List_unchecked_iterator<std::_List_val<std::_List_simple_types<std::pair<int const ,unsigned char> > > > *>
PUBLIC	??$_Destroy_in_place@PAU?$_List_node@U?$pair@$$CBHE@std@@PAX@std@@@std@@YAXAAPAU?$_List_node@U?$pair@$$CBHE@std@@PAX@0@@Z ; std::_Destroy_in_place<std::_List_node<std::pair<int const ,unsigned char>,void *> *>
PUBLIC	??$_Freenode@V?$allocator@U?$_List_node@U?$pair@$$CBHE@std@@PAX@std@@@std@@@?$_List_node@U?$pair@$$CBHE@std@@PAX@std@@SAXAAV?$allocator@U?$_List_node@U?$pair@$$CBHE@std@@PAX@std@@@1@PAU01@@Z ; std::_List_node<std::pair<int const ,unsigned char>,void *>::_Freenode<std::allocator<std::_List_node<std::pair<int const ,unsigned char>,void *> > >
PUBLIC	??$?0ABV?$allocator@U?$pair@$$CBHE@std@@@std@@$$V@?$_Compressed_pair@V?$allocator@V?$_List_unchecked_iterator@V?$_List_val@U?$_List_simple_types@U?$pair@$$CBHE@std@@@std@@@std@@@std@@@std@@V?$_Vector_val@U?$_Simple_types@V?$_List_unchecked_iterator@V?$_List_val@U?$_List_simple_types@U?$pair@$$CBHE@std@@@std@@@std@@@std@@@std@@@2@$00@std@@QAE@U_One_then_variadic_args_t@1@ABV?$allocator@U?$pair@$$CBHE@std@@@1@@Z ; std::_Compressed_pair<std::allocator<std::_List_unchecked_iterator<std::_List_val<std::_List_simple_types<std::pair<int const ,unsigned char> > > > >,std::_Vector_val<std::_Simple_types<std::_List_unchecked_iterator<std::_List_val<std::_List_simple_types<std::pair<int const ,unsigned char> > > > > >,1>::_Compressed_pair<std::allocator<std::_List_unchecked_iterator<std::_List_val<std::_List_simple_types<std::pair<int const ,unsigned char> > > > >,std::_Vector_val<std::_Simple_types<std::_List_unchecked_iterator<std::_List_val<std::_List_simple_types<std::pair<int const ,unsigned char> > > > > >,1><std::allocator<std::pair<int const ,unsigned char> > const &>
PUBLIC	??$forward@ABV?$allocator@U?$pair@$$CBHE@std@@@std@@@std@@YAABV?$allocator@U?$pair@$$CBHE@std@@@0@ABV10@@Z ; std::forward<std::allocator<std::pair<int const ,unsigned char> > const &>
PUBLIC	??$?0PAU?$_List_node@U?$pair@$$CBHE@std@@PAX@std@@_N$0A@@?$pair@PAU?$_List_node@U?$pair@$$CBHE@std@@PAX@std@@_N@std@@QAE@$$QAPAU?$_List_node@U?$pair@$$CBHE@std@@PAX@1@$$QA_N@Z ; std::pair<std::_List_node<std::pair<int const ,unsigned char>,void *> *,bool>::pair<std::_List_node<std::pair<int const ,unsigned char>,void *> *,bool><std::_List_node<std::pair<int const ,unsigned char>,void *> *,bool,0>
PUBLIC	??$_Kfn@$$CBHE@?$_Umap_traits@HEV?$_Uhash_compare@HU?$hash@H@std@@U?$equal_to@H@2@@std@@V?$allocator@U?$pair@$$CBHE@std@@@2@$0A@@std@@SAABHABU?$pair@$$CBHE@1@@Z ; std::_Umap_traits<int,unsigned char,std::_Uhash_compare<int,std::hash<int>,std::equal_to<int> >,std::allocator<std::pair<int const ,unsigned char> >,0>::_Kfn<int const ,unsigned char>
PUBLIC	??$?0ABUpiecewise_construct_t@std@@V?$tuple@ABH@1@V?$tuple@$$V@1@@?$_List_node_emplace_op2@V?$allocator@U?$_List_node@U?$pair@$$CBHE@std@@PAX@std@@@std@@@std@@QAE@AAV?$allocator@U?$_List_node@U?$pair@$$CBHE@std@@PAX@std@@@1@ABUpiecewise_construct_t@1@$$QAV?$tuple@ABH@1@$$QAV?$tuple@$$V@1@@Z ; std::_List_node_emplace_op2<std::allocator<std::_List_node<std::pair<int const ,unsigned char>,void *> > >::_List_node_emplace_op2<std::allocator<std::_List_node<std::pair<int const ,unsigned char>,void *> > ><std::piecewise_construct_t const &,std::tuple<int const &>,std::tuple<> >
PUBLIC	??$?0AAPAU?$_List_node@U?$pair@$$CBHE@std@@PAX@std@@_N$0A@@?$pair@PAU?$_List_node@U?$pair@$$CBHE@std@@PAX@std@@_N@std@@QAE@AAPAU?$_List_node@U?$pair@$$CBHE@std@@PAX@1@$$QA_N@Z ; std::pair<std::_List_node<std::pair<int const ,unsigned char>,void *> *,bool>::pair<std::_List_node<std::pair<int const ,unsigned char>,void *> *,bool><std::_List_node<std::pair<int const ,unsigned char>,void *> * &,bool,0>
PUBLIC	??$_Find_last@H@?$_Hash@V?$_Umap_traits@HEV?$_Uhash_compare@HU?$hash@H@std@@U?$equal_to@H@2@@std@@V?$allocator@U?$pair@$$CBHE@std@@@2@$0A@@std@@@std@@IBE?AU?$_Hash_find_last_result@PAU?$_List_node@U?$pair@$$CBHE@std@@PAX@std@@@1@ABHI@Z ; std::_Hash<std::_Umap_traits<int,unsigned char,std::_Uhash_compare<int,std::hash<int>,std::equal_to<int> >,std::allocator<std::pair<int const ,unsigned char> >,0> >::_Find_last<int>
PUBLIC	??$?0U?$pair@$$CBHE@std@@@?$allocator@U?$_List_node@U?$pair@$$CBHE@std@@PAX@std@@@std@@QAE@ABV?$allocator@U?$pair@$$CBHE@std@@@1@@Z ; std::allocator<std::_List_node<std::pair<int const ,unsigned char>,void *> >::allocator<std::_List_node<std::pair<int const ,unsigned char>,void *> ><std::pair<int const ,unsigned char> >
PUBLIC	?_Orphan_non_end@?$_List_val@U?$_List_simple_types@U?$pair@$$CBHE@std@@@std@@@std@@QAEXXZ ; std::_List_val<std::_List_simple_types<std::pair<int const ,unsigned char> > >::_Orphan_non_end
PUBLIC	??0_Range_eraser@?$_Hash@V?$_Umap_traits@HEV?$_Uhash_compare@HU?$hash@H@std@@U?$equal_to@H@2@@std@@V?$allocator@U?$pair@$$CBHE@std@@@2@$0A@@std@@@std@@QAE@AAV?$list@U?$pair@$$CBHE@std@@V?$allocator@U?$pair@$$CBHE@std@@@2@@2@QAU?$_List_node@U?$pair@$$CBHE@std@@PAX@2@@Z ; std::_Hash<std::_Umap_traits<int,unsigned char,std::_Uhash_compare<int,std::hash<int>,std::equal_to<int> >,std::allocator<std::pair<int const ,unsigned char> >,0> >::_Range_eraser::_Range_eraser
PUBLIC	?_Bump_erased@_Range_eraser@?$_Hash@V?$_Umap_traits@HEV?$_Uhash_compare@HU?$hash@H@std@@U?$equal_to@H@2@@std@@V?$allocator@U?$pair@$$CBHE@std@@@2@$0A@@std@@@std@@QAEXXZ ; std::_Hash<std::_Umap_traits<int,unsigned char,std::_Uhash_compare<int,std::hash<int>,std::equal_to<int> >,std::allocator<std::pair<int const ,unsigned char> >,0> >::_Range_eraser::_Bump_erased
PUBLIC	??1_Range_eraser@?$_Hash@V?$_Umap_traits@HEV?$_Uhash_compare@HU?$hash@H@std@@U?$equal_to@H@2@@std@@V?$allocator@U?$pair@$$CBHE@std@@@2@$0A@@std@@@std@@QAE@XZ ; std::_Hash<std::_Umap_traits<int,unsigned char,std::_Uhash_compare<int,std::hash<int>,std::equal_to<int> >,std::allocator<std::pair<int const ,unsigned char> >,0> >::_Range_eraser::~_Range_eraser
PUBLIC	?clear@?$list@U?$pair@$$CBHE@std@@V?$allocator@U?$pair@$$CBHE@std@@@2@@std@@QAEXXZ ; std::list<std::pair<int const ,unsigned char>,std::allocator<std::pair<int const ,unsigned char> > >::clear
PUBLIC	?_Unchecked_erase@?$_Hash@V?$_Umap_traits@HEV?$_Uhash_compare@HU?$hash@H@std@@U?$equal_to@H@2@@std@@V?$allocator@U?$pair@$$CBHE@std@@@2@$0A@@std@@@std@@AAEPAU?$_List_node@U?$pair@$$CBHE@std@@PAX@2@PAU32@QAU32@@Z ; std::_Hash<std::_Umap_traits<int,unsigned char,std::_Uhash_compare<int,std::hash<int>,std::equal_to<int> >,std::allocator<std::pair<int const ,unsigned char> >,0> >::_Unchecked_erase
PUBLIC	?_Unchecked_begin@?$list@U?$pair@$$CBHE@std@@V?$allocator@U?$pair@$$CBHE@std@@@2@@std@@QAE?AV?$_List_unchecked_iterator@V?$_List_val@U?$_List_simple_types@U?$pair@$$CBHE@std@@@std@@@std@@@2@XZ ; std::list<std::pair<int const ,unsigned char>,std::allocator<std::pair<int const ,unsigned char> > >::_Unchecked_begin
PUBLIC	?_Get_first@?$_Compressed_pair@V?$allocator@U?$_List_node@U?$pair@$$CBHE@std@@PAX@std@@@std@@V?$_List_val@U?$_List_simple_types@U?$pair@$$CBHE@std@@@std@@@2@$00@std@@QBEABV?$allocator@U?$_List_node@U?$pair@$$CBHE@std@@PAX@std@@@2@XZ ; std::_Compressed_pair<std::allocator<std::_List_node<std::pair<int const ,unsigned char>,void *> >,std::_List_val<std::_List_simple_types<std::pair<int const ,unsigned char> > >,1>::_Get_first
PUBLIC	?clear@?$_Hash@V?$_Umap_traits@HEV?$_Uhash_compare@HU?$hash@H@std@@U?$equal_to@H@2@@std@@V?$allocator@U?$pair@$$CBHE@std@@@2@$0A@@std@@@std@@QAEXXZ ; std::_Hash<std::_Umap_traits<int,unsigned char,std::_Uhash_compare<int,std::hash<int>,std::equal_to<int> >,std::allocator<std::pair<int const ,unsigned char> >,0> >::clear
PUBLIC	?max_size@?$_Default_allocator_traits@V?$allocator@V?$_List_unchecked_iterator@V?$_List_val@U?$_List_simple_types@U?$pair@$$CBHE@std@@@std@@@std@@@std@@@std@@@std@@SAIABV?$allocator@V?$_List_unchecked_iterator@V?$_List_val@U?$_List_simple_types@U?$pair@$$CBHE@std@@@std@@@std@@@std@@@2@@Z ; std::_Default_allocator_traits<std::allocator<std::_List_unchecked_iterator<std::_List_val<std::_List_simple_types<std::pair<int const ,unsigned char> > > > > >::max_size
PUBLIC	?_Get_first@?$_Compressed_pair@V?$allocator@V?$_List_unchecked_iterator@V?$_List_val@U?$_List_simple_types@U?$pair@$$CBHE@std@@@std@@@std@@@std@@@std@@V?$_Vector_val@U?$_Simple_types@V?$_List_unchecked_iterator@V?$_List_val@U?$_List_simple_types@U?$pair@$$CBHE@std@@@std@@@std@@@std@@@std@@@2@$00@std@@QBEABV?$allocator@V?$_List_unchecked_iterator@V?$_List_val@U?$_List_simple_types@U?$pair@$$CBHE@std@@@std@@@std@@@std@@@2@XZ ; std::_Compressed_pair<std::allocator<std::_List_unchecked_iterator<std::_List_val<std::_List_simple_types<std::pair<int const ,unsigned char> > > > >,std::_Vector_val<std::_Simple_types<std::_List_unchecked_iterator<std::_List_val<std::_List_simple_types<std::pair<int const ,unsigned char> > > > > >,1>::_Get_first
PUBLIC	?deallocate@?$allocator@U?$_List_node@U?$pair@$$CBHE@std@@PAX@std@@@std@@QAEXQAU?$_List_node@U?$pair@$$CBHE@std@@PAX@2@I@Z ; std::allocator<std::_List_node<std::pair<int const ,unsigned char>,void *> >::deallocate
PUBLIC	?max_size@?$_Default_allocator_traits@V?$allocator@U?$_List_node@U?$pair@$$CBHE@std@@PAX@std@@@std@@@std@@SAIABV?$allocator@U?$_List_node@U?$pair@$$CBHE@std@@PAX@std@@@2@@Z ; std::_Default_allocator_traits<std::allocator<std::_List_node<std::pair<int const ,unsigned char>,void *> > >::max_size
PUBLIC	?_Getal@?$list@U?$pair@$$CBHE@std@@V?$allocator@U?$pair@$$CBHE@std@@@2@@std@@ABEABV?$allocator@U?$_List_node@U?$pair@$$CBHE@std@@PAX@std@@@2@XZ ; std::list<std::pair<int const ,unsigned char>,std::allocator<std::pair<int const ,unsigned char> > >::_Getal
PUBLIC	?_Unchecked_splice@?$_List_val@U?$_List_simple_types@U?$pair@$$CBHE@std@@@std@@@std@@SAPAU?$_List_node@U?$pair@$$CBHE@std@@PAX@2@QAU32@00@Z ; std::_List_val<std::_List_simple_types<std::pair<int const ,unsigned char> > >::_Unchecked_splice
PUBLIC	?_Unchecked_begin@?$_Hash@V?$_Umap_traits@HEV?$_Uhash_compare@HU?$hash@H@std@@U?$equal_to@H@2@@std@@V?$allocator@U?$pair@$$CBHE@std@@@2@$0A@@std@@@std@@QAE?AV?$_List_unchecked_iterator@V?$_List_val@U?$_List_simple_types@U?$pair@$$CBHE@std@@@std@@@std@@@2@XZ ; std::_Hash<std::_Umap_traits<int,unsigned char,std::_Uhash_compare<int,std::hash<int>,std::equal_to<int> >,std::allocator<std::pair<int const ,unsigned char> >,0> >::_Unchecked_begin
PUBLIC	?_Unchecked_end@?$_Hash@V?$_Umap_traits@HEV?$_Uhash_compare@HU?$hash@H@std@@U?$equal_to@H@2@@std@@V?$allocator@U?$pair@$$CBHE@std@@@2@$0A@@std@@@std@@QAE?AV?$_List_unchecked_iterator@V?$_List_val@U?$_List_simple_types@U?$pair@$$CBHE@std@@@std@@@std@@@2@XZ ; std::_Hash<std::_Umap_traits<int,unsigned char,std::_Uhash_compare<int,std::hash<int>,std::equal_to<int> >,std::allocator<std::pair<int const ,unsigned char> >,0> >::_Unchecked_end
PUBLIC	?bucket@?$_Hash@V?$_Umap_traits@HEV?$_Uhash_compare@HU?$hash@H@std@@U?$equal_to@H@2@@std@@V?$allocator@U?$pair@$$CBHE@std@@@2@$0A@@std@@@std@@QBEIABH@Z ; std::_Hash<std::_Umap_traits<int,unsigned char,std::_Uhash_compare<int,std::hash<int>,std::equal_to<int> >,std::allocator<std::pair<int const ,unsigned char> >,0> >::bucket
PUBLIC	?_Min_load_factor_buckets@?$_Hash@V?$_Umap_traits@HEV?$_Uhash_compare@HU?$hash@H@std@@U?$equal_to@H@2@@std@@V?$allocator@U?$pair@$$CBHE@std@@@2@$0A@@std@@@std@@IBEII@Z ; std::_Hash<std::_Umap_traits<int,unsigned char,std::_Uhash_compare<int,std::hash<int>,std::equal_to<int> >,std::allocator<std::pair<int const ,unsigned char> >,0> >::_Min_load_factor_buckets
PUBLIC	?_Max_bucket_size@?$_Hash@V?$_Umap_traits@HEV?$_Uhash_compare@HU?$hash@H@std@@U?$equal_to@H@2@@std@@V?$allocator@U?$pair@$$CBHE@std@@@2@$0A@@std@@@std@@IBEABMXZ ; std::_Hash<std::_Umap_traits<int,unsigned char,std::_Uhash_compare<int,std::hash<int>,std::equal_to<int> >,std::allocator<std::pair<int const ,unsigned char> >,0> >::_Max_bucket_size
PUBLIC	?max_size@?$_Hash_vec@V?$allocator@V?$_List_unchecked_iterator@V?$_List_val@U?$_List_simple_types@U?$pair@$$CBHE@std@@@std@@@std@@@std@@@std@@@std@@QBEIXZ ; std::_Hash_vec<std::allocator<std::_List_unchecked_iterator<std::_List_val<std::_List_simple_types<std::pair<int const ,unsigned char> > > > > >::max_size
PUBLIC	??D?$_List_unchecked_const_iterator@V?$_List_val@U?$_List_simple_types@U?$pair@$$CBHE@std@@@std@@@std@@U_Iterator_base0@2@@std@@QBEABU?$pair@$$CBHE@1@XZ ; std::_List_unchecked_const_iterator<std::_List_val<std::_List_simple_types<std::pair<int const ,unsigned char> > >,std::_Iterator_base0>::operator*
PUBLIC	??E?$_List_unchecked_const_iterator@V?$_List_val@U?$_List_simple_types@U?$pair@$$CBHE@std@@@std@@@std@@U_Iterator_base0@2@@std@@QAEAAV01@XZ ; std::_List_unchecked_const_iterator<std::_List_val<std::_List_simple_types<std::pair<int const ,unsigned char> > >,std::_Iterator_base0>::operator++
PUBLIC	??F?$_List_unchecked_const_iterator@V?$_List_val@U?$_List_simple_types@U?$pair@$$CBHE@std@@@std@@@std@@U_Iterator_base0@2@@std@@QAEAAV01@XZ ; std::_List_unchecked_const_iterator<std::_List_val<std::_List_simple_types<std::pair<int const ,unsigned char> > >,std::_Iterator_base0>::operator--
PUBLIC	??8?$_List_unchecked_const_iterator@V?$_List_val@U?$_List_simple_types@U?$pair@$$CBHE@std@@@std@@@std@@U_Iterator_base0@2@@std@@QBE_NABV01@@Z ; std::_List_unchecked_const_iterator<std::_List_val<std::_List_simple_types<std::pair<int const ,unsigned char> > >,std::_Iterator_base0>::operator==
PUBLIC	??9?$_List_unchecked_const_iterator@V?$_List_val@U?$_List_simple_types@U?$pair@$$CBHE@std@@@std@@@std@@U_Iterator_base0@2@@std@@QBE_NABV01@@Z ; std::_List_unchecked_const_iterator<std::_List_val<std::_List_simple_types<std::pair<int const ,unsigned char> > >,std::_Iterator_base0>::operator!=
PUBLIC	??D?$_List_unchecked_iterator@V?$_List_val@U?$_List_simple_types@U?$pair@$$CBHE@std@@@std@@@std@@@std@@QBEAAU?$pair@$$CBHE@1@XZ ; std::_List_unchecked_iterator<std::_List_val<std::_List_simple_types<std::pair<int const ,unsigned char> > > >::operator*
PUBLIC	??E?$_List_unchecked_iterator@V?$_List_val@U?$_List_simple_types@U?$pair@$$CBHE@std@@@std@@@std@@@std@@QAEAAV01@XZ ; std::_List_unchecked_iterator<std::_List_val<std::_List_simple_types<std::pair<int const ,unsigned char> > > >::operator++
PUBLIC	??0_Clear_guard@?$_Hash@V?$_Umap_traits@HEV?$_Uhash_compare@HU?$hash@H@std@@U?$equal_to@H@2@@std@@V?$allocator@U?$pair@$$CBHE@std@@@2@$0A@@std@@@std@@QAE@QAV12@@Z ; std::_Hash<std::_Umap_traits<int,unsigned char,std::_Uhash_compare<int,std::hash<int>,std::equal_to<int> >,std::allocator<std::pair<int const ,unsigned char> >,0> >::_Clear_guard::_Clear_guard
PUBLIC	??1_Clear_guard@?$_Hash@V?$_Umap_traits@HEV?$_Uhash_compare@HU?$hash@H@std@@U?$equal_to@H@2@@std@@V?$allocator@U?$pair@$$CBHE@std@@@2@$0A@@std@@@std@@QAE@XZ ; std::_Hash<std::_Umap_traits<int,unsigned char,std::_Uhash_compare<int,std::hash<int>,std::equal_to<int> >,std::allocator<std::pair<int const ,unsigned char> >,0> >::_Clear_guard::~_Clear_guard
PUBLIC	?__autoclassinit2@?$_List_unchecked_const_iterator@V?$_List_val@U?$_List_simple_types@U?$pair@$$CBHE@std@@@std@@@std@@U_Iterator_base0@2@@std@@QAEXI@Z ; std::_List_unchecked_const_iterator<std::_List_val<std::_List_simple_types<std::pair<int const ,unsigned char> > >,std::_Iterator_base0>::__autoclassinit2
PUBLIC	?__autoclassinit2@?$_List_unchecked_iterator@V?$_List_val@U?$_List_simple_types@U?$pair@$$CBHE@std@@@std@@@std@@@std@@QAEXI@Z ; std::_List_unchecked_iterator<std::_List_val<std::_List_simple_types<std::pair<int const ,unsigned char> > > >::__autoclassinit2
PUBLIC	?max_size@?$list@U?$pair@$$CBHE@std@@V?$allocator@U?$pair@$$CBHE@std@@@2@@std@@QBEIXZ ; std::list<std::pair<int const ,unsigned char>,std::allocator<std::pair<int const ,unsigned char> > >::max_size
PUBLIC	?bucket_count@?$_Hash@V?$_Umap_traits@HEV?$_Uhash_compare@HU?$hash@H@std@@U?$equal_to@H@2@@std@@V?$allocator@U?$pair@$$CBHE@std@@@2@$0A@@std@@@std@@QBEIXZ ; std::_Hash<std::_Umap_traits<int,unsigned char,std::_Uhash_compare<int,std::hash<int>,std::equal_to<int> >,std::allocator<std::pair<int const ,unsigned char> >,0> >::bucket_count
PUBLIC	?max_load_factor@?$_Hash@V?$_Umap_traits@HEV?$_Uhash_compare@HU?$hash@H@std@@U?$equal_to@H@2@@std@@V?$allocator@U?$pair@$$CBHE@std@@@2@$0A@@std@@@std@@QBEMXZ ; std::_Hash<std::_Umap_traits<int,unsigned char,std::_Uhash_compare<int,std::hash<int>,std::equal_to<int> >,std::allocator<std::pair<int const ,unsigned char> >,0> >::max_load_factor
PUBLIC	?_Desired_grow_bucket_count@?$_Hash@V?$_Umap_traits@HEV?$_Uhash_compare@HU?$hash@H@std@@U?$equal_to@H@2@@std@@V?$allocator@U?$pair@$$CBHE@std@@@2@$0A@@std@@@std@@IBEII@Z ; std::_Hash<std::_Umap_traits<int,unsigned char,std::_Uhash_compare<int,std::hash<int>,std::equal_to<int> >,std::allocator<std::pair<int const ,unsigned char> >,0> >::_Desired_grow_bucket_count
PUBLIC	?_Forced_rehash@?$_Hash@V?$_Umap_traits@HEV?$_Uhash_compare@HU?$hash@H@std@@U?$equal_to@H@2@@std@@V?$allocator@U?$pair@$$CBHE@std@@@2@$0A@@std@@@std@@IAEXI@Z ; std::_Hash<std::_Umap_traits<int,unsigned char,std::_Uhash_compare<int,std::hash<int>,std::equal_to<int> >,std::allocator<std::pair<int const ,unsigned char> >,0> >::_Forced_rehash
PUBLIC	??1?$_Alloc_construct_ptr@V?$allocator@U?$_List_node@U?$pair@$$CBHE@std@@PAX@std@@@std@@@std@@QAE@XZ ; std::_Alloc_construct_ptr<std::allocator<std::_List_node<std::pair<int const ,unsigned char>,void *> > >::~_Alloc_construct_ptr<std::allocator<std::_List_node<std::pair<int const ,unsigned char>,void *> > >
PUBLIC	?deallocate@?$_Default_allocator_traits@V?$allocator@U?$_List_node@U?$pair@$$CBHE@std@@PAX@std@@@std@@@std@@SAXAAV?$allocator@U?$_List_node@U?$pair@$$CBHE@std@@PAX@std@@@2@QAU?$_List_node@U?$pair@$$CBHE@std@@PAX@2@I@Z ; std::_Default_allocator_traits<std::allocator<std::_List_node<std::pair<int const ,unsigned char>,void *> > >::deallocate
PUBLIC	??0?$_List_val@U?$_List_simple_types@U?$pair@$$CBHE@std@@@std@@@std@@QAE@XZ ; std::_List_val<std::_List_simple_types<std::pair<int const ,unsigned char> > >::_List_val<std::_List_simple_types<std::pair<int const ,unsigned char> > >
PUBLIC	?_Insert_new_node_before@?$_Hash@V?$_Umap_traits@HEV?$_Uhash_compare@HU?$hash@H@std@@U?$equal_to@H@2@@std@@V?$allocator@U?$pair@$$CBHE@std@@@2@$0A@@std@@@std@@IAEPAU?$_List_node@U?$pair@$$CBHE@std@@PAX@2@IQAU32@0@Z ; std::_Hash<std::_Umap_traits<int,unsigned char,std::_Uhash_compare<int,std::hash<int>,std::equal_to<int> >,std::allocator<std::pair<int const ,unsigned char> >,0> >::_Insert_new_node_before
PUBLIC	?_Check_max_size@?$_Hash@V?$_Umap_traits@HEV?$_Uhash_compare@HU?$hash@H@std@@U?$equal_to@H@2@@std@@V?$allocator@U?$pair@$$CBHE@std@@@2@$0A@@std@@@std@@IBEXXZ ; std::_Hash<std::_Umap_traits<int,unsigned char,std::_Uhash_compare<int,std::hash<int>,std::equal_to<int> >,std::allocator<std::pair<int const ,unsigned char> >,0> >::_Check_max_size
PUBLIC	?_Check_rehash_required_1@?$_Hash@V?$_Umap_traits@HEV?$_Uhash_compare@HU?$hash@H@std@@U?$equal_to@H@2@@std@@V?$allocator@U?$pair@$$CBHE@std@@@2@$0A@@std@@@std@@IBE_NXZ ; std::_Hash<std::_Umap_traits<int,unsigned char,std::_Uhash_compare<int,std::hash<int>,std::equal_to<int> >,std::allocator<std::pair<int const ,unsigned char> >,0> >::_Check_rehash_required_1
PUBLIC	?_Rehash_for_1@?$_Hash@V?$_Umap_traits@HEV?$_Uhash_compare@HU?$hash@H@std@@U?$equal_to@H@2@@std@@V?$allocator@U?$pair@$$CBHE@std@@@2@$0A@@std@@@std@@IAEXXZ ; std::_Hash<std::_Umap_traits<int,unsigned char,std::_Uhash_compare<int,std::hash<int>,std::equal_to<int> >,std::allocator<std::pair<int const ,unsigned char> >,0> >::_Rehash_for_1
PUBLIC	?_Release@?$_Alloc_construct_ptr@V?$allocator@U?$_List_node@U?$pair@$$CBHE@std@@PAX@std@@@std@@@std@@QAEPAU?$_List_node@U?$pair@$$CBHE@std@@PAX@2@XZ ; std::_Alloc_construct_ptr<std::allocator<std::_List_node<std::pair<int const ,unsigned char>,void *> > >::_Release
PUBLIC	??1?$_List_node_emplace_op2@V?$allocator@U?$_List_node@U?$pair@$$CBHE@std@@PAX@std@@@std@@@std@@QAE@XZ ; std::_List_node_emplace_op2<std::allocator<std::_List_node<std::pair<int const ,unsigned char>,void *> > >::~_List_node_emplace_op2<std::allocator<std::_List_node<std::pair<int const ,unsigned char>,void *> > >
PUBLIC	??0?$_Uninitialized_backout@PAV?$_List_unchecked_iterator@V?$_List_val@U?$_List_simple_types@U?$pair@$$CBHE@std@@@std@@@std@@@std@@@std@@QAE@PAV?$_List_unchecked_iterator@V?$_List_val@U?$_List_simple_types@U?$pair@$$CBHE@std@@@std@@@std@@@1@@Z ; std::_Uninitialized_backout<std::_List_unchecked_iterator<std::_List_val<std::_List_simple_types<std::pair<int const ,unsigned char> > > > *>::_Uninitialized_backout<std::_List_unchecked_iterator<std::_List_val<std::_List_simple_types<std::pair<int const ,unsigned char> > > > *>
PUBLIC	??1?$_Uninitialized_backout@PAV?$_List_unchecked_iterator@V?$_List_val@U?$_List_simple_types@U?$pair@$$CBHE@std@@@std@@@std@@@std@@@std@@QAE@XZ ; std::_Uninitialized_backout<std::_List_unchecked_iterator<std::_List_val<std::_List_simple_types<std::pair<int const ,unsigned char> > > > *>::~_Uninitialized_backout<std::_List_unchecked_iterator<std::_List_val<std::_List_simple_types<std::pair<int const ,unsigned char> > > > *>
PUBLIC	?_Release@?$_Uninitialized_backout@PAV?$_List_unchecked_iterator@V?$_List_val@U?$_List_simple_types@U?$pair@$$CBHE@std@@@std@@@std@@@std@@@std@@QAEPAV?$_List_unchecked_iterator@V?$_List_val@U?$_List_simple_types@U?$pair@$$CBHE@std@@@std@@@std@@@2@XZ ; std::_Uninitialized_backout<std::_List_unchecked_iterator<std::_List_val<std::_List_simple_types<std::pair<int const ,unsigned char> > > > *>::_Release
PUBLIC	??$_Get_size_of_n@$0BA@@std@@YAII@Z		; std::_Get_size_of_n<16>
PUBLIC	??$_Construct_in_place@PAU?$_List_node@U?$pair@$$CBHE@std@@PAX@std@@AAPAU12@@std@@YAXAAPAU?$_List_node@U?$pair@$$CBHE@std@@PAX@0@0@Z ; std::_Construct_in_place<std::_List_node<std::pair<int const ,unsigned char>,void *> *,std::_List_node<std::pair<int const ,unsigned char>,void *> * &>
PUBLIC	??$?0ABV?$allocator@U?$pair@$$CBHE@std@@@std@@$$V@?$_Compressed_pair@V?$allocator@U?$_List_node@U?$pair@$$CBHE@std@@PAX@std@@@std@@V?$_List_val@U?$_List_simple_types@U?$pair@$$CBHE@std@@@std@@@2@$00@std@@QAE@U_One_then_variadic_args_t@1@ABV?$allocator@U?$pair@$$CBHE@std@@@1@@Z ; std::_Compressed_pair<std::allocator<std::_List_node<std::pair<int const ,unsigned char>,void *> >,std::_List_val<std::_List_simple_types<std::pair<int const ,unsigned char> > >,1>::_Compressed_pair<std::allocator<std::_List_node<std::pair<int const ,unsigned char>,void *> >,std::_List_val<std::_List_simple_types<std::pair<int const ,unsigned char> > >,1><std::allocator<std::pair<int const ,unsigned char> > const &>
PUBLIC	??$fill@PAV?$_List_unchecked_iterator@V?$_List_val@U?$_List_simple_types@U?$pair@$$CBHE@std@@@std@@@std@@@std@@V12@@std@@YAXQAV?$_List_unchecked_iterator@V?$_List_val@U?$_List_simple_types@U?$pair@$$CBHE@std@@@std@@@std@@@0@0ABV10@@Z ; std::fill<std::_List_unchecked_iterator<std::_List_val<std::_List_simple_types<std::pair<int const ,unsigned char> > > > *,std::_List_unchecked_iterator<std::_List_val<std::_List_simple_types<std::pair<int const ,unsigned char> > > > >
PUBLIC	??$_Get_unwrapped@ABQAV?$_List_unchecked_iterator@V?$_List_val@U?$_List_simple_types@U?$pair@$$CBHE@std@@@std@@@std@@@std@@@std@@YAPAV?$_List_unchecked_iterator@V?$_List_val@U?$_List_simple_types@U?$pair@$$CBHE@std@@@std@@@std@@@0@ABQAV10@@Z ; std::_Get_unwrapped<std::_List_unchecked_iterator<std::_List_val<std::_List_simple_types<std::pair<int const ,unsigned char> > > > * const &>
PUBLIC	??$uninitialized_fill@PAV?$_List_unchecked_iterator@V?$_List_val@U?$_List_simple_types@U?$pair@$$CBHE@std@@@std@@@std@@@std@@V12@@std@@YAXQAV?$_List_unchecked_iterator@V?$_List_val@U?$_List_simple_types@U?$pair@$$CBHE@std@@@std@@@std@@@0@0ABV10@@Z ; std::uninitialized_fill<std::_List_unchecked_iterator<std::_List_val<std::_List_simple_types<std::pair<int const ,unsigned char> > > > *,std::_List_unchecked_iterator<std::_List_val<std::_List_simple_types<std::pair<int const ,unsigned char> > > > >
PUBLIC	??$_Freenode0@V?$allocator@U?$_List_node@U?$pair@$$CBHE@std@@PAX@std@@@std@@@?$_List_node@U?$pair@$$CBHE@std@@PAX@std@@SAXAAV?$allocator@U?$_List_node@U?$pair@$$CBHE@std@@PAX@std@@@1@PAU01@@Z ; std::_List_node<std::pair<int const ,unsigned char>,void *>::_Freenode0<std::allocator<std::_List_node<std::pair<int const ,unsigned char>,void *> > >
PUBLIC	??$_Free_non_head@V?$allocator@U?$_List_node@U?$pair@$$CBHE@std@@PAX@std@@@std@@@?$_List_node@U?$pair@$$CBHE@std@@PAX@std@@SAXAAV?$allocator@U?$_List_node@U?$pair@$$CBHE@std@@PAX@std@@@1@PAU01@@Z ; std::_List_node<std::pair<int const ,unsigned char>,void *>::_Free_non_head<std::allocator<std::_List_node<std::pair<int const ,unsigned char>,void *> > >
PUBLIC	??$?0ABV?$allocator@U?$pair@$$CBHE@std@@@std@@$0A@@?$_Hash_vec@V?$allocator@V?$_List_unchecked_iterator@V?$_List_val@U?$_List_simple_types@U?$pair@$$CBHE@std@@@std@@@std@@@std@@@std@@@std@@QAE@ABV?$allocator@U?$pair@$$CBHE@std@@@1@@Z ; std::_Hash_vec<std::allocator<std::_List_unchecked_iterator<std::_List_val<std::_List_simple_types<std::pair<int const ,unsigned char> > > > > >::_Hash_vec<std::allocator<std::_List_unchecked_iterator<std::_List_val<std::_List_simple_types<std::pair<int const ,unsigned char> > > > > ><std::allocator<std::pair<int const ,unsigned char> > const &,0>
PUBLIC	??$_Destroy_range@PAV?$_List_unchecked_iterator@V?$_List_val@U?$_List_simple_types@U?$pair@$$CBHE@std@@@std@@@std@@@std@@@std@@YAXPAV?$_List_unchecked_iterator@V?$_List_val@U?$_List_simple_types@U?$pair@$$CBHE@std@@@std@@@std@@@0@QAV10@@Z ; std::_Destroy_range<std::_List_unchecked_iterator<std::_List_val<std::_List_simple_types<std::pair<int const ,unsigned char> > > > *>
PUBLIC	??$_Try_emplace@ABH$$V@?$_Hash@V?$_Umap_traits@HEV?$_Uhash_compare@HU?$hash@H@std@@U?$equal_to@H@2@@std@@V?$allocator@U?$pair@$$CBHE@std@@@2@$0A@@std@@@std@@IAE?AU?$pair@PAU?$_List_node@U?$pair@$$CBHE@std@@PAX@std@@_N@1@ABH@Z ; std::_Hash<std::_Umap_traits<int,unsigned char,std::_Uhash_compare<int,std::hash<int>,std::equal_to<int> >,std::allocator<std::pair<int const ,unsigned char> >,0> >::_Try_emplace<int const &>
PUBLIC	?allocate@?$allocator@U?$_List_node@U?$pair@$$CBHE@std@@PAX@std@@@std@@QAEPAU?$_List_node@U?$pair@$$CBHE@std@@PAX@2@I@Z ; std::allocator<std::_List_node<std::pair<int const ,unsigned char>,void *> >::allocate
PUBLIC	?_Alloc_sentinel_and_proxy@?$list@U?$pair@$$CBHE@std@@V?$allocator@U?$pair@$$CBHE@std@@@2@@std@@AAEXXZ ; std::list<std::pair<int const ,unsigned char>,std::allocator<std::pair<int const ,unsigned char> > >::_Alloc_sentinel_and_proxy
PUBLIC	?_Get_first@?$_Compressed_pair@V?$allocator@U?$_List_node@U?$pair@$$CBHE@std@@PAX@std@@@std@@V?$_List_val@U?$_List_simple_types@U?$pair@$$CBHE@std@@@std@@@2@$00@std@@QAEAAV?$allocator@U?$_List_node@U?$pair@$$CBHE@std@@PAX@std@@@2@XZ ; std::_Compressed_pair<std::allocator<std::_List_node<std::pair<int const ,unsigned char>,void *> >,std::_List_val<std::_List_simple_types<std::pair<int const ,unsigned char> > >,1>::_Get_first
PUBLIC	?allocate@?$allocator@V?$_List_unchecked_iterator@V?$_List_val@U?$_List_simple_types@U?$pair@$$CBHE@std@@@std@@@std@@@std@@@std@@QAEPAV?$_List_unchecked_iterator@V?$_List_val@U?$_List_simple_types@U?$pair@$$CBHE@std@@@std@@@std@@@2@I@Z ; std::allocator<std::_List_unchecked_iterator<std::_List_val<std::_List_simple_types<std::pair<int const ,unsigned char> > > > >::allocate
PUBLIC	??0?$_List_unchecked_const_iterator@V?$_List_val@U?$_List_simple_types@U?$pair@$$CBHE@std@@@std@@@std@@U_Iterator_base0@2@@std@@QAE@PAU?$_List_node@U?$pair@$$CBHE@std@@PAX@1@PBV?$_List_val@U?$_List_simple_types@U?$pair@$$CBHE@std@@@std@@@1@@Z ; std::_List_unchecked_const_iterator<std::_List_val<std::_List_simple_types<std::pair<int const ,unsigned char> > >,std::_Iterator_base0>::_List_unchecked_const_iterator<std::_List_val<std::_List_simple_types<std::pair<int const ,unsigned char> > >,std::_Iterator_base0>
PUBLIC	??0?$_List_unchecked_iterator@V?$_List_val@U?$_List_simple_types@U?$pair@$$CBHE@std@@@std@@@std@@@std@@QAE@PAU?$_List_node@U?$pair@$$CBHE@std@@PAX@1@PBV?$_List_val@U?$_List_simple_types@U?$pair@$$CBHE@std@@@std@@@1@@Z ; std::_List_unchecked_iterator<std::_List_val<std::_List_simple_types<std::pair<int const ,unsigned char> > > >::_List_unchecked_iterator<std::_List_val<std::_List_simple_types<std::pair<int const ,unsigned char> > > >
PUBLIC	??0?$_Umap_traits@HEV?$_Uhash_compare@HU?$hash@H@std@@U?$equal_to@H@2@@std@@V?$allocator@U?$pair@$$CBHE@std@@@2@$0A@@std@@QAE@ABV?$_Uhash_compare@HU?$hash@H@std@@U?$equal_to@H@2@@1@@Z ; std::_Umap_traits<int,unsigned char,std::_Uhash_compare<int,std::hash<int>,std::equal_to<int> >,std::allocator<std::pair<int const ,unsigned char> >,0>::_Umap_traits<int,unsigned char,std::_Uhash_compare<int,std::hash<int>,std::equal_to<int> >,std::allocator<std::pair<int const ,unsigned char> >,0>
PUBLIC	??0?$list@U?$pair@$$CBHE@std@@V?$allocator@U?$pair@$$CBHE@std@@@2@@std@@QAE@ABV?$allocator@U?$pair@$$CBHE@std@@@1@@Z ; std::list<std::pair<int const ,unsigned char>,std::allocator<std::pair<int const ,unsigned char> > >::list<std::pair<int const ,unsigned char>,std::allocator<std::pair<int const ,unsigned char> > >
PUBLIC	?_Unchecked_end@?$list@U?$pair@$$CBHE@std@@V?$allocator@U?$pair@$$CBHE@std@@@2@@std@@QAE?AV?$_List_unchecked_iterator@V?$_List_val@U?$_List_simple_types@U?$pair@$$CBHE@std@@@std@@@std@@@2@XZ ; std::list<std::pair<int const ,unsigned char>,std::allocator<std::pair<int const ,unsigned char> > >::_Unchecked_end
PUBLIC	?_Getal@?$list@U?$pair@$$CBHE@std@@V?$allocator@U?$pair@$$CBHE@std@@@2@@std@@AAEAAV?$allocator@U?$_List_node@U?$pair@$$CBHE@std@@PAX@std@@@2@XZ ; std::list<std::pair<int const ,unsigned char>,std::allocator<std::pair<int const ,unsigned char> > >::_Getal
PUBLIC	?_Max_bucket_size@?$_Hash@V?$_Umap_traits@HEV?$_Uhash_compare@HU?$hash@H@std@@U?$equal_to@H@2@@std@@V?$allocator@U?$pair@$$CBHE@std@@@2@$0A@@std@@@std@@IAEAAMXZ ; std::_Hash<std::_Umap_traits<int,unsigned char,std::_Uhash_compare<int,std::hash<int>,std::equal_to<int> >,std::allocator<std::pair<int const ,unsigned char> >,0> >::_Max_bucket_size
PUBLIC	?deallocate@?$allocator@V?$_List_unchecked_iterator@V?$_List_val@U?$_List_simple_types@U?$pair@$$CBHE@std@@@std@@@std@@@std@@@std@@QAEXQAV?$_List_unchecked_iterator@V?$_List_val@U?$_List_simple_types@U?$pair@$$CBHE@std@@@std@@@std@@@2@I@Z ; std::allocator<std::_List_unchecked_iterator<std::_List_val<std::_List_simple_types<std::pair<int const ,unsigned char> > > > >::deallocate
PUBLIC	?size@?$_Hash_vec@V?$allocator@V?$_List_unchecked_iterator@V?$_List_val@U?$_List_simple_types@U?$pair@$$CBHE@std@@@std@@@std@@@std@@@std@@@std@@QBEIXZ ; std::_Hash_vec<std::allocator<std::_List_unchecked_iterator<std::_List_val<std::_List_simple_types<std::pair<int const ,unsigned char> > > > > >::size
PUBLIC	?_Assign_grow@?$_Hash_vec@V?$allocator@V?$_List_unchecked_iterator@V?$_List_val@U?$_List_simple_types@U?$pair@$$CBHE@std@@@std@@@std@@@std@@@std@@@std@@QAEXIV?$_List_unchecked_iterator@V?$_List_val@U?$_List_simple_types@U?$pair@$$CBHE@std@@@std@@@std@@@2@@Z ; std::_Hash_vec<std::allocator<std::_List_unchecked_iterator<std::_List_val<std::_List_simple_types<std::pair<int const ,unsigned char> > > > > >::_Assign_grow
PUBLIC	?_Get_first@?$_Compressed_pair@V?$allocator@V?$_List_unchecked_iterator@V?$_List_val@U?$_List_simple_types@U?$pair@$$CBHE@std@@@std@@@std@@@std@@@std@@V?$_Vector_val@U?$_Simple_types@V?$_List_unchecked_iterator@V?$_List_val@U?$_List_simple_types@U?$pair@$$CBHE@std@@@std@@@std@@@std@@@std@@@2@$00@std@@QAEAAV?$allocator@V?$_List_unchecked_iterator@V?$_List_val@U?$_List_simple_types@U?$pair@$$CBHE@std@@@std@@@std@@@std@@@2@XZ ; std::_Compressed_pair<std::allocator<std::_List_unchecked_iterator<std::_List_val<std::_List_simple_types<std::pair<int const ,unsigned char> > > > >,std::_Vector_val<std::_Simple_types<std::_List_unchecked_iterator<std::_List_val<std::_List_simple_types<std::pair<int const ,unsigned char> > > > > >,1>::_Get_first
PUBLIC	??0?$allocator@U?$pair@$$CBHE@std@@@std@@QAE@XZ	; std::allocator<std::pair<int const ,unsigned char> >::allocator<std::pair<int const ,unsigned char> >
PUBLIC	?_Tidy@?$list@U?$pair@$$CBHE@std@@V?$allocator@U?$pair@$$CBHE@std@@@2@@std@@AAEXXZ ; std::list<std::pair<int const ,unsigned char>,std::allocator<std::pair<int const ,unsigned char> > >::_Tidy
PUBLIC	??0?$_Hash@V?$_Umap_traits@HEV?$_Uhash_compare@HU?$hash@H@std@@U?$equal_to@H@2@@std@@V?$allocator@U?$pair@$$CBHE@std@@@2@$0A@@std@@@std@@IAE@ABV?$_Uhash_compare@HU?$hash@H@std@@U?$equal_to@H@2@@1@ABV?$allocator@U?$pair@$$CBHE@std@@@1@@Z ; std::_Hash<std::_Umap_traits<int,unsigned char,std::_Uhash_compare<int,std::hash<int>,std::equal_to<int> >,std::allocator<std::pair<int const ,unsigned char> >,0> >::_Hash<std::_Umap_traits<int,unsigned char,std::_Uhash_compare<int,std::hash<int>,std::equal_to<int> >,std::allocator<std::pair<int const ,unsigned char> >,0> >
PUBLIC	?_Tidy@?$_Hash_vec@V?$allocator@V?$_List_unchecked_iterator@V?$_List_val@U?$_List_simple_types@U?$pair@$$CBHE@std@@@std@@@std@@@std@@@std@@@std@@QAEXXZ ; std::_Hash_vec<std::allocator<std::_List_unchecked_iterator<std::_List_val<std::_List_simple_types<std::pair<int const ,unsigned char> > > > > >::_Tidy
PUBLIC	??1?$list@U?$pair@$$CBHE@std@@V?$allocator@U?$pair@$$CBHE@std@@@2@@std@@QAE@XZ ; std::list<std::pair<int const ,unsigned char>,std::allocator<std::pair<int const ,unsigned char> > >::~list<std::pair<int const ,unsigned char>,std::allocator<std::pair<int const ,unsigned char> > >
PUBLIC	??1?$_Hash_vec@V?$allocator@V?$_List_unchecked_iterator@V?$_List_val@U?$_List_simple_types@U?$pair@$$CBHE@std@@@std@@@std@@@std@@@std@@@std@@QAE@XZ ; std::_Hash_vec<std::allocator<std::_List_unchecked_iterator<std::_List_val<std::_List_simple_types<std::pair<int const ,unsigned char> > > > > >::~_Hash_vec<std::allocator<std::_List_unchecked_iterator<std::_List_val<std::_List_simple_types<std::pair<int const ,unsigned char> > > > > >
PUBLIC	??0?$unordered_map@HEU?$hash@H@std@@U?$equal_to@H@2@V?$allocator@U?$pair@$$CBHE@std@@@2@@std@@QAE@XZ ; std::unordered_map<int,unsigned char,std::hash<int>,std::equal_to<int>,std::allocator<std::pair<int const ,unsigned char> > >::unordered_map<int,unsigned char,std::hash<int>,std::equal_to<int>,std::allocator<std::pair<int const ,unsigned char> > >
PUBLIC	??A?$unordered_map@HEU?$hash@H@std@@U?$equal_to@H@2@V?$allocator@U?$pair@$$CBHE@std@@@2@@std@@QAEAAEABH@Z ; std::unordered_map<int,unsigned char,std::hash<int>,std::equal_to<int>,std::allocator<std::pair<int const ,unsigned char> > >::operator[]
PUBLIC	?checkState@Window@@SAEH@Z			; Window::checkState
PUBLIC	?Destroy@Window@@QAEXXZ				; Window::Destroy
PUBLIC	?SHouldExit@Window@@QAEEXZ			; Window::SHouldExit
PUBLIC	?clear@Window@@QAEXXZ				; Window::clear
PUBLIC	?Update@Window@@QAEXXZ				; Window::Update
PUBLIC	?Render@Window@@QAEXXZ				; Window::Render
PUBLIC	??0Window@@QAE@HHQBD@Z				; Window::Window
PUBLIC	?key_callback@@YAXPAUGLFWwindow@@HHHH@Z		; key_callback
PUBLIC	?GLDebugMessageCallback@@YGXIIIIHPBDPBX@Z	; GLDebugMessageCallback
PUBLIC	??1?$_Hash@V?$_Umap_traits@HEV?$_Uhash_compare@HU?$hash@H@std@@U?$equal_to@H@2@@std@@V?$allocator@U?$pair@$$CBHE@std@@@2@$0A@@std@@@std@@QAE@XZ ; std::_Hash<std::_Umap_traits<int,unsigned char,std::_Uhash_compare<int,std::hash<int>,std::equal_to<int> >,std::allocator<std::pair<int const ,unsigned char> >,0> >::~_Hash<std::_Umap_traits<int,unsigned char,std::_Uhash_compare<int,std::hash<int>,std::equal_to<int> >,std::allocator<std::pair<int const ,unsigned char> >,0> >
PUBLIC	?__autoclassinit2@?$unordered_map@HEU?$hash@H@std@@U?$equal_to@H@2@V?$allocator@U?$pair@$$CBHE@std@@@2@@std@@QAEXI@Z ; std::unordered_map<int,unsigned char,std::hash<int>,std::equal_to<int>,std::allocator<std::pair<int const ,unsigned char> > >::__autoclassinit2
PUBLIC	??1?$unordered_map@HEU?$hash@H@std@@U?$equal_to@H@2@V?$allocator@U?$pair@$$CBHE@std@@@2@@std@@QAE@XZ ; std::unordered_map<int,unsigned char,std::hash<int>,std::equal_to<int>,std::allocator<std::pair<int const ,unsigned char> > >::~unordered_map<int,unsigned char,std::hash<int>,std::equal_to<int>,std::allocator<std::pair<int const ,unsigned char> > >
PUBLIC	_printf
PUBLIC	__vfprintf_l
PUBLIC	___local_stdio_printf_options
?keys@@3V?$unordered_map@HEU?$hash@H@std@@U?$equal_to@H@2@V?$allocator@U?$pair@$$CBHE@std@@@2@@std@@A DB 020H DUP (?) ; keys
?lastkeys@@3V?$unordered_map@HEU?$hash@H@std@@U?$equal_to@H@2@V?$allocator@U?$pair@$$CBHE@std@@@2@@std@@A DB 020H DUP (?) ; lastkeys
_BSS	ENDS
CRT$XCU	SEGMENT
?keys$initializer$@@3P6AXXZA DD FLAT:??__Ekeys@@YAXXZ	; keys$initializer$
;	COMDAT xdata$x
xdata$x	SEGMENT
__ehfuncinfo$??0?$unordered_map@HEU?$hash@H@std@@U?$equal_to@H@2@V?$allocator@U?$pair@$$CBHE@std@@@2@@std@@QAE@XZ DQ 00000000219930522r ; 4.45598e-314
	DD	FLAT:__unwindtable$??0?$unordered_map@HEU?$hash@H@std@@U?$equal_to@H@2@V?$allocator@U?$pair@$$CBHE@std@@@2@@std@@QAE@XZ
	DQ	00000000000000000r		; 0
	DQ	00000000000000000r		; 0
	DQ	00000000100000000r		; 2.122e-314
__unwindtable$??0?$unordered_map@HEU?$hash@H@std@@U?$equal_to@H@2@V?$allocator@U?$pair@$$CBHE@std@@@2@@std@@QAE@XZ DD 0ffffffffH
	DD	FLAT:__unwindfunclet$??0?$unordered_map@HEU?$hash@H@std@@U?$equal_to@H@2@V?$allocator@U?$pair@$$CBHE@std@@@2@@std@@QAE@XZ$1
	DD	00H
	DD	FLAT:__unwindfunclet$??0?$unordered_map@HEU?$hash@H@std@@U?$equal_to@H@2@V?$allocator@U?$pair@$$CBHE@std@@@2@@std@@QAE@XZ$2
xdata$x	ENDS
;	COMDAT xdata$x
xdata$x	SEGMENT
__ehfuncinfo$??0?$_Hash@V?$_Umap_traits@HEV?$_Uhash_compare@HU?$hash@H@std@@U?$equal_to@H@2@@std@@V?$allocator@U?$pair@$$CBHE@std@@@2@$0A@@std@@@std@@IAE@ABV?$_Uhash_compare@HU?$hash@H@std@@U?$equal_to@H@2@@1@ABV?$allocator@U?$pair@$$CBHE@std@@@1@@Z DQ 00000000219930522r ; 4.45598e-314
	DD	FLAT:__unwindtable$??0?$_Hash@V?$_Umap_traits@HEV?$_Uhash_compare@HU?$hash@H@std@@U?$equal_to@H@2@@std@@V?$allocator@U?$pair@$$CBHE@std@@@2@$0A@@std@@@std@@IAE@ABV?$_Uhash_compare@HU?$hash@H@std@@U?$equal_to@H@2@@1@ABV?$allocator@U?$pair@$$CBHE@std@@@1@@Z
	DQ	00000000000000000r		; 0
	DQ	00000000000000000r		; 0
	DQ	00000000100000000r		; 2.122e-314
__unwindtable$??0?$_Hash@V?$_Umap_traits@HEV?$_Uhash_compare@HU?$hash@H@std@@U?$equal_to@H@2@@std@@V?$allocator@U?$pair@$$CBHE@std@@@2@$0A@@std@@@std@@IAE@ABV?$_Uhash_compare@HU?$hash@H@std@@U?$equal_to@H@2@@1@ABV?$allocator@U?$pair@$$CBHE@std@@@1@@Z DD 0ffffffffH
	DD	FLAT:__unwindfunclet$??0?$_Hash@V?$_Umap_traits@HEV?$_Uhash_compare@HU?$hash@H@std@@U?$equal_to@H@2@@std@@V?$allocator@U?$pair@$$CBHE@std@@@2@$0A@@std@@@std@@IAE@ABV?$_Uhash_compare@HU?$hash@H@std@@U?$equal_to@H@2@@1@ABV?$allocator@U?$pair@$$CBHE@std@@@1@@Z$0
	DD	00H
	DD	FLAT:__unwindfunclet$??0?$_Hash@V?$_Umap_traits@HEV?$_Uhash_compare@HU?$hash@H@std@@U?$equal_to@H@2@@std@@V?$allocator@U?$pair@$$CBHE@std@@@2@$0A@@std@@@std@@IAE@ABV?$_Uhash_compare@HU?$hash@H@std@@U?$equal_to@H@2@@1@ABV?$allocator@U?$pair@$$CBHE@std@@@1@@Z$1
xdata$x	ENDS
;	COMDAT xdata$x
xdata$x	SEGMENT
__ehfuncinfo$??$_Try_emplace@ABH$$V@?$_Hash@V?$_Umap_traits@HEV?$_Uhash_compare@HU?$hash@H@std@@U?$equal_to@H@2@@std@@V?$allocator@U?$pair@$$CBHE@std@@@2@$0A@@std@@@std@@IAE?AU?$pair@PAU?$_List_node@U?$pair@$$CBHE@std@@PAX@std@@_N@1@ABH@Z DQ 00000000219930522r ; 4.45598e-314
	DD	FLAT:__unwindtable$??$_Try_emplace@ABH$$V@?$_Hash@V?$_Umap_traits@HEV?$_Uhash_compare@HU?$hash@H@std@@U?$equal_to@H@2@@std@@V?$allocator@U?$pair@$$CBHE@std@@@2@$0A@@std@@@std@@IAE?AU?$pair@PAU?$_List_node@U?$pair@$$CBHE@std@@PAX@std@@_N@1@ABH@Z
	DQ	00000000000000000r		; 0
	DQ	00000000000000000r		; 0
	DQ	00000000100000000r		; 2.122e-314
__unwindtable$??$_Try_emplace@ABH$$V@?$_Hash@V?$_Umap_traits@HEV?$_Uhash_compare@HU?$hash@H@std@@U?$equal_to@H@2@@std@@V?$allocator@U?$pair@$$CBHE@std@@@2@$0A@@std@@@std@@IAE?AU?$pair@PAU?$_List_node@U?$pair@$$CBHE@std@@PAX@std@@_N@1@ABH@Z DD 0ffffffffH
	DD	FLAT:__unwindfunclet$??$_Try_emplace@ABH$$V@?$_Hash@V?$_Umap_traits@HEV?$_Uhash_compare@HU?$hash@H@std@@U?$equal_to@H@2@@std@@V?$allocator@U?$pair@$$CBHE@std@@@2@$0A@@std@@@std@@IAE?AU?$pair@PAU?$_List_node@U?$pair@$$CBHE@std@@PAX@std@@_N@1@ABH@Z$1
	DD	0ffffffffH
	DD	FLAT:__unwindfunclet$??$_Try_emplace@ABH$$V@?$_Hash@V?$_Umap_traits@HEV?$_Uhash_compare@HU?$hash@H@std@@U?$equal_to@H@2@@std@@V?$allocator@U?$pair@$$CBHE@std@@@2@$0A@@std@@@std@@IAE?AU?$pair@PAU?$_List_node@U?$pair@$$CBHE@std@@PAX@std@@_N@1@ABH@Z$0
xdata$x	ENDS
;	COMDAT xdata$x
xdata$x	SEGMENT
__ehfuncinfo$??$?0ABUpiecewise_construct_t@std@@V?$tuple@ABH@1@V?$tuple@$$V@1@@?$_List_node_emplace_op2@V?$allocator@U?$_List_node@U?$pair@$$CBHE@std@@PAX@std@@@std@@@std@@QAE@AAV?$allocator@U?$_List_node@U?$pair@$$CBHE@std@@PAX@std@@@1@ABUpiecewise_construct_t@1@$$QAV?$tuple@ABH@1@$$QAV?$tuple@$$V@1@@Z DQ 00000000119930522r ; 2.33398e-314
	DD	FLAT:__unwindtable$??$?0ABUpiecewise_construct_t@std@@V?$tuple@ABH@1@V?$tuple@$$V@1@@?$_List_node_emplace_op2@V?$allocator@U?$_List_node@U?$pair@$$CBHE@std@@PAX@std@@@std@@@std@@QAE@AAV?$allocator@U?$_List_node@U?$pair@$$CBHE@std@@PAX@std@@@1@ABUpiecewise_construct_t@1@$$QAV?$tuple@ABH@1@$$QAV?$tuple@$$V@1@@Z
	DQ	00000000000000000r		; 0
	DQ	00000000000000000r		; 0
	DQ	00000000100000000r		; 2.122e-314
__unwindtable$??$?0ABUpiecewise_construct_t@std@@V?$tuple@ABH@1@V?$tuple@$$V@1@@?$_List_node_emplace_op2@V?$allocator@U?$_List_node@U?$pair@$$CBHE@std@@PAX@std@@@std@@@std@@QAE@AAV?$allocator@U?$_List_node@U?$pair@$$CBHE@std@@PAX@std@@@1@ABUpiecewise_construct_t@1@$$QAV?$tuple@ABH@1@$$QAV?$tuple@$$V@1@@Z DD 0ffffffffH
	DD	FLAT:__unwindfunclet$??$?0ABUpiecewise_construct_t@std@@V?$tuple@ABH@1@V?$tuple@$$V@1@@?$_List_node_emplace_op2@V?$allocator@U?$_List_node@U?$pair@$$CBHE@std@@PAX@std@@@std@@@std@@QAE@AAV?$allocator@U?$_List_node@U?$pair@$$CBHE@std@@PAX@std@@@1@ABUpiecewise_construct_t@1@$$QAV?$tuple@ABH@1@$$QAV?$tuple@$$V@1@@Z$0
CRT$XCU	SEGMENT
?lastkeys$initializer$@@3P6AXXZA DD FLAT:??__Elastkeys@@YAXXZ ; lastkeys$initializer$
CRT$XCU	ENDS
CRT$XCU	ENDS
; Function compile flags: /Ogtp
;	COMDAT ??__Ekeys@@YAXXZ
text$di	SEGMENT
??__Ekeys@@YAXXZ PROC					; `dynamic initializer for 'keys'', COMDAT
; File D:\Platformer\CPPGame-a38d0db726ab2ff89afdd02c18394bd0c58340c9\CPPGame-a38d0db726ab2ff89afdd02c18394bd0c58340c9\PlatformerGame\src\GameEngine\WIndow.cpp
; Line 20
	mov	ecx, OFFSET ?keys@@3V?$unordered_map@HEU?$hash@H@std@@U?$equal_to@H@2@V?$allocator@U?$pair@$$CBHE@std@@@2@@std@@A
	call	??0?$unordered_map@HEU?$hash@H@std@@U?$equal_to@H@2@V?$allocator@U?$pair@$$CBHE@std@@@2@@std@@QAE@XZ ; std::unordered_map<int,unsigned char,std::hash<int>,std::equal_to<int>,std::allocator<std::pair<int const ,unsigned char> > >::unordered_map<int,unsigned char,std::hash<int>,std::equal_to<int>,std::allocator<std::pair<int const ,unsigned char> > >
	push	OFFSET ??__Fkeys@@YAXXZ			; `dynamic atexit destructor for 'keys''
	call	_atexit
	pop	ecx
	ret	0
??__Ekeys@@YAXXZ ENDP					; `dynamic initializer for 'keys''
text$di	ENDS
; Function compile flags: /Ogtp
;	COMDAT ??__Fkeys@@YAXXZ
text$yd	SEGMENT
??__Fkeys@@YAXXZ PROC					; `dynamic atexit destructor for 'keys'', COMDAT
	mov	ecx, OFFSET ?keys@@3V?$unordered_map@HEU?$hash@H@std@@U?$equal_to@H@2@V?$allocator@U?$pair@$$CBHE@std@@@2@@std@@A
	jmp	??1?$_Hash@V?$_Umap_traits@HEV?$_Uhash_compare@HU?$hash@H@std@@U?$equal_to@H@2@@std@@V?$allocator@U?$pair@$$CBHE@std@@@2@$0A@@std@@@std@@QAE@XZ
??__Fkeys@@YAXXZ ENDP					; `dynamic atexit destructor for 'keys''
text$yd	ENDS
; Function compile flags: /Ogtp
;	COMDAT ??__Elastkeys@@YAXXZ
text$di	SEGMENT
??__Elastkeys@@YAXXZ PROC				; `dynamic initializer for 'lastkeys'', COMDAT
; File D:\Platformer\CPPGame-a38d0db726ab2ff89afdd02c18394bd0c58340c9\CPPGame-a38d0db726ab2ff89afdd02c18394bd0c58340c9\PlatformerGame\src\GameEngine\WIndow.cpp
; Line 21
	mov	ecx, OFFSET ?lastkeys@@3V?$unordered_map@HEU?$hash@H@std@@U?$equal_to@H@2@V?$allocator@U?$pair@$$CBHE@std@@@2@@std@@A
	call	??0?$unordered_map@HEU?$hash@H@std@@U?$equal_to@H@2@V?$allocator@U?$pair@$$CBHE@std@@@2@@std@@QAE@XZ ; std::unordered_map<int,unsigned char,std::hash<int>,std::equal_to<int>,std::allocator<std::pair<int const ,unsigned char> > >::unordered_map<int,unsigned char,std::hash<int>,std::equal_to<int>,std::allocator<std::pair<int const ,unsigned char> > >
	push	OFFSET ??__Flastkeys@@YAXXZ		; `dynamic atexit destructor for 'lastkeys''
	call	_atexit
	pop	ecx
	ret	0
??__Elastkeys@@YAXXZ ENDP				; `dynamic initializer for 'lastkeys''
text$di	ENDS
; Function compile flags: /Ogtp
;	COMDAT ??__Flastkeys@@YAXXZ
text$yd	SEGMENT
??__Flastkeys@@YAXXZ PROC				; `dynamic atexit destructor for 'lastkeys'', COMDAT
	mov	ecx, OFFSET ?lastkeys@@3V?$unordered_map@HEU?$hash@H@std@@U?$equal_to@H@2@V?$allocator@U?$pair@$$CBHE@std@@@2@@std@@A
	jmp	??1?$_Hash@V?$_Umap_traits@HEV?$_Uhash_compare@HU?$hash@H@std@@U?$equal_to@H@2@@std@@V?$allocator@U?$pair@$$CBHE@std@@@2@$0A@@std@@@std@@QAE@XZ
??__Flastkeys@@YAXXZ ENDP				; `dynamic atexit destructor for 'lastkeys''
text$yd	ENDS
; Function compile flags: /Ogtp
;	COMDAT ??0Window@@QAE@HHQBD@Z
_TEXT	SEGMENT
_width$dead$ = 8					; size = 4
_height$dead$ = 12					; size = 4
_name$dead$ = 16					; size = 4
??0Window@@QAE@HHQBD@Z PROC				; Window::Window, COMDAT
; _this$dead$ = ecx
; File D:\Platformer\CPPGame-a38d0db726ab2ff89afdd02c18394bd0c58340c9\CPPGame-a38d0db726ab2ff89afdd02c18394bd0c58340c9\PlatformerGame\src\GameEngine\WIndow.cpp
; Line 139
	call	_glfwInit
	test	eax, eax
	jne	SHORT $LN2@Window
; Line 140
	push	-1
	call	DWORD PTR __imp__exit
$LN2@Window:
; Line 144
	push	1
	push	131077					; 00020005H
	call	_glfwWindowHint
; Line 146
	push	0
	push	0
	push	OFFSET ??_C@_08CEDOAIBO@Engine3d@
	push	480					; 000001e0H
	push	640					; 00000280H
	call	_glfwCreateWindow
	add	esp, 28					; 0000001cH
	mov	DWORD PTR ?window@@3VWindow@@A, eax
; Line 147
	test	eax, eax
	jne	SHORT $LN3@Window
; Line 149
	call	_glfwTerminate
; Line 150
	push	1
	call	DWORD PTR __imp__exit
$LN3@Window:
; Line 154
	push	eax
	call	_glfwMakeContextCurrent
	add	esp, 4
; Line 157
	call	_glewInit@0
	test	eax, eax
	je	SHORT $LN4@Window
; Line 158
	mov	ecx, DWORD PTR __imp_?cout@std@@3V?$basic_ostream@DU?$char_traits@D@std@@@1@A
	mov	edx, OFFSET ??_C@_07LIJFLNDM@problem@
	push	OFFSET ??$endl@DU?$char_traits@D@std@@@std@@YAAAV?$basic_ostream@DU?$char_traits@D@std@@@0@AAV10@@Z ; std::endl<char,std::char_traits<char> >
	call	??$?6U?$char_traits@D@std@@@std@@YAAAV?$basic_ostream@DU?$char_traits@D@std@@@0@AAV10@PBD@Z ; std::operator<<<std::char_traits<char> >
	mov	ecx, eax
	call	DWORD PTR __imp_??6?$basic_ostream@DU?$char_traits@D@std@@@std@@QAEAAV01@P6AAAV01@AAV01@@Z@Z
; Line 159
	push	7
	call	DWORD PTR __imp__exit
$LN4@Window:
	push	esi
; Line 162
	mov	esi, DWORD PTR __imp__glEnable@4
	push	3553					; 00000de1H
	call	esi
; Line 163
	push	2929					; 00000b71H
	call	esi
; Line 167
	push	3042					; 00000be2H
	call	esi
; Line 168
	push	771					; 00000303H
	push	770					; 00000302H
	call	DWORD PTR __imp__glBlendFunc@8
; Line 169
	sub	esp, 16					; 00000010H
	mov	DWORD PTR [esp+12], 0
	mov	DWORD PTR [esp+8], 0
	mov	DWORD PTR [esp+4], 0
	mov	DWORD PTR [esp], 1065353216		; 3f800000H
	call	DWORD PTR __imp__glClearColor@16
; Line 170
	push	OFFSET ?key_callback@@YAXPAUGLFWwindow@@HHHH@Z ; key_callback
	push	DWORD PTR ?window@@3VWindow@@A
	call	_glfwSetKeyCallback
; Line 171
	push	0
	call	_glfwSwapInterval
	add	esp, 12					; 0000000cH
; Line 173
	push	37600					; 000092e0H
	call	esi
; Line 174
	push	0
	push	OFFSET ?GLDebugMessageCallback@@YGXIIIIHPBDPBX@Z ; GLDebugMessageCallback
	call	DWORD PTR ___glewDebugMessageCallback
; Line 176
	mov	eax, OFFSET ?window@@3VWindow@@A	; window
	pop	esi
	ret	12					; 0000000cH
$LN6@Window:
??0Window@@QAE@HHQBD@Z ENDP				; Window::Window
_TEXT	ENDS
END
